BL51 BANKED LINKER/LOCATER V6.22.2.0                                                    12/22/2022  15:38:00  PAGE 1


BL51 BANKED LINKER/LOCATER V6.22.2.0, INVOKED BY:
C:\KEIL_V5\C51\BIN\BL51.EXE .\Objects\STARTUP_M5.obj, .\Objects\sys.obj, .\Objects\timer.obj, .\Objects\uart.obj, .\Obje
>> cts\canbus.obj, .\Objects\main.obj, .\Objects\const.obj, .\Objects\ui.obj, .\Objects\dwin8283.obj, .\Objects\ssd2828.
>> obj, .\Objects\rtc.obj, .\Objects\MYModBus.obj, .\Objects\ReceiveData.obj, .\Objects\vars.obj TO .\Objects\T5L51 PRIN
>> T (.\Listings\T5L51.m51) RAMSIZE (256) CODE (0X0100-0XFEFF) XDATA (0X8000-0XFFFF)


MEMORY MODEL: LARGE


INPUT MODULES INCLUDED:
  .\Objects\STARTUP_M5.obj (STARTUP_M5)
  .\Objects\sys.obj (SYS)
  .\Objects\timer.obj (TIMER)
  .\Objects\uart.obj (UART)
  .\Objects\canbus.obj (CANBUS)
  .\Objects\main.obj (MAIN)
  .\Objects\const.obj (CONST)
  .\Objects\ui.obj (UI)
  .\Objects\dwin8283.obj (DWIN8283)
  .\Objects\ssd2828.obj (SSD2828)
  .\Objects\rtc.obj (RTC)
  .\Objects\MYModBus.obj (MYMODBUS)
  .\Objects\ReceiveData.obj (RECEIVEDATA)
  .\Objects\vars.obj (VARS)
  C:\KEIL_V5\C51\LIB\C51L.LIB (?C_STARTUP)
  C:\KEIL_V5\C51\LIB\C51L.LIB (?C_INIT)
  C:\KEIL_V5\C51\LIB\C51L.LIB (?C?COPY)
  C:\KEIL_V5\C51\LIB\C51L.LIB (?C?CLDPTR)
  C:\KEIL_V5\C51\LIB\C51L.LIB (?C?CLDOPTR)
  C:\KEIL_V5\C51\LIB\C51L.LIB (?C?CSTPTR)
  C:\KEIL_V5\C51\LIB\C51L.LIB (?C?IMUL)
  C:\KEIL_V5\C51\LIB\C51L.LIB (?C?UIDIV)
  C:\KEIL_V5\C51\LIB\C51L.LIB (?C?IILDX)
  C:\KEIL_V5\C51\LIB\C51L.LIB (?C?ILDIX)
  C:\KEIL_V5\C51\LIB\C51L.LIB (?C?ILDPTR)
  C:\KEIL_V5\C51\LIB\C51L.LIB (?C?ILDOPTR)
  C:\KEIL_V5\C51\LIB\C51L.LIB (?C?IILDPTR)
  C:\KEIL_V5\C51\LIB\C51L.LIB (?C?ISTPTR)
  C:\KEIL_V5\C51\LIB\C51L.LIB (?C?LMUL)
  C:\KEIL_V5\C51\LIB\C51L.LIB (?C?ULDIV)
  C:\KEIL_V5\C51\LIB\C51L.LIB (?C?SLDIV)
  C:\KEIL_V5\C51\LIB\C51L.LIB (?C?ULCMP)
  C:\KEIL_V5\C51\LIB\C51L.LIB (?C?ULSHR)
  C:\KEIL_V5\C51\LIB\C51L.LIB (?C?LSHL)
  C:\KEIL_V5\C51\LIB\C51L.LIB (?C?LSTXDATA)
  C:\KEIL_V5\C51\LIB\C51L.LIB (?C?LSTKXDATA)
  C:\KEIL_V5\C51\LIB\C51L.LIB (?C?OFFXADD)
  C:\KEIL_V5\C51\LIB\C51L.LIB (?C?PLDPTR)
  C:\KEIL_V5\C51\LIB\C51L.LIB (?C?PLDOPTR)
  C:\KEIL_V5\C51\LIB\C51L.LIB (?C?ICALL)
  C:\KEIL_V5\C51\LIB\C51L.LIB (?C?STRCMP)
  C:\KEIL_V5\C51\LIB\C51L.LIB (?C?PLDIDATA)
  C:\KEIL_V5\C51\LIB\C51L.LIB (?C?PLDXDATA)
  C:\KEIL_V5\C51\LIB\C51L.LIB (?C?PLDPDATA)
  C:\KEIL_V5\C51\LIB\C51L.LIB (?C?PLDCODE)


BL51 BANKED LINKER/LOCATER V6.22.2.0                                                  12/22/2022  15:38:00  PAGE 2


LINK MAP OF MODULE:  .\Objects\T5L51 (STARTUP_M5)


            TYPE    BASE      LENGTH    RELOCATION   SEGMENT NAME
            -----------------------------------------------------

            * * * * * * *   D A T A   M E M O R Y   * * * * * * *
            REG     0000H     0008H     ABSOLUTE     "REG BANK 0"
            DATA    0008H     0013H     UNIT         ?DT?TIMER
            DATA    001BH     0003H     UNIT         _DATA_GROUP_
            DATA    001EH     0002H     UNIT         ?DT?SYS
            BIT     0020H.0   0000H.1   UNIT         ?BI?SSD2828
            BIT     0020H.1   0000H.1   UNIT         ?BI?RTC
                    0020H.2   0000H.6                *** GAP ***
            IDATA   0021H     0001H     UNIT         ?STACK

            * * * * * * *  X D A T A   M E M O R Y  * * * * * * *
                    0000H     8000H                  *** GAP ***
            XDATA   8000H     2228H     UNIT         ?XD?UART
            XDATA   A228H     1A05H     UNIT         ?XD?CANBUS
            XDATA   BC2DH     031AH     UNIT         ?XD?DWIN8283
            XDATA   BF47H     0134H     UNIT         ?XD?VARS
            XDATA   C07BH     0057H     UNIT         ?XD?SYS
            XDATA   C0D2H     0041H     UNIT         ?XD?TIMER
            XDATA   C113H     003CH     UNIT         _XDATA_GROUP_
            XDATA   C14FH     0017H     UNIT         ?XD?MYMODBUS
            XDATA   C166H     0012H     UNIT         ?XD?_WRITE_RTC?RTC
            XDATA   C178H     000FH     UNIT         ?XD?WRITE_WIFI_RTC?RTC
            XDATA   C187H     000EH     UNIT         ?XD?_SEND_MODBUS08_10?MYMODBUS
            XDATA   C195H     000DH     UNIT         ?XD?_TOUCHSWITCH?SYS
            XDATA   C1A2H     000CH     UNIT         ?XD?SPIFLASH_ACTION?SYS
            XDATA   C1AEH     000BH     UNIT         ?XD?_GETTOUCHANCTION?SYS
            XDATA   C1B9H     000AH     UNIT         ?XD?_SEND_MODBUS04_10?MYMODBUS
            XDATA   C1C3H     0008H     UNIT         ?XD?NORFLASH_ACTION?SYS
            XDATA   C1CBH     0008H     UNIT         ?XD?GETTOUCHSTATUS?SYS
            XDATA   C1D3H     0008H     UNIT         ?XD?RTC
            XDATA   C1DBH     0005H     UNIT         ?XD?_MUSICPLAY?SYS
            XDATA   C1E0H     0005H     UNIT         ?XD?_SSD2828_READREG?SSD2828
            XDATA   C1E5H     0005H     UNIT         ?XD?_SSD2828_READ_MIPI?SSD2828
            XDATA   C1EAH     0005H     UNIT         ?XD?_RTC_GET_WEEK?RTC
            XDATA   C1EFH     0004H     UNIT         ?XD?RESETT5L?SYS
            XDATA   C1F3H     0004H     UNIT         ?XD?_UART4_SENDBYTE32?UART
            XDATA   C1F7H     0003H     UNIT         ?XD?_W_COM?SSD2828
            XDATA   C1FAH     0002H     UNIT         ?XD?GETPAGEID?SYS

            * * * * * * *   C O D E   M E M O R Y   * * * * * * *
            CODE    0000H     0003H     ABSOLUTE     
                    0003H     0008H                  *** GAP ***
            CODE    000BH     0003H     ABSOLUTE     
                    000EH     0015H                  *** GAP ***
            CODE    0023H     0003H     ABSOLUTE     
                    0026H     0005H                  *** GAP ***
            CODE    002BH     0003H     ABSOLUTE     
                    002EH     001DH                  *** GAP ***
            CODE    004BH     0003H     ABSOLUTE     
                    004EH     0005H                  *** GAP ***
            CODE    0053H     0003H     ABSOLUTE     
BL51 BANKED LINKER/LOCATER V6.22.2.0                                                  12/22/2022  15:38:00  PAGE 3


                    0056H     0005H                  *** GAP ***
            CODE    005BH     0003H     ABSOLUTE     
                    005EH     0005H                  *** GAP ***
            CODE    0063H     0003H     ABSOLUTE     
                    0066H     0005H                  *** GAP ***
            CODE    006BH     0003H     ABSOLUTE     
                    006EH     0015H                  *** GAP ***
            CODE    0083H     0003H     ABSOLUTE     
                    0086H     0072H                  *** GAP ***
            CODE    00F8H     000BH     ABSOLUTE     
            CODE    0103H     1FF4H     UNIT         ?PR?RECEIVE_MODBUS?RECEIVEDATA
            CODE    20F7H     0D04H     UNIT         ?PR?TOUCH_SCAN_6?UI
            CODE    2DFBH     0CB6H     UNIT         ?PR?TOUCH_SCAN_1_2?UI
            CODE    3AB1H     0888H     UNIT         ?PR?FILE_CONTROL?UI
            CODE    4339H     0736H     UNIT         ?PR?_ALM_INIT?RECEIVEDATA
            CODE    4A6FH     06EBH     UNIT         ?PR?W_WRITE?SSD2828
            CODE    515AH     0650H     UNIT         ?C?LIB_CODE
            CODE    57AAH     05DBH     UNIT         ?PR?C055_CODE_DOWNLOAD?SSD2828
            CODE    5D85H     05C6H     UNIT         ?PR?POLLING1_6?UI
            CODE    634BH     053CH     UNIT         ?PR?_PRO8283RXTREAT?DWIN8283
            CODE    6887H     041DH     UNIT         ?PR?COORDINATE_CONTROL?UI
            CODE    6CA4H     036DH     UNIT         ?PR?CAN_ISR?CANBUS
            CODE    7011H     02D8H     UNIT         ?PR?POLLING15_17?UI
            CODE    72E9H     027FH     UNIT         ?PR?_CANTX?CANBUS
            CODE    7568H     026AH     UNIT         ?PR?VARS_INITIALIZE?VARS
            CODE    77D2H     023DH     UNIT         ?PR?TOUCH_SCAN_10_12?UI
            CODE    7A0FH     0217H     UNIT         ?PR?POLLING10_12?UI
            CODE    7C26H     0200H     UNIT         ?CO?MYMODBUS
            CODE    7E26H     01F8H     UNIT         ?PR?_GETTOUCHANCTION?SYS
            CODE    801EH     01DCH     UNIT         ?PR?TOUCH_SCAN_13?UI
            CODE    81FAH     01CDH     UNIT         ?PR?_READ_DGUS_VP?SYS
            CODE    83C7H     01B3H     UNIT         ?PR?_UATR_SEND_DATA?UART
            CODE    857AH     019EH     UNIT         ?PR?TOUCH_SCAN_4?UI
            CODE    8718H     0193H     UNIT         ?PR?_WRITE_DGUS_VP?SYS
            CODE    88ABH     0186H     UNIT         ?CO?SSD2828
            CODE    8A31H     017BH     UNIT         ?PR?TOUCH_SCAN_3?UI
            CODE    8BACH     016CH     UNIT         ?PR?LOADONEFRAME?CANBUS
            CODE    8D18H     013FH     UNIT         ?PR?PRO8283DEAL?DWIN8283
            CODE    8E57H     012CH     UNIT         ?PR?_SYS_WRITE_VP?SYS
            CODE    8F83H     0120H     UNIT         ?PR?SPIFLASH_ACTION?SYS
            CODE    90A3H     011AH     UNIT         ?PR?TOUCH_SCAN_5?UI
            CODE    91BDH     0112H     UNIT         ?PR?STA_INIT?MAIN
            CODE    92CFH     010FH     UNIT         ?PR?SSD2828_INIT?SSD2828
            CODE    93DEH     00F6H     UNIT         ?PR?NORFLASH_ACTION?SYS
            CODE    94D4H     00F6H     UNIT         ?PR?_SEND_MODBUS?MYMODBUS
            CODE    95CAH     00EBH     UNIT         ?PR?TOUCH_SCAN_16?UI
            CODE    96B5H     00EAH     UNIT         ?PR?_SSD2828_REGCONFIG?SSD2828
            CODE    979FH     00E5H     UNIT         ?PR?_SYS_READ_VP?SYS
            CODE    9884H     00E5H     UNIT         ?PR?CONTORL?UI
            CODE    9969H     00E1H     UNIT         ?PR?GETTOUCHSTATUS?SYS
            CODE    9A4AH     00CFH     UNIT         ?PR?RDTIME?RTC
            CODE    9B19H     00CDH     UNIT         ?PR?_WRITE_RTC?RTC
            CODE    9BE6H     00C9H     UNIT         ?PR?SEND_MODBUS_IP?MYMODBUS
            CODE    9CAFH     00C6H     UNIT         ?PR?PRO8283INIT?DWIN8283
            CODE    9D75H     00C1H     UNIT         ?PR?_SSD2828_READREG?SSD2828
            CODE    9E36H     00BFH     UNIT         ?PR?SSD2828_READID?SSD2828
            CODE    9EF5H     00BEH     UNIT         ?PR?_W_COM?SSD2828
BL51 BANKED LINKER/LOCATER V6.22.2.0                                                  12/22/2022  15:38:00  PAGE 4


            CODE    9FB3H     00AFH     UNIT         ?PR?WRITE_WIFI_RTC?RTC
            CODE    A062H     00A9H     UNIT         ?PR?_SSD2828_WRITEPACKAGE?SSD2828
            CODE    A10BH     009BH     UNIT         ?PR?UART3_ISR?UART
            CODE    A1A6H     0094H     UNIT         ?PR?_RTC_GET_WEEK?RTC
            CODE    A23AH     0093H     UNIT         ?PR?_PINOUTPUT?SYS
            CODE    A2CDH     0091H     UNIT         ?PR?_CANBUSINIT?CANBUS
            CODE    A35EH     008FH     UNIT         ?PR?UART2_ISR?UART
            CODE    A3EDH     008CH     UNIT         ?C_C51STARTUP
            CODE    A479H     0087H     UNIT         ?PR?AUTOUPLOADVALUE?DWIN8283
            CODE    A500H     0083H     UNIT         ?PR?TOUCH_SCAN_0?UI
            CODE    A583H     0083H     UNIT         ?PR?_CRC16?MYMODBUS
            CODE    A606H     0081H     UNIT         ?PR?_PAGE_CHANGE?SYS
            CODE    A687H     0081H     UNIT         ?PR?T0_ISR_PC?TIMER
            CODE    A708H     0081H     UNIT         ?PR?TOUCH_SCAN_14?UI
            CODE    A789H     007AH     UNIT         ?PR?_SSD2828_READ_MIPI?SSD2828
            CODE    A803H     007AH     UNIT         ?PR?_SEND_MODBUS08_10?MYMODBUS
            CODE    A87DH     0075H     UNIT         ?PR?_I2CBW?RTC
            CODE    A8F2H     0072H     UNIT         ?PR?MAIN?MAIN
            CODE    A964H     0072H     UNIT         ?PR?INIT_RTC?RTC
            CODE    A9D6H     006FH     UNIT         ?PR?_SEND_MODBUS04_10?MYMODBUS
            CODE    AA45H     006BH     UNIT         ?PR?PAGEFUNCTION?UI
            CODE    AAB0H     0067H     UNIT         ?PR?LCD_PA_SET?SSD2828
            CODE    AB17H     0062H     UNIT         ?PR?_TOUCHSWITCH?SYS
            CODE    AB79H     0060H     UNIT         ?PR?UART4T_ISR?UART
            CODE    ABD9H     0060H     UNIT         ?PR?UART5T_ISR?UART
            CODE    AC39H     005FH     UNIT         ?PR?_SEND_MODBUS_10?MYMODBUS
            CODE    AC98H     005EH     UNIT         ?PR?_UART4_SENDBYTE32?UART
            CODE    ACF6H     0057H     UNIT         ?PR?_SSD2828_WRITECMD?SSD2828
            CODE    AD4DH     0055H     UNIT         ?PR?_GETPININ?SYS
            CODE    ADA2H     0053H     UNIT         ?PR?_UARTINIT?UART
            CODE    ADF5H     004FH     UNIT         ?PR?UART4R_ISR?UART
            CODE    AE44H     004EH     UNIT         ?PR?_UART2_INIT?UART
            CODE    AE92H     004EH     UNIT         ?PR?_SENDSTRING?MYMODBUS
            CODE    AEE0H     004CH     UNIT         ?PR?_SETPININ?SYS
            CODE    AF2CH     0049H     UNIT         ?PR?_UART3_INIT?UART
            CODE    AF75H     0048H     UNIT         ?PR?_DELAY_MS?SYS
            CODE    AFBDH     0048H     UNIT         ?PR?_SETPINOUT?SYS
            CODE    B005H     0047H     UNIT         ?PR?UART5R_ISR?UART
            CODE    B04CH     0044H     UNIT         ?C?LDIV
            CODE    B090H     003FH     UNIT         ?PR?_MUSICPLAY?SYS
            CODE    B0CFH     0039H     UNIT         ?CO?UI
            CODE    B108H     0036H     UNIT         ?PR?I2CBR?RTC
            CODE    B13EH     0035H     UNIT         ?PR?_HEX_TO_BCD?RTC
            CODE    B173H     002EH     UNIT         ?C_INITSEG
            CODE    B1A1H     0029H     UNIT         ?PR?INIT_CPU?SYS
            CODE    B1CAH     0028H     UNIT         ?PR?CLEARRAM?SYS
            CODE    B1F2H     0028H     UNIT         ?PR?_UART4_INIT?UART
            CODE    B21AH     0028H     UNIT         ?PR?_UART5_INIT?UART
            CODE    B242H     0028H     UNIT         ?PR?_DELAYUS?RTC
            CODE    B26AH     0027H     UNIT         ?PR?CACK?RTC
            CODE    B291H     0022H     UNIT         ?PR?_STARTTIMER?TIMER
            CODE    B2B3H     0020H     UNIT         ?PR?RESETT5L?SYS
            CODE    B2D3H     001FH     UNIT         ?PR?_DELAY_US?SYS
            CODE    B2F2H     001EH     UNIT         ?PR?GETPAGEID?SYS
            CODE    B310H     001CH     UNIT         ?PR?T0_INIT?TIMER
            CODE    B32CH     001BH     UNIT         ?PR?CANERRORRESET?CANBUS
            CODE    B347H     001BH     UNIT         ?PR?I2CSTOP?RTC
BL51 BANKED LINKER/LOCATER V6.22.2.0                                                  12/22/2022  15:38:00  PAGE 5


            CODE    B362H     001AH     UNIT         ?PR?I2CSTART?RTC
            CODE    B37CH     0015H     UNIT         ?PR?_KILLTIMER?TIMER
            CODE    B391H     0015H     UNIT         ?PR?P9FUNC?UI
            CODE    B3A6H     0013H     UNIT         ?PR?_GETTIMEOUTFLAG?TIMER
            CODE    B3B9H     000FH     UNIT         ?PR?MACK?RTC
            CODE    B3C8H     000DH     UNIT         ?PR?MNAK?RTC
            CODE    B3D5H     000CH     UNIT         ?PR?_UART4_SENDBYTE?UART
            CODE    B3E1H     000CH     UNIT         ?PR?_UART4_SENDBYTE16?UART
            CODE    B3EDH     0009H     UNIT         ?PR?P3FUNC?UI
            CODE    B3F6H     0009H     UNIT         ?PR?RTC_READ_AND_SET?RTC
            CODE    B3FFH     0007H     UNIT         ?PR?TIMER2_ISR?TIMER
            CODE    B406H     0007H     UNIT         ?PR?IO_INIT?MAIN
            CODE    B40DH     0006H     UNIT         ?PR?P0FUNC?UI
            CODE    B413H     0006H     UNIT         ?PR?P1FUNC?UI
            CODE    B419H     0006H     UNIT         ?PR?P2FUNC?UI
            CODE    B41FH     0006H     UNIT         ?PR?P5FUNC?UI
            CODE    B425H     0006H     UNIT         ?PR?P6FUNC?UI
            CODE    B42BH     0006H     UNIT         ?PR?P10_12FUNC?UI
            CODE    B431H     0004H     UNIT         ?CO?DWIN8283
            CODE    B435H     0004H     UNIT         ?PR?SDA_IN?RTC
            CODE    B439H     0004H     UNIT         ?PR?SDA_OUT?RTC
            CODE    B43DH     0003H     UNIT         ?PR?P4FUNC?UI
            CODE    B440H     0003H     UNIT         ?PR?P13FUNC?UI
            CODE    B443H     0003H     UNIT         ?PR?P14FUNC?UI
            CODE    B446H     0003H     UNIT         ?PR?P16FUNC?UI
            CODE    B449H     0003H     UNIT         ?PR?P15_17FUNC?UI
            CODE    B44CH     0001H     UNIT         ?PR?P18FUNC?UI
            CODE    B44DH     0001H     UNIT         ?PR?POLLING2?UI



OVERLAY MAP OF MODULE:   .\Objects\T5L51 (STARTUP_M5)


SEGMENT                                     DATA_GROUP          XDATA_GROUP
  +--> CALLED SEGMENT                     START    LENGTH     START    LENGTH
-----------------------------------------------------------------------------
?PR?T0_ISR_PC?TIMER                       001BH    0001H      -----    -----

*** NEW ROOT ***************************************************

?PR?CAN_ISR?CANBUS                        -----    -----      C113H    0001H
  +--> ?PR?LOADONEFRAME?CANBUS

*** NEW ROOT ***************************************************

?C_C51STARTUP                             -----    -----      -----    -----
  +--> ?PR?MAIN?MAIN
  +--> ?C_INITSEG

?PR?MAIN?MAIN                             -----    -----      -----    -----
  +--> ?PR?INIT_CPU?SYS
  +--> ?PR?T0_INIT?TIMER
  +--> ?PR?PRO8283INIT?DWIN8283
  +--> ?PR?INIT_RTC?RTC
  +--> ?PR?_STARTTIMER?TIMER
  +--> ?PR?IO_INIT?MAIN
BL51 BANKED LINKER/LOCATER V6.22.2.0                                                  12/22/2022  15:38:00  PAGE 6


  +--> ?PR?_DELAY_MS?SYS
  +--> ?PR?SSD2828_INIT?SSD2828
  +--> ?PR?RDTIME?RTC
  +--> ?PR?_UARTINIT?UART
  +--> ?PR?VARS_INITIALIZE?VARS
  +--> ?PR?STA_INIT?MAIN
  +--> ?PR?_GETTIMEOUTFLAG?TIMER
  +--> ?PR?PAGEFUNCTION?UI
  +--> ?PR?PRO8283DEAL?DWIN8283
  +--> ?PR?RECEIVE_MODBUS?RECEIVEDATA

?PR?INIT_CPU?SYS                          -----    -----      -----    -----
  +--> ?PR?CLEARRAM?SYS

?PR?CLEARRAM?SYS                          001CH    0002H      -----    -----

?PR?PRO8283INIT?DWIN8283                  -----    -----      C114H    000AH
  +--> ?CO?DWIN8283
  +--> ?PR?_READ_DGUS_VP?SYS
  +--> ?PR?_UARTINIT?UART
  +--> ?PR?_CANBUSINIT?CANBUS

?PR?_READ_DGUS_VP?SYS                     -----    -----      C13CH    0013H

?PR?_UARTINIT?UART                        -----    -----      C11EH    0005H
  +--> ?PR?_UART2_INIT?UART
  +--> ?PR?_UART3_INIT?UART
  +--> ?PR?_UART4_INIT?UART
  +--> ?PR?_UART5_INIT?UART

?PR?_UART2_INIT?UART                      -----    -----      C123H    0002H
  +--> ?PR?_SETPINOUT?SYS
  +--> ?PR?_SETPININ?SYS

?PR?_UART3_INIT?UART                      -----    -----      C123H    0002H
  +--> ?PR?_SETPINOUT?SYS
  +--> ?PR?_SETPININ?SYS

?PR?_CANBUSINIT?CANBUS                    -----    -----      C11EH    0003H
  +--> ?PR?_SETPINOUT?SYS
  +--> ?PR?_SETPININ?SYS
  +--> ?PR?_PINOUTPUT?SYS

?PR?INIT_RTC?RTC                          -----    -----      -----    -----
  +--> ?PR?_SETPINOUT?SYS
  +--> ?PR?_I2CBW?RTC
  +--> ?PR?I2CSTOP?RTC
  +--> ?PR?I2CSTART?RTC
  +--> ?PR?I2CBR?RTC
  +--> ?PR?MACK?RTC
  +--> ?PR?MNAK?RTC

?PR?_I2CBW?RTC                            -----    -----      -----    -----
  +--> ?PR?I2CSTART?RTC
  +--> ?PR?I2CSTOP?RTC
  +--> ?PR?SDA_OUT?RTC
  +--> ?PR?_DELAYUS?RTC
BL51 BANKED LINKER/LOCATER V6.22.2.0                                                  12/22/2022  15:38:00  PAGE 7


  +--> ?PR?CACK?RTC

?PR?I2CSTART?RTC                          -----    -----      -----    -----
  +--> ?PR?SDA_OUT?RTC
  +--> ?PR?_DELAYUS?RTC

?PR?I2CSTOP?RTC                           -----    -----      -----    -----
  +--> ?PR?SDA_OUT?RTC
  +--> ?PR?_DELAYUS?RTC
  +--> ?PR?SDA_IN?RTC

?PR?CACK?RTC                              -----    -----      -----    -----
  +--> ?PR?SDA_IN?RTC
  +--> ?PR?_DELAYUS?RTC
  +--> ?PR?SDA_OUT?RTC

?PR?I2CBR?RTC                             -----    -----      -----    -----
  +--> ?PR?SDA_IN?RTC
  +--> ?PR?_DELAYUS?RTC

?PR?MACK?RTC                              -----    -----      -----    -----
  +--> ?PR?SDA_OUT?RTC
  +--> ?PR?_DELAYUS?RTC

?PR?MNAK?RTC                              -----    -----      -----    -----
  +--> ?PR?SDA_OUT?RTC
  +--> ?PR?_DELAYUS?RTC

?PR?_DELAY_MS?SYS                         -----    -----      C144H    0004H
  +--> ?PR?_DELAY_US?SYS

?PR?SSD2828_INIT?SSD2828                  -----    -----      -----    -----
  +--> ?PR?SSD2828_READID?SSD2828
  +--> ?PR?_SSD2828_REGCONFIG?SSD2828
  +--> ?PR?_DELAY_MS?SYS
  +--> ?PR?C055_CODE_DOWNLOAD?SSD2828
  +--> ?PR?LCD_PA_SET?SSD2828
  +--> ?PR?_SSD2828_WRITECMD?SSD2828

?PR?SSD2828_READID?SSD2828                -----    -----      C114H    0005H
  +--> ?PR?_DELAY_US?SYS

?PR?_SSD2828_REGCONFIG?SSD2828            -----    -----      C11BH    0004H
  +--> ?PR?_DELAY_US?SYS

?PR?C055_CODE_DOWNLOAD?SSD2828            -----    -----      -----    -----
  +--> ?CO?SSD2828
  +--> ?PR?_SSD2828_WRITEPACKAGE?SSD2828
  +--> ?PR?_DELAY_MS?SYS

?PR?_SSD2828_WRITEPACKAGE?SSD2828         -----    -----      C114H    0007H
  +--> ?PR?_SSD2828_REGCONFIG?SSD2828
  +--> ?PR?_SSD2828_WRITECMD?SSD2828
  +--> ?PR?_DELAY_US?SYS

?PR?_SSD2828_WRITECMD?SSD2828             -----    -----      C11BH    0002H
  +--> ?PR?_DELAY_US?SYS
BL51 BANKED LINKER/LOCATER V6.22.2.0                                                  12/22/2022  15:38:00  PAGE 8



?PR?LCD_PA_SET?SSD2828                    -----    -----      C114H    0007H
  +--> ?PR?_SSD2828_REGCONFIG?SSD2828

?PR?RDTIME?RTC                            -----    -----      C114H    0002H
  +--> ?PR?_I2CBW?RTC
  +--> ?PR?I2CSTOP?RTC
  +--> ?PR?I2CSTART?RTC
  +--> ?PR?I2CBR?RTC
  +--> ?PR?MACK?RTC
  +--> ?PR?MNAK?RTC
  +--> ?PR?_WRITE_DGUS_VP?SYS

?PR?_WRITE_DGUS_VP?SYS                    -----    -----      C13CH    000DH

?PR?STA_INIT?MAIN                         -----    -----      C114H    0002H
  +--> ?PR?_SYS_WRITE_VP?SYS

?PR?_SYS_WRITE_VP?SYS                     -----    -----      C136H    0007H

?PR?PAGEFUNCTION?UI                       -----    -----      C114H    0002H
  +--> ?CO?UI

?CO?UI                                    -----    -----      -----    -----
  +--> ?PR?P0FUNC?UI
  +--> ?PR?P1FUNC?UI
  +--> ?PR?P2FUNC?UI
  +--> ?PR?P3FUNC?UI
  +--> ?PR?P4FUNC?UI
  +--> ?PR?P5FUNC?UI
  +--> ?PR?P6FUNC?UI
  +--> ?PR?P9FUNC?UI
  +--> ?PR?P10_12FUNC?UI
  +--> ?PR?P13FUNC?UI
  +--> ?PR?P14FUNC?UI
  +--> ?PR?P15_17FUNC?UI
  +--> ?PR?P16FUNC?UI
  +--> ?PR?P18FUNC?UI

?PR?P0FUNC?UI                             -----    -----      -----    -----
  +--> ?PR?CONTORL?UI
  +--> ?PR?TOUCH_SCAN_0?UI

?PR?CONTORL?UI                            -----    -----      -----    -----
  +--> ?PR?_SEND_MODBUS?MYMODBUS
  +--> ?PR?_SYS_WRITE_VP?SYS

?PR?_SEND_MODBUS?MYMODBUS                 -----    -----      C136H    0006H
  +--> ?PR?_CRC16?MYMODBUS
  +--> ?PR?_SENDSTRING?MYMODBUS

?PR?_CRC16?MYMODBUS                       -----    -----      C13EH    000AH
  +--> ?CO?MYMODBUS

?PR?_SENDSTRING?MYMODBUS                  -----    -----      C13EH    0006H
  +--> ?PR?_UART4_SENDBYTE?UART
  +--> ?PR?_DELAY_MS?SYS
BL51 BANKED LINKER/LOCATER V6.22.2.0                                                  12/22/2022  15:38:00  PAGE 9



?PR?TOUCH_SCAN_0?UI                       -----    -----      C116H    0001H
  +--> ?PR?_SYS_READ_VP?SYS
  +--> ?PR?_SEND_MODBUS?MYMODBUS
  +--> ?PR?_SYS_WRITE_VP?SYS

?PR?_SYS_READ_VP?SYS                      -----    -----      C118H    0007H

?PR?P1FUNC?UI                             -----    -----      -----    -----
  +--> ?PR?POLLING1_6?UI
  +--> ?PR?TOUCH_SCAN_1_2?UI

?PR?POLLING1_6?UI                         -----    -----      -----    -----
  +--> ?PR?_SEND_MODBUS?MYMODBUS

?PR?TOUCH_SCAN_1_2?UI                     -----    -----      C116H    0001H
  +--> ?PR?_SYS_READ_VP?SYS
  +--> ?PR?_SEND_MODBUS?MYMODBUS
  +--> ?PR?_SYS_WRITE_VP?SYS
  +--> ?PR?_PAGE_CHANGE?SYS
  +--> ?PR?_GETTIMEOUTFLAG?TIMER
  +--> ?PR?_DELAY_MS?SYS
  +--> ?PR?_STARTTIMER?TIMER
  +--> ?PR?_KILLTIMER?TIMER

?PR?_PAGE_CHANGE?SYS                      -----    -----      C136H    0006H
  +--> ?PR?_WRITE_DGUS_VP?SYS
  +--> ?PR?_DELAY_US?SYS
  +--> ?PR?_READ_DGUS_VP?SYS

?PR?P2FUNC?UI                             -----    -----      -----    -----
  +--> ?PR?POLLING1_6?UI
  +--> ?PR?TOUCH_SCAN_1_2?UI

?PR?P3FUNC?UI                             -----    -----      -----    -----
  +--> ?PR?TOUCH_SCAN_3?UI
  +--> ?PR?COORDINATE_CONTROL?UI
  +--> ?PR?FILE_CONTROL?UI

?PR?TOUCH_SCAN_3?UI                       -----    -----      C116H    0002H
  +--> ?PR?_SYS_READ_VP?SYS
  +--> ?PR?_SYS_WRITE_VP?SYS

?PR?COORDINATE_CONTROL?UI                 -----    -----      -----    -----
  +--> ?PR?_SYS_READ_VP?SYS
  +--> ?PR?_SEND_MODBUS_10?MYMODBUS
  +--> ?PR?_DELAY_MS?SYS
  +--> ?PR?_UART4_SENDBYTE?UART
  +--> ?PR?_PAGE_CHANGE?SYS

?PR?_SEND_MODBUS_10?MYMODBUS              -----    -----      C136H    0008H
  +--> ?PR?_CRC16?MYMODBUS
  +--> ?PR?_SENDSTRING?MYMODBUS

?PR?FILE_CONTROL?UI                       -----    -----      C116H    0001H
  +--> ?PR?_SEND_MODBUS?MYMODBUS
  +--> ?PR?_SYS_WRITE_VP?SYS
BL51 BANKED LINKER/LOCATER V6.22.2.0                                                  12/22/2022  15:38:00  PAGE 10



?PR?P4FUNC?UI                             -----    -----      -----    -----
  +--> ?PR?TOUCH_SCAN_4?UI

?PR?TOUCH_SCAN_4?UI                       -----    -----      C116H    0001H
  +--> ?PR?_SYS_READ_VP?SYS
  +--> ?PR?_PAGE_CHANGE?SYS
  +--> ?PR?_SYS_WRITE_VP?SYS
  +--> ?PR?_SEND_MODBUS?MYMODBUS

?PR?P5FUNC?UI                             -----    -----      -----    -----
  +--> ?PR?TOUCH_SCAN_5?UI
  +--> ?PR?TOUCH_SCAN_1_2?UI

?PR?TOUCH_SCAN_5?UI                       -----    -----      C116H    0001H
  +--> ?PR?_SYS_READ_VP?SYS
  +--> ?PR?_SEND_MODBUS?MYMODBUS
  +--> ?PR?_SYS_WRITE_VP?SYS

?PR?P6FUNC?UI                             -----    -----      -----    -----
  +--> ?PR?POLLING1_6?UI
  +--> ?PR?TOUCH_SCAN_6?UI

?PR?TOUCH_SCAN_6?UI                       -----    -----      C116H    0001H
  +--> ?PR?_SYS_READ_VP?SYS
  +--> ?PR?_SEND_MODBUS?MYMODBUS
  +--> ?PR?_SYS_WRITE_VP?SYS
  +--> ?PR?_PAGE_CHANGE?SYS
  +--> ?PR?_GETTIMEOUTFLAG?TIMER
  +--> ?PR?_DELAY_MS?SYS
  +--> ?PR?_STARTTIMER?TIMER
  +--> ?PR?_KILLTIMER?TIMER

?PR?P10_12FUNC?UI                         -----    -----      -----    -----
  +--> ?PR?POLLING10_12?UI
  +--> ?PR?TOUCH_SCAN_10_12?UI

?PR?POLLING10_12?UI                       -----    -----      -----    -----
  +--> ?PR?_SEND_MODBUS?MYMODBUS

?PR?TOUCH_SCAN_10_12?UI                   -----    -----      C116H    0001H
  +--> ?PR?_SYS_READ_VP?SYS
  +--> ?PR?_SEND_MODBUS_10?MYMODBUS
  +--> ?PR?_DELAY_MS?SYS
  +--> ?PR?_SEND_MODBUS?MYMODBUS
  +--> ?PR?_SYS_WRITE_VP?SYS

?PR?P13FUNC?UI                            -----    -----      -----    -----
  +--> ?PR?TOUCH_SCAN_13?UI

?PR?TOUCH_SCAN_13?UI                      -----    -----      C116H    0001H
  +--> ?PR?_SYS_READ_VP?SYS
  +--> ?PR?_SYS_WRITE_VP?SYS

?PR?P14FUNC?UI                            -----    -----      -----    -----
  +--> ?PR?TOUCH_SCAN_14?UI

BL51 BANKED LINKER/LOCATER V6.22.2.0                                                  12/22/2022  15:38:00  PAGE 11


?PR?TOUCH_SCAN_14?UI                      -----    -----      C116H    0001H
  +--> ?PR?_SYS_READ_VP?SYS
  +--> ?PR?SEND_MODBUS_IP?MYMODBUS
  +--> ?PR?_DELAY_MS?SYS
  +--> ?PR?_SYS_WRITE_VP?SYS

?PR?SEND_MODBUS_IP?MYMODBUS               -----    -----      -----    -----
  +--> ?PR?_SYS_READ_VP?SYS
  +--> ?PR?_CRC16?MYMODBUS
  +--> ?PR?_SENDSTRING?MYMODBUS

?PR?P15_17FUNC?UI                         -----    -----      -----    -----
  +--> ?PR?POLLING15_17?UI

?PR?POLLING15_17?UI                       -----    -----      -----    -----
  +--> ?PR?_SEND_MODBUS?MYMODBUS

?PR?P16FUNC?UI                            -----    -----      -----    -----
  +--> ?PR?TOUCH_SCAN_16?UI

?PR?TOUCH_SCAN_16?UI                      -----    -----      C116H    0001H
  +--> ?PR?_SYS_READ_VP?SYS
  +--> ?PR?_PAGE_CHANGE?SYS

?PR?PRO8283DEAL?DWIN8283                  -----    -----      -----    -----
  +--> ?PR?AUTOUPLOADVALUE?DWIN8283
  +--> ?PR?_UATR_SEND_DATA?UART
  +--> ?PR?_CANTX?CANBUS
  +--> ?PR?_PRO8283RXTREAT?DWIN8283

?PR?AUTOUPLOADVALUE?DWIN8283              -----    -----      -----    -----
  +--> ?PR?_READ_DGUS_VP?SYS
  +--> ?PR?_WRITE_DGUS_VP?SYS

?PR?_UATR_SEND_DATA?UART                  -----    -----      C114H    0008H

?PR?_CANTX?CANBUS                         -----    -----      C114H    0017H
  +--> ?PR?LOADONEFRAME?CANBUS

?PR?_PRO8283RXTREAT?DWIN8283              -----    -----      C114H    000FH
  +--> ?PR?_WRITE_DGUS_VP?SYS
  +--> ?PR?_READ_DGUS_VP?SYS

?PR?RECEIVE_MODBUS?RECEIVEDATA            -----    -----      C114H    0022H
  +--> ?PR?_DELAY_MS?SYS
  +--> ?PR?_CRC16?MYMODBUS
  +--> ?PR?_SEND_MODBUS_10?MYMODBUS
  +--> ?PR?_SYS_WRITE_VP?SYS
  +--> ?PR?_PAGE_CHANGE?SYS
  +--> ?PR?_ALM_INIT?RECEIVEDATA
  +--> ?PR?_UART4_SENDBYTE16?UART

?PR?_ALM_INIT?RECEIVEDATA                 -----    -----      -----    -----
  +--> ?PR?_SYS_WRITE_VP?SYS
  +--> ?PR?_PAGE_CHANGE?SYS
  +--> ?PR?_SEND_MODBUS?MYMODBUS

BL51 BANKED LINKER/LOCATER V6.22.2.0                                                  12/22/2022  15:38:00  PAGE 12


?PR?_UART4_SENDBYTE16?UART                -----    -----      -----    -----
  +--> ?PR?_UART4_SENDBYTE?UART



SYMBOL TABLE OF MODULE:  .\Objects\T5L51 (STARTUP_M5)

  VALUE           TYPE          NAME
  ----------------------------------

  -------         MODULE        STARTUP_M5
  C:0100H         LINE#         30
  -------         ENDMOD        STARTUP_M5

  -------         MODULE        SYS
  C:0000H         SYMBOL        _ICE_DUMMY_
  C:B1A1H         PUBLIC        INIT_CPU
  X:C07BH         PUBLIC        Spi_Flash
  D:00F1H         PUBLIC        ADR_H
  D:0080H         PUBLIC        P0
  D:0090H         PUBLIC        P1
  X:C08BH         PUBLIC        Nor_Flash
  D:00A0H         PUBLIC        P2
  C:AD4DH         PUBLIC        _GetPinIn
  D:00B0H         PUBLIC        P3
  D:00F3H         PUBLIC        ADR_L
  D:0094H         PUBLIC        PAGESEL
  D:00F2H         PUBLIC        ADR_M
  B:00A8H.7       PUBLIC        EA
  D:00F8H         PUBLIC        RAMMODE
  C:8718H         PUBLIC        _write_dgus_vp
  D:00B7H         PUBLIC        P0MDOUT
  D:00BCH         PUBLIC        P1MDOUT
  D:00A8H         PUBLIC        IEN0
  D:00BDH         PUBLIC        P2MDOUT
  D:00B8H         PUBLIC        IEN1
  C:AEE0H         PUBLIC        _SetPinIn
  X:C097H         PUBLIC        PressPosChange
  D:00BEH         PUBLIC        P3MDOUT
  D:009AH         PUBLIC        IEN2
  C:AFBDH         PUBLIC        _SetPinOut
  B:00F8H.4       PUBLIC        APP_ACK
  X:C098H         PUBLIC        RealPosX
  D:00F4H         PUBLIC        ADR_INC
  X:C09AH         PUBLIC        RealPosY
  D:001EH         PUBLIC        SysTick_RTC
  C:B090H         PUBLIC        _MusicPlay
  X:C09CH         PUBLIC        PressPosX
  X:C09EH         PUBLIC        PressPageID
  X:C0A0H         PUBLIC        PressPosY
  C:8F83H         PUBLIC        SPIFlash_Action
  X:C0A2H         PUBLIC        LastPosX
  X:C0A4H         PUBLIC        MusicBuf
  X:C0C7H         PUBLIC        LastPosY
  C:979FH         PUBLIC        _sys_read_vp
  D:0095H         PUBLIC        D_PAGESEL
  C:A606H         PUBLIC        _Page_Change
BL51 BANKED LINKER/LOCATER V6.22.2.0                                                  12/22/2022  15:38:00  PAGE 13


  X:C0C9H         PUBLIC        Touchstate
  C:B2F2H         PUBLIC        GetPageID
  C:9969H         PUBLIC        GetTouchStatus
  D:00F9H         PUBLIC        PORTDRV
  C:8E57H         PUBLIC        _sys_write_vp
  C:A23AH         PUBLIC        _PinOutput
  D:00C9H         PUBLIC        MUX_SEL
  X:C0CAH         PUBLIC        xdistance
  D:00A9H         PUBLIC        IP0
  X:C0CCH         PUBLIC        ydistance
  D:00B9H         PUBLIC        IP1
  C:B1CAH         PUBLIC        ClearRAM
  X:C0CEH         PUBLIC        PosXChangeSpeed
  D:00FDH         PUBLIC        DATA0
  X:C0D0H         PUBLIC        PosYChangeSpeed
  D:00FCH         PUBLIC        DATA1
  D:00FBH         PUBLIC        DATA2
  D:00FAH         PUBLIC        DATA3
  C:AF75H         PUBLIC        _delay_ms
  B:00F8H.6       PUBLIC        APP_EN
  B:00D0H.3       PUBLIC        RS0
  B:00D0H.4       PUBLIC        RS1
  D:0093H         PUBLIC        DPC
  C:B2D7H         PUBLIC        _delay_us
  C:B2B3H         PUBLIC        ResetT5L
  C:93DEH         PUBLIC        NorFlash_Action
  D:00C8H         PUBLIC        T2CON
  D:008EH         PUBLIC        CKCON
  C:7E26H         PUBLIC        _GetTouchAnction
  C:8207H         PUBLIC        _read_dgus_vp
  C:AB17H         PUBLIC        _TouchSwitch
  -------         PROC          L?0219
  -------         ENDPROC       L?0219
  -------         PROC          _READ_DGUS_VP
  X:C13CH         SYMBOL        addr
  X:C13EH         SYMBOL        buf
  X:C141H         SYMBOL        len
  -------         DO            
  X:C143H         SYMBOL        OS_addr
  X:C145H         SYMBOL        OS_addr_offset
  X:C147H         SYMBOL        OS_len
  X:C149H         SYMBOL        OS_len_offset
  X:C14BH         SYMBOL        LenLimit
  -------         ENDDO         
  C:8207H         LINE#         39
  C:8218H         LINE#         40
  C:8218H         LINE#         41
  C:821FH         LINE#         42
  C:8223H         LINE#         43
  C:822BH         LINE#         46
  C:8239H         LINE#         48
  C:8251H         LINE#         49
  C:826CH         LINE#         50
  C:826CH         LINE#         51
  C:827DH         LINE#         52
  C:827DH         LINE#         53
  C:8293H         LINE#         54
BL51 BANKED LINKER/LOCATER V6.22.2.0                                                  12/22/2022  15:38:00  PAGE 14


  C:829DH         LINE#         56
  C:829FH         LINE#         58
  C:82A2H         LINE#         59
  C:82ADH         LINE#         60
  C:82AFH         LINE#         61
  C:82B2H         LINE#         62
  C:82B5H         LINE#         63
  C:82B8H         LINE#         65
  C:82C2H         LINE#         66
  C:82C2H         LINE#         67
  C:82C4H         LINE#         68
  C:82C7H         LINE#         70
  C:82DCH         LINE#         71
  C:82F1H         LINE#         72
  C:82FFH         LINE#         73
  C:82FFH         LINE#         74
  C:8315H         LINE#         75
  C:831FH         LINE#         76
  C:832DH         LINE#         77
  C:832DH         LINE#         78
  C:832FH         LINE#         79
  C:8332H         LINE#         81
  C:8347H         LINE#         82
  C:835CH         LINE#         83
  C:8371H         LINE#         84
  C:8386H         LINE#         85
  C:8388H         LINE#         86
  C:8392H         LINE#         87
  C:8392H         LINE#         88
  C:8394H         LINE#         89
  C:8397H         LINE#         91
  C:83ACH         LINE#         92
  C:83C1H         LINE#         93
  C:83C1H         LINE#         94
  C:83C4H         LINE#         96
  C:83C6H         LINE#         98
  -------         ENDPROC       _READ_DGUS_VP
  -------         PROC          _WRITE_DGUS_VP
  X:C13CH         SYMBOL        addr
  X:C13EH         SYMBOL        buf
  X:C141H         SYMBOL        len
  -------         DO            
  D:0004H         SYMBOL        OS_addr
  X:C143H         SYMBOL        OS_addr_offset
  X:C145H         SYMBOL        OS_len
  X:C147H         SYMBOL        OS_len_offset
  D:0006H         SYMBOL        LenLimit
  -------         ENDDO         
  C:8718H         LINE#         167
  C:8729H         LINE#         168
  C:8729H         LINE#         169
  C:872AH         LINE#         170
  C:8730H         LINE#         171
  C:8738H         LINE#         174
  C:8745H         LINE#         176
  C:8754H         LINE#         177
  C:8761H         LINE#         178
BL51 BANKED LINKER/LOCATER V6.22.2.0                                                  12/22/2022  15:38:00  PAGE 15


  C:8761H         LINE#         179
  C:8766H         LINE#         180
  C:8766H         LINE#         181
  C:8775H         LINE#         182
  C:8781H         LINE#         184
  C:8783H         LINE#         186
  C:8786H         LINE#         187
  C:8789H         LINE#         188
  C:878DH         LINE#         189
  C:8790H         LINE#         190
  C:8793H         LINE#         191
  C:8796H         LINE#         193
  C:87A0H         LINE#         194
  C:87A0H         LINE#         195
  C:87B5H         LINE#         196
  C:87CAH         LINE#         197
  C:87CCH         LINE#         198
  C:87CFH         LINE#         200
  C:87DDH         LINE#         201
  C:87DDH         LINE#         202
  C:87F3H         LINE#         203
  C:87FDH         LINE#         204
  C:8800H         LINE#         205
  C:880EH         LINE#         206
  C:880EH         LINE#         207
  C:8823H         LINE#         208
  C:8838H         LINE#         209
  C:884DH         LINE#         210
  C:8862H         LINE#         211
  C:8864H         LINE#         212
  C:8869H         LINE#         214
  C:8869H         LINE#         215
  C:8873H         LINE#         216
  C:8873H         LINE#         217
  C:8876H         LINE#         218
  C:888BH         LINE#         219
  C:88A0H         LINE#         220
  C:88A2H         LINE#         221
  C:88A5H         LINE#         223
  C:88A5H         LINE#         224
  C:88A8H         LINE#         226
  C:88AAH         LINE#         228
  -------         ENDPROC       _WRITE_DGUS_VP
  -------         PROC          INIT_CPU
  C:B1A1H         LINE#         312
  C:B1A1H         LINE#         313
  C:B1A1H         LINE#         314
  C:B1A3H         LINE#         315
  C:B1A5H         LINE#         316
  C:B1A7H         LINE#         318
  C:B1AAH         LINE#         319
  C:B1ADH         LINE#         320
  C:B1AFH         LINE#         321
  C:B1B2H         LINE#         322
  C:B1B5H         LINE#         323
  C:B1B8H         LINE#         324
  C:B1BAH         LINE#         325
BL51 BANKED LINKER/LOCATER V6.22.2.0                                                  12/22/2022  15:38:00  PAGE 16


  C:B1BDH         LINE#         326
  C:B1BFH         LINE#         327
  C:B1C1H         LINE#         328
  C:B1C3H         LINE#         329
  C:B1C5H         LINE#         330
  C:B1C7H         LINE#         334
  -------         ENDPROC       INIT_CPU
  -------         PROC          CLEARRAM
  -------         DO            
  D:0006H         SYMBOL        ptr
  D:001CH         SYMBOL        i
  -------         ENDDO         
  C:B1CAH         LINE#         337
  C:B1CAH         LINE#         338
  C:B1CAH         LINE#         342
  C:B1CEH         LINE#         344
  C:B1D3H         LINE#         345
  C:B1F1H         LINE#         346
  -------         ENDPROC       CLEARRAM
  -------         PROC          RESETT5L
  -------         DO            
  X:C1EFH         SYMBOL        tmp
  -------         ENDDO         
  C:B2B3H         LINE#         348
  C:B2B3H         LINE#         349
  C:B2B3H         LINE#         352
  C:B2BDH         LINE#         353
  -------         ENDPROC       RESETT5L
  C:B2D3H         SYMBOL        L?0221
  -------         PROC          L?0220
  -------         ENDPROC       L?0220
  C:B2D3H         SYMBOL        L?0221
  -------         PROC          _DELAY_US
  D:0006H         SYMBOL        t
  -------         DO            
  D:0005H         SYMBOL        i
  -------         ENDDO         
  C:B2D7H         LINE#         356
  C:B2D7H         LINE#         357
  C:B2D7H         LINE#         360
  C:B2DBH         LINE#         361
  C:B2DBH         LINE#         362
  C:B2E7H         LINE#         363
  C:B2E7H         LINE#         364
  C:B2E7H         LINE#         365
  C:B2EAH         LINE#         366
  C:B2EFH         LINE#         367
  C:B2F1H         LINE#         368
  -------         ENDPROC       _DELAY_US
  -------         PROC          _TOUCHSWITCH
  D:0006H         SYMBOL        PageID
  D:0005H         SYMBOL        TouchType
  D:0003H         SYMBOL        TouchID
  X:C199H         SYMBOL        Status
  -------         DO            
  X:C19AH         SYMBOL        k_data
  -------         ENDDO         
BL51 BANKED LINKER/LOCATER V6.22.2.0                                                  12/22/2022  15:38:00  PAGE 17


  C:AB17H         LINE#         370
  C:AB17H         LINE#         371
  C:AB17H         LINE#         374
  C:AB21H         LINE#         375
  C:AB27H         LINE#         376
  C:AB2AH         LINE#         377
  C:AB2DH         LINE#         378
  C:AB33H         LINE#         379
  C:AB3DH         LINE#         381
  C:AB44H         LINE#         382
  C:AB5AH         LINE#         384
  C:AB5AH         LINE#         385
  C:AB5DH         LINE#         386
  C:AB72H         LINE#         387
  C:AB78H         LINE#         388
  -------         ENDPROC       _TOUCHSWITCH
  -------         PROC          _MUSICPLAY
  X:C1DBH         SYMBOL        MusicId
  -------         DO            
  X:C1DCH         SYMBOL        k_data
  -------         ENDDO         
  C:B090H         LINE#         390
  C:B095H         LINE#         391
  C:B095H         LINE#         394
  C:B0ABH         LINE#         395
  C:B0B1H         LINE#         396
  C:B0B5H         LINE#         397
  C:B0BAH         LINE#         398
  -------         ENDPROC       _MUSICPLAY
  -------         PROC          NORFLASH_ACTION
  -------         DO            
  X:C1C3H         SYMBOL        buf
  -------         ENDDO         
  C:93DEH         LINE#         439
  C:93DEH         LINE#         440
  C:93DEH         LINE#         443
  C:93E7H         LINE#         444
  C:93FFH         LINE#         445
  C:9417H         LINE#         446
  C:9422H         LINE#         447
  C:942FH         LINE#         448
  C:9432H         LINE#         449
  C:943FH         LINE#         450
  C:9442H         LINE#         451
  C:9447H         LINE#         452
  C:9447H         LINE#         453
  C:9455H         LINE#         454
  C:946FH         LINE#         455
  C:946FH         LINE#         456
  C:9485H         LINE#         458
  C:9485H         LINE#         459
  C:9488H         LINE#         460
  C:949DH         LINE#         461
  C:94A3H         LINE#         462
  C:94ABH         LINE#         463
  C:94ABH         LINE#         464
  C:94B9H         LINE#         465
BL51 BANKED LINKER/LOCATER V6.22.2.0                                                  12/22/2022  15:38:00  PAGE 18


  C:94CDH         LINE#         466
  C:94CDH         LINE#         467
  -------         ENDPROC       NORFLASH_ACTION
  -------         PROC          SPIFLASH_ACTION
  -------         DO            
  X:C1A2H         SYMBOL        buf
  -------         ENDDO         
  C:8F83H         LINE#         470
  C:8F83H         LINE#         471
  C:8F83H         LINE#         474
  C:8F89H         LINE#         475
  C:8F91H         LINE#         476
  C:8F98H         LINE#         477
  C:8F98H         LINE#         478
  C:8FA1H         LINE#         479
  C:8FB9H         LINE#         480
  C:8FD1H         LINE#         481
  C:8FDCH         LINE#         482
  C:8FE9H         LINE#         483
  C:8FECH         LINE#         484
  C:8FF9H         LINE#         485
  C:8FFCH         LINE#         486
  C:8FFDH         LINE#         487
  C:8FFDH         LINE#         488
  C:8FFFH         LINE#         489
  C:9005H         LINE#         490
  C:9005H         LINE#         491
  C:9012H         LINE#         492
  C:9015H         LINE#         493
  C:9022H         LINE#         494
  C:9025H         LINE#         495
  C:9032H         LINE#         496
  C:9035H         LINE#         497
  C:9038H         LINE#         498
  C:903AH         LINE#         499
  C:903CH         LINE#         500
  C:903EH         LINE#         501
  C:903EH         LINE#         502
  C:9054H         LINE#         504
  C:9054H         LINE#         505
  C:9057H         LINE#         506
  C:906CH         LINE#         507
  C:9072H         LINE#         508
  C:907AH         LINE#         509
  C:907AH         LINE#         510
  C:9088H         LINE#         511
  C:909CH         LINE#         512
  C:909CH         LINE#         513
  -------         ENDPROC       SPIFLASH_ACTION
  -------         PROC          GETPAGEID
  -------         DO            
  X:C1FAH         SYMBOL        nPage
  -------         ENDDO         
  C:B2F2H         LINE#         517
  C:B2F2H         LINE#         518
  C:B2F2H         LINE#         521
  C:B307H         LINE#         522
BL51 BANKED LINKER/LOCATER V6.22.2.0                                                  12/22/2022  15:38:00  PAGE 19


  C:B30FH         LINE#         523
  -------         ENDPROC       GETPAGEID
  -------         PROC          _PAGE_CHANGE
  X:C136H         SYMBOL        PageID
  -------         DO            
  X:C138H         SYMBOL        buf
  -------         ENDDO         
  C:A606H         LINE#         525
  C:A60EH         LINE#         526
  C:A60EH         LINE#         529
  C:A612H         LINE#         530
  C:A616H         LINE#         531
  C:A623H         LINE#         532
  C:A626H         LINE#         533
  C:A63CH         LINE#         535
  C:A63CH         LINE#         536
  C:A63FH         LINE#         537
  C:A655H         LINE#         538
  C:A667H         LINE#         539
  C:A66CH         LINE#         540
  C:A66EH         LINE#         541
  C:A670H         LINE#         542
  C:A672H         LINE#         543
  -------         ENDPROC       _PAGE_CHANGE
  -------         PROC          _DELAY_MS
  X:C144H         SYMBOL        t
  -------         DO            
  X:C146H         SYMBOL        i
  D:0002H         SYMBOL        j
  -------         ENDDO         
  C:AF75H         LINE#         546
  C:AF7DH         LINE#         547
  C:AF7DH         LINE#         549
  C:AF97H         LINE#         550
  C:AF97H         LINE#         551
  C:AF9AH         LINE#         552
  C:AFACH         LINE#         553
  C:AFBCH         LINE#         554
  -------         ENDPROC       _DELAY_MS
  -------         PROC          _SETPINOUT
  D:0007H         SYMBOL        Port
  D:0005H         SYMBOL        Pin
  C:AFBDH         LINE#         556
  C:AFBDH         LINE#         557
  C:AFBDH         LINE#         558
  C:AFCBH         LINE#         559
  C:AFCBH         LINE#         560
  C:AFCBH         LINE#         561
  C:AFD8H         LINE#         562
  C:AFD9H         LINE#         563
  C:AFD9H         LINE#         564
  C:AFE6H         LINE#         565
  C:AFE7H         LINE#         566
  C:AFE7H         LINE#         567
  C:AFF4H         LINE#         568
  C:AFF5H         LINE#         569
  C:AFF5H         LINE#         570
BL51 BANKED LINKER/LOCATER V6.22.2.0                                                  12/22/2022  15:38:00  PAGE 20


  C:B004H         LINE#         571
  C:B004H         LINE#         572
  C:B004H         LINE#         573
  C:B004H         LINE#         574
  C:B004H         LINE#         575
  -------         ENDPROC       _SETPINOUT
  -------         PROC          _SETPININ
  D:0007H         SYMBOL        Port
  D:0005H         SYMBOL        Pin
  C:AEE0H         LINE#         577
  C:AEE0H         LINE#         578
  C:AEE0H         LINE#         579
  C:AEEEH         LINE#         580
  C:AEEEH         LINE#         581
  C:AEEEH         LINE#         582
  C:AEFCH         LINE#         583
  C:AEFDH         LINE#         584
  C:AEFDH         LINE#         585
  C:AF0BH         LINE#         586
  C:AF0CH         LINE#         587
  C:AF0CH         LINE#         588
  C:AF1AH         LINE#         589
  C:AF1BH         LINE#         590
  C:AF1BH         LINE#         591
  C:AF2BH         LINE#         592
  C:AF2BH         LINE#         593
  C:AF2BH         LINE#         594
  C:AF2BH         LINE#         595
  C:AF2BH         LINE#         596
  -------         ENDPROC       _SETPININ
  -------         PROC          _PINOUTPUT
  D:0007H         SYMBOL        Port
  D:0005H         SYMBOL        Pin
  D:0003H         SYMBOL        value
  C:A23AH         LINE#         598
  C:A23AH         LINE#         599
  C:A23AH         LINE#         600
  C:A24BH         LINE#         601
  C:A24BH         LINE#         602
  C:A24BH         LINE#         603
  C:A24EH         LINE#         604
  C:A25CH         LINE#         606
  C:A26AH         LINE#         607
  C:A26BH         LINE#         608
  C:A26BH         LINE#         609
  C:A26EH         LINE#         610
  C:A27CH         LINE#         612
  C:A28AH         LINE#         613
  C:A28BH         LINE#         614
  C:A28BH         LINE#         615
  C:A28EH         LINE#         616
  C:A29CH         LINE#         618
  C:A2AAH         LINE#         619
  C:A2ABH         LINE#         620
  C:A2ABH         LINE#         621
  C:A2AEH         LINE#         622
  C:A2BCH         LINE#         624
BL51 BANKED LINKER/LOCATER V6.22.2.0                                                  12/22/2022  15:38:00  PAGE 21


  C:A2CCH         LINE#         625
  C:A2CCH         LINE#         626
  C:A2CCH         LINE#         627
  C:A2CCH         LINE#         628
  C:A2CCH         LINE#         629
  -------         ENDPROC       _PINOUTPUT
  -------         PROC          _GETPININ
  D:0007H         SYMBOL        Port
  D:0005H         SYMBOL        Pin
  -------         DO            
  D:0006H         SYMBOL        value
  -------         ENDDO         
  C:AD4DH         LINE#         631
  C:AD4DH         LINE#         632
  C:AD4DH         LINE#         634
  C:AD5BH         LINE#         635
  C:AD5BH         LINE#         636
  C:AD5BH         LINE#         637
  C:AD69H         LINE#         638
  C:AD6BH         LINE#         639
  C:AD6BH         LINE#         640
  C:AD79H         LINE#         641
  C:AD7BH         LINE#         642
  C:AD7BH         LINE#         643
  C:AD89H         LINE#         644
  C:AD8BH         LINE#         645
  C:AD8BH         LINE#         646
  C:AD9BH         LINE#         647
  C:AD9DH         LINE#         648
  C:AD9DH         LINE#         649
  C:AD9FH         LINE#         650
  C:AD9FH         LINE#         651
  C:AD9FH         LINE#         652
  C:ADA1H         LINE#         653
  -------         ENDPROC       _GETPININ
  -------         PROC          GETTOUCHSTATUS
  -------         DO            
  X:C1CBH         SYMBOL        k_data
  -------         ENDDO         
  C:9969H         LINE#         655
  C:9969H         LINE#         656
  C:9969H         LINE#         659
  C:997FH         LINE#         660
  C:998AH         LINE#         661
  C:998AH         LINE#         662
  C:9993H         LINE#         663
  C:9993H         LINE#         664
  C:99A9H         LINE#         665
  C:99C1H         LINE#         666
  C:99C5H         LINE#         667
  C:99C7H         LINE#         668
  C:99CDH         LINE#         669
  C:99CDH         LINE#         670
  C:99DCH         LINE#         671
  C:99EBH         LINE#         672
  C:99F1H         LINE#         673
  C:99F3H         LINE#         675
BL51 BANKED LINKER/LOCATER V6.22.2.0                                                  12/22/2022  15:38:00  PAGE 22


  C:99F3H         LINE#         676
  C:99F9H         LINE#         677
  C:99F9H         LINE#         678
  C:9A08H         LINE#         679
  C:9A17H         LINE#         680
  C:9A1CH         LINE#         681
  C:9A31H         LINE#         682
  C:9A33H         LINE#         683
  C:9A33H         LINE#         685
  C:9A33H         LINE#         686
  C:9A3FH         LINE#         687
  C:9A3FH         LINE#         688
  C:9A44H         LINE#         689
  C:9A44H         LINE#         690
  C:9A49H         LINE#         691
  C:9A49H         LINE#         692
  -------         ENDPROC       GETTOUCHSTATUS
  -------         PROC          _GETTOUCHANCTION
  X:C1AEH         SYMBOL        PageID
  -------         DO            
  X:C1B0H         SYMBOL        status
  X:C1B1H         SYMBOL        x2distance
  X:C1B5H         SYMBOL        y2distance
  -------         ENDDO         
  C:7E26H         LINE#         694
  C:7E2EH         LINE#         695
  C:7E2EH         LINE#         699
  C:7E36H         LINE#         700
  C:7E3AH         LINE#         701
  C:7E3AH         LINE#         702
  C:7E3EH         LINE#         703
  C:7E40H         LINE#         704
  C:7E40H         LINE#         705
  C:7E46H         LINE#         706
  C:7E46H         LINE#         707
  C:7E5AH         LINE#         708
  C:7E60H         LINE#         709
  C:7E62H         LINE#         710
  C:7E62H         LINE#         712
  C:7E62H         LINE#         713
  C:7E76H         LINE#         714
  C:7E76H         LINE#         715
  C:7E79H         LINE#         716
  C:7E79H         LINE#         717
  C:7E94H         LINE#         718
  C:7EAEH         LINE#         719
  C:7EC9H         LINE#         720
  C:7EE3H         LINE#         721
  C:7EEBH         LINE#         722
  C:7EEBH         LINE#         723
  C:7EF3H         LINE#         724
  C:7EF3H         LINE#         725
  C:7F26H         LINE#         726
  C:7F26H         LINE#         727
  C:7F54H         LINE#         728
  C:7F54H         LINE#         729
  C:7F57H         LINE#         730
BL51 BANKED LINKER/LOCATER V6.22.2.0                                                  12/22/2022  15:38:00  PAGE 23


  C:7F59H         LINE#         731
  C:7F59H         LINE#         733
  C:7F59H         LINE#         734
  C:7F5CH         LINE#         735
  C:7F5EH         LINE#         736
  C:7F5EH         LINE#         737
  C:7F5EH         LINE#         738
  C:7F5EH         LINE#         739
  C:7F64H         LINE#         740
  C:7F64H         LINE#         742
  C:7F64H         LINE#         743
  C:7F6CH         LINE#         744
  C:7F6CH         LINE#         745
  C:7F9FH         LINE#         746
  C:7F9FH         LINE#         747
  C:7FCDH         LINE#         748
  C:7FCDH         LINE#         749
  C:7FD0H         LINE#         750
  C:7FD2H         LINE#         752
  C:7FD2H         LINE#         753
  C:7FD5H         LINE#         754
  C:7FD5H         LINE#         755
  C:7FD7H         LINE#         757
  C:7FD7H         LINE#         758
  C:7FDAH         LINE#         759
  C:7FDAH         LINE#         760
  C:7FDAH         LINE#         761
  C:7FE2H         LINE#         762
  C:7FE2H         LINE#         763
  C:7FFDH         LINE#         764
  C:8000H         LINE#         765
  C:8000H         LINE#         767
  C:8000H         LINE#         768
  C:801BH         LINE#         769
  C:801DH         LINE#         770
  C:801DH         LINE#         771
  C:801DH         LINE#         772
  C:801DH         LINE#         773
  -------         ENDPROC       _GETTOUCHANCTION
  -------         PROC          _SYS_READ_VP
  D:0004H         SYMBOL        addr
  X:C11AH         SYMBOL        buf
  X:C11DH         SYMBOL        len
  -------         DO            
  D:0003H         SYMBOL        i
  -------         ENDDO         
  C:979FH         LINE#         779
  C:97AEH         LINE#         780
  C:97AEH         LINE#         783
  C:97B2H         LINE#         784
  C:97B9H         LINE#         785
  C:97BCH         LINE#         786
  C:97BFH         LINE#         787
  C:97C3H         LINE#         788
  C:97C6H         LINE#         789
  C:97C9H         LINE#         790
  C:97CCH         LINE#         792
BL51 BANKED LINKER/LOCATER V6.22.2.0                                                  12/22/2022  15:38:00  PAGE 24


  C:97DEH         LINE#         793
  C:97DEH         LINE#         794
  C:97E0H         LINE#         795
  C:97E3H         LINE#         797
  C:97F5H         LINE#         798
  C:97F5H         LINE#         799
  C:980AH         LINE#         800
  C:981FH         LINE#         801
  C:9821H         LINE#         802
  C:982FH         LINE#         803
  C:982FH         LINE#         804
  C:9843H         LINE#         805
  C:9843H         LINE#         806
  C:9858H         LINE#         807
  C:986DH         LINE#         808
  C:986FH         LINE#         809
  C:987DH         LINE#         810
  C:987DH         LINE#         811
  C:9880H         LINE#         812
  C:9883H         LINE#         813
  -------         ENDPROC       _SYS_READ_VP
  -------         PROC          _SYS_WRITE_VP
  D:0004H         SYMBOL        addr
  X:C138H         SYMBOL        buf
  X:C13BH         SYMBOL        len
  -------         DO            
  D:0003H         SYMBOL        i
  -------         ENDDO         
  C:8E57H         LINE#         819
  C:8E66H         LINE#         820
  C:8E66H         LINE#         823
  C:8E6AH         LINE#         824
  C:8E71H         LINE#         825
  C:8E74H         LINE#         826
  C:8E77H         LINE#         827
  C:8E7BH         LINE#         828
  C:8E7EH         LINE#         829
  C:8E81H         LINE#         830
  C:8E84H         LINE#         832
  C:8E96H         LINE#         833
  C:8E96H         LINE#         834
  C:8E99H         LINE#         835
  C:8EAEH         LINE#         836
  C:8EC3H         LINE#         837
  C:8EC5H         LINE#         838
  C:8ED3H         LINE#         839
  C:8ED3H         LINE#         840
  C:8ED6H         LINE#         841
  C:8EE6H         LINE#         842
  C:8EE6H         LINE#         843
  C:8EFBH         LINE#         844
  C:8F10H         LINE#         845
  C:8F25H         LINE#         846
  C:8F3AH         LINE#         847
  C:8F3CH         LINE#         848
  C:8F4AH         LINE#         849
  C:8F4CH         LINE#         850
BL51 BANKED LINKER/LOCATER V6.22.2.0                                                  12/22/2022  15:38:00  PAGE 25


  C:8F50H         LINE#         851
  C:8F50H         LINE#         852
  C:8F53H         LINE#         853
  C:8F68H         LINE#         854
  C:8F7DH         LINE#         855
  C:8F7FH         LINE#         856
  C:8F7FH         LINE#         857
  C:8F82H         LINE#         858
  -------         ENDPROC       _SYS_WRITE_VP
  -------         ENDMOD        SYS

  -------         MODULE        TIMER
  C:0000H         SYMBOL        _ICE_DUMMY_
  B:00A8H.7       PUBLIC        EA
  C:B37CH         PUBLIC        _KillTimer
  D:0008H         PUBLIC        TimerTime
  C:B291H         PUBLIC        _StartTimer
  X:C0D2H         PUBLIC        PWMPort
  X:C0DAH         PUBLIC        PWMPin
  X:C0E2H         PUBLIC        PWMLow
  D:0089H         PUBLIC        TMOD
  X:C0F2H         PUBLIC        EnablePWM
  C:A687H         PUBLIC        T0_ISR_PC
  D:0018H         PUBLIC        OutTimeFlag
  B:00A8H.1       PUBLIC        ET0
  B:00C0H.6       PUBLIC        TF2
  D:008CH         PUBLIC        TH0
  D:0019H         PUBLIC        SysTick
  D:001AH         PUBLIC        EnableTimer
  D:008AH         PUBLIC        TL0
  B:0088H.4       PUBLIC        TR0
  C:B3FFH         PUBLIC        timer2_Isr
  C:B3A6H         PUBLIC        _GetTimeOutFlag
  X:C0F3H         PUBLIC        PWMTicks
  C:B310H         PUBLIC        T0_Init
  X:C103H         PUBLIC        PWMTotal
  -------         PROC          T0_INIT
  C:B310H         LINE#         46
  C:B310H         LINE#         47
  C:B310H         LINE#         48
  C:B313H         LINE#         50
  C:B316H         LINE#         51
  C:B318H         LINE#         52
  C:B31AH         LINE#         54
  C:B31CH         LINE#         55
  C:B31EH         LINE#         57
  C:B321H         LINE#         58
  C:B324H         LINE#         59
  C:B327H         LINE#         60
  C:B329H         LINE#         62
  C:B32BH         LINE#         63
  -------         ENDPROC       T0_INIT
  -------         PROC          T0_ISR_PC
  -------         DO            
  D:001BH         SYMBOL        i
  -------         ENDDO         
  C:A687H         LINE#         74
BL51 BANKED LINKER/LOCATER V6.22.2.0                                                  12/22/2022  15:38:00  PAGE 26


  C:A694H         LINE#         78
  C:A696H         LINE#         79
  C:A699H         LINE#         80
  C:A69CH         LINE#         81
  C:A69EH         LINE#         82
  C:A6A6H         LINE#         83
  C:A6B4H         LINE#         84
  C:A6B4H         LINE#         85
  C:A6CAH         LINE#         86
  C:A6CAH         LINE#         87
  C:A6D8H         LINE#         88
  C:A6E6H         LINE#         89
  C:A6E6H         LINE#         90
  C:A6F4H         LINE#         91
  C:A6F7H         LINE#         92
  C:A6F7H         LINE#         93
  C:A6F7H         LINE#         94
  C:A6FBH         LINE#         95
  C:A6FDH         LINE#         96
  -------         ENDPROC       T0_ISR_PC
  -------         PROC          TIMER2_ISR
  C:B3FFH         LINE#         98
  C:B3FFH         LINE#         100
  C:B401H         LINE#         101
  C:B403H         LINE#         102
  C:B405H         LINE#         103
  -------         ENDPROC       TIMER2_ISR
  -------         PROC          _STARTTIMER
  D:0007H         SYMBOL        ID
  D:0004H         SYMBOL        nTime
  C:B291H         LINE#         117
  C:B291H         LINE#         118
  C:B291H         LINE#         119
  C:B293H         LINE#         120
  C:B2A1H         LINE#         121
  C:B2ACH         LINE#         122
  C:B2B0H         LINE#         123
  C:B2B2H         LINE#         124
  -------         ENDPROC       _STARTTIMER
  -------         PROC          _KILLTIMER
  D:0007H         SYMBOL        ID
  C:B37CH         LINE#         136
  C:B37CH         LINE#         137
  C:B37CH         LINE#         138
  C:B37EH         LINE#         139
  C:B38CH         LINE#         140
  C:B38EH         LINE#         141
  C:B390H         LINE#         142
  -------         ENDPROC       _KILLTIMER
  -------         PROC          _GETTIMEOUTFLAG
  D:0007H         SYMBOL        ID
  -------         DO            
  D:0007H         SYMBOL        flag
  -------         ENDDO         
  C:B3A6H         LINE#         154
  C:B3A6H         LINE#         155
  C:B3A6H         LINE#         157
BL51 BANKED LINKER/LOCATER V6.22.2.0                                                  12/22/2022  15:38:00  PAGE 27


  C:B3A8H         LINE#         158
  C:B3B6H         LINE#         159
  C:B3B8H         LINE#         160
  C:B3B8H         LINE#         161
  -------         ENDPROC       _GETTIMEOUTFLAG
  -------         ENDMOD        TIMER

  -------         MODULE        UART
  C:0000H         SYMBOL        _ICE_DUMMY_
  D:0080H         PUBLIC        P0
  C:A35EH         PUBLIC        uart2_Isr
  C:A10BH         PUBLIC        uart3_Isr
  B:00A8H.7       PUBLIC        EA
  X:8000H         PUBLIC        Uart_Struct
  D:00A8H         PUBLIC        IEN0
  D:00B8H         PUBLIC        IEN1
  X:A024H         PUBLIC        RxReadPt
  D:009AH         PUBLIC        IEN2
  C:B3D5H         PUBLIC        _UART4_Sendbyte
  X:A026H         PUBLIC        RxWritePt
  D:00BAH         PUBLIC        SREL0H
  D:00BBH         PUBLIC        SREL1H
  D:00AAH         PUBLIC        SREL0L
  C:ADA2H         PUBLIC        _UartInit
  D:009DH         PUBLIC        SREL1L
  D:0097H         PUBLIC        SCON2R
  D:00D9H         PUBLIC        BODE2_DIV_H
  D:00ABH         PUBLIC        SCON3R
  D:00AEH         PUBLIC        BODE3_DIV_H
  D:0096H         PUBLIC        SCON2T
  D:00A7H         PUBLIC        SCON3T
  D:00E7H         PUBLIC        BODE2_DIV_L
  D:00AFH         PUBLIC        BODE3_DIV_L
  D:00C9H         PUBLIC        MUX_SEL
  B:00A8H.4       PUBLIC        ES0
  B:0098H.0       PUBLIC        RI0
  B:0098H.1       PUBLIC        TI0
  D:0099H         PUBLIC        SBUF0
  D:009CH         PUBLIC        SBUF1
  D:0098H         PUBLIC        SCON0
  D:009BH         PUBLIC        SCON1
  C:AE44H         PUBLIC        _UART2_Init
  D:00D8H         PUBLIC        ADCON
  C:AF2CH         PUBLIC        _UART3_Init
  C:83C7H         PUBLIC        _Uatr_Send_Data
  C:B1F2H         PUBLIC        _UART4_Init
  C:B21AH         PUBLIC        _UART5_Init
  X:A028H         PUBLIC        RxBuf
  D:009FH         PUBLIC        SBUF2_RX
  D:00ADH         PUBLIC        SBUF3_RX
  D:009EH         PUBLIC        SBUF2_TX
  D:00ACH         PUBLIC        SBUF3_TX
  C:ADF5H         PUBLIC        uart4r_Isr
  C:B005H         PUBLIC        uart5r_Isr
  C:AB79H         PUBLIC        uart4t_Isr
  C:ABD9H         PUBLIC        uart5t_Isr
  C:AC98H         PUBLIC        _UART4_Sendbyte32
BL51 BANKED LINKER/LOCATER V6.22.2.0                                                  12/22/2022  15:38:00  PAGE 28


  C:B3E1H         PUBLIC        _UART4_Sendbyte16
  -------         PROC          _UART2_INIT
  D:0004H         SYMBOL        bdt
  -------         DO            
  X:C123H         SYMBOL        tmp
  -------         ENDDO         
  C:AE44H         LINE#         41
  C:AE44H         LINE#         42
  C:AE44H         LINE#         44
  C:AE65H         LINE#         45
  C:AE68H         LINE#         46
  C:AE6FH         LINE#         47
  C:AE76H         LINE#         48
  C:AE79H         LINE#         49
  C:AE7CH         LINE#         50
  C:AE7FH         LINE#         51
  C:AE8AH         LINE#         52
  C:AE8CH         LINE#         53
  C:AE8FH         LINE#         54
  C:AE91H         LINE#         65
  -------         ENDPROC       _UART2_INIT
  -------         PROC          _UART3_INIT
  D:0004H         SYMBOL        bdt
  -------         DO            
  X:C123H         SYMBOL        tmp
  -------         ENDDO         
  C:AF2CH         LINE#         80
  C:AF2CH         LINE#         81
  C:AF2CH         LINE#         83
  C:AF4DH         LINE#         85
  C:AF50H         LINE#         87
  C:AF57H         LINE#         88
  C:AF5EH         LINE#         89
  C:AF61H         LINE#         91
  C:AF64H         LINE#         92
  C:AF6FH         LINE#         93
  C:AF71H         LINE#         94
  C:AF74H         LINE#         104
  -------         ENDPROC       _UART3_INIT
  -------         PROC          _UART4_INIT
  D:0004H         SYMBOL        bdt
  -------         DO            
  D:0004H         SYMBOL        tmp
  -------         ENDDO         
  C:B1F2H         LINE#         119
  C:B1F2H         LINE#         120
  C:B1F2H         LINE#         122
  C:B1F5H         LINE#         123
  C:B1F8H         LINE#         124
  C:B20FH         LINE#         125
  C:B212H         LINE#         126
  C:B216H         LINE#         128
  C:B219H         LINE#         138
  -------         ENDPROC       _UART4_INIT
  -------         PROC          _UART5_INIT
  D:0004H         SYMBOL        bdt
  -------         DO            
BL51 BANKED LINKER/LOCATER V6.22.2.0                                                  12/22/2022  15:38:00  PAGE 29


  D:0004H         SYMBOL        tmp
  -------         ENDDO         
  C:B21AH         LINE#         153
  C:B21AH         LINE#         154
  C:B21AH         LINE#         156
  C:B21DH         LINE#         157
  C:B220H         LINE#         159
  C:B237H         LINE#         160
  C:B23AH         LINE#         161
  C:B23EH         LINE#         163
  C:B241H         LINE#         173
  -------         ENDPROC       _UART5_INIT
  -------         PROC          _UARTINIT
  D:0007H         SYMBOL        UartPort
  X:C11FH         SYMBOL        bdt
  C:ADA2H         LINE#         175
  C:ADA2H         LINE#         176
  C:ADA2H         LINE#         177
  C:ADB0H         LINE#         178
  C:ADB0H         LINE#         179
  C:ADB0H         LINE#         180
  C:ADC1H         LINE#         181
  C:ADC1H         LINE#         182
  C:ADC1H         LINE#         183
  C:ADD2H         LINE#         184
  C:ADD2H         LINE#         185
  C:ADD2H         LINE#         186
  C:ADE3H         LINE#         187
  C:ADE3H         LINE#         188
  C:ADE3H         LINE#         189
  C:ADF4H         LINE#         190
  C:ADF4H         LINE#         191
  C:ADF4H         LINE#         192
  C:ADF4H         LINE#         193
  C:ADF4H         LINE#         194
  -------         ENDPROC       _UARTINIT
  -------         PROC          _UATR_SEND_DATA
  X:C114H         SYMBOL        str
  X:C115H         SYMBOL        len
  X:C117H         SYMBOL        buf
  -------         DO            
  X:C11AH         SYMBOL        i
  -------         ENDDO         
  C:83C7H         LINE#         206
  C:83DBH         LINE#         207
  C:83DBH         LINE#         210
  C:83DDH         LINE#         211
  C:83FAH         LINE#         212
  C:83FAH         LINE#         213
  C:8453H         LINE#         214
  C:8472H         LINE#         215
  C:848EH         LINE#         216
  C:849FH         LINE#         217
  C:84B6H         LINE#         218
  C:84B6H         LINE#         219
  C:84B6H         LINE#         220
  C:84BFH         LINE#         221
BL51 BANKED LINKER/LOCATER V6.22.2.0                                                  12/22/2022  15:38:00  PAGE 30


  C:84BFH         LINE#         225
  C:84C1H         LINE#         226
  C:84D4H         LINE#         227
  C:84E2H         LINE#         228
  C:84E5H         LINE#         229
  C:84E5H         LINE#         230
  C:84E8H         LINE#         231
  C:84E8H         LINE#         232
  C:84F1H         LINE#         233
  C:84F1H         LINE#         237
  C:84F3H         LINE#         238
  C:8506H         LINE#         239
  C:8514H         LINE#         240
  C:8517H         LINE#         241
  C:8517H         LINE#         242
  C:8519H         LINE#         243
  C:8519H         LINE#         244
  C:851FH         LINE#         245
  C:851FH         LINE#         249
  C:8521H         LINE#         250
  C:8534H         LINE#         251
  C:8542H         LINE#         252
  C:8545H         LINE#         253
  C:8545H         LINE#         254
  C:8547H         LINE#         255
  C:8547H         LINE#         256
  C:854DH         LINE#         257
  C:854DH         LINE#         261
  C:854FH         LINE#         262
  C:8562H         LINE#         263
  C:8570H         LINE#         264
  C:8577H         LINE#         265
  C:8577H         LINE#         266
  C:8577H         LINE#         267
  C:8577H         LINE#         268
  C:8577H         LINE#         269
  C:8577H         LINE#         270
  C:8579H         LINE#         271
  -------         ENDPROC       _UATR_SEND_DATA
  -------         PROC          UART2_ISR
  C:A35EH         LINE#         273
  C:A36DH         LINE#         275
  C:A36FH         LINE#         276
  C:A372H         LINE#         277
  C:A372H         LINE#         278
  C:A374H         LINE#         279
  C:A387H         LINE#         280
  C:A395H         LINE#         281
  C:A39CH         LINE#         282
  C:A39CH         LINE#         283
  C:A39FH         LINE#         284
  C:A39FH         LINE#         285
  C:A3A1H         LINE#         286
  C:A3B5H         LINE#         287
  C:A3B5H         LINE#         288
  C:A3C2H         LINE#         289
  C:A3D0H         LINE#         290
BL51 BANKED LINKER/LOCATER V6.22.2.0                                                  12/22/2022  15:38:00  PAGE 31


  C:A3D7H         LINE#         291
  C:A3D9H         LINE#         293
  C:A3D9H         LINE#         294
  C:A3DEH         LINE#         298
  C:A3DEH         LINE#         299
  C:A3DEH         LINE#         300
  C:A3E0H         LINE#         301
  -------         ENDPROC       UART2_ISR
  -------         PROC          UART4T_ISR
  C:AB79H         LINE#         303
  C:AB88H         LINE#         305
  C:AB8AH         LINE#         306
  C:AB8DH         LINE#         307
  C:ABA1H         LINE#         308
  C:ABA1H         LINE#         309
  C:ABAEH         LINE#         310
  C:ABBCH         LINE#         311
  C:ABC3H         LINE#         312
  C:ABC5H         LINE#         314
  C:ABC5H         LINE#         315
  C:ABCAH         LINE#         319
  C:ABCAH         LINE#         320
  C:ABCCH         LINE#         321
  -------         ENDPROC       UART4T_ISR
  -------         PROC          UART4R_ISR
  -------         DO            
  D:0007H         SYMBOL        res
  -------         ENDDO         
  C:ADF5H         LINE#         323
  C:AE04H         LINE#         332
  C:AE04H         LINE#         333
  C:AE06H         LINE#         334
  C:AE0EH         LINE#         335
  C:AE0EH         LINE#         336
  C:AE10H         LINE#         337
  C:AE24H         LINE#         338
  C:AE32H         LINE#         339
  C:AE32H         LINE#         340
  C:AE35H         LINE#         341
  C:AE37H         LINE#         342
  -------         ENDPROC       UART4R_ISR
  -------         PROC          _UART4_SENDBYTE
  D:0007H         SYMBOL        dat
  C:B3D5H         LINE#         344
  C:B3D5H         LINE#         345
  C:B3D5H         LINE#         346
  C:B3D7H         LINE#         347
  C:B3DDH         LINE#         349
  C:B3E0H         LINE#         350
  -------         ENDPROC       _UART4_SENDBYTE
  -------         PROC          _UART4_SENDBYTE16
  D:0006H         SYMBOL        dat
  -------         DO            
  D:0005H         SYMBOL        data_L
  D:0007H         SYMBOL        data_H
  -------         ENDDO         
  C:B3E1H         LINE#         352
BL51 BANKED LINKER/LOCATER V6.22.2.0                                                  12/22/2022  15:38:00  PAGE 32


  C:B3E1H         LINE#         353
  C:B3E1H         LINE#         355
  C:B3E3H         LINE#         356
  C:B3E5H         LINE#         357
  C:B3E8H         LINE#         358
  -------         ENDPROC       _UART4_SENDBYTE16
  -------         PROC          _UART4_SENDBYTE32
  X:C1F3H         SYMBOL        dat
  -------         DO            
  D:0001H         SYMBOL        data_8
  D:0003H         SYMBOL        data_16
  D:0002H         SYMBOL        data_24
  D:0007H         SYMBOL        data_32
  -------         ENDDO         
  C:AC98H         LINE#         361
  C:AC9EH         LINE#         362
  C:AC9EH         LINE#         364
  C:ACAEH         LINE#         365
  C:ACBCH         LINE#         366
  C:ACD1H         LINE#         367
  C:ACE4H         LINE#         368
  C:ACE7H         LINE#         369
  C:ACECH         LINE#         370
  C:ACF1H         LINE#         371
  -------         ENDPROC       _UART4_SENDBYTE32
  -------         PROC          UART5T_ISR
  C:ABD9H         LINE#         374
  C:ABE8H         LINE#         376
  C:ABEAH         LINE#         377
  C:ABEDH         LINE#         378
  C:AC01H         LINE#         379
  C:AC01H         LINE#         380
  C:AC0EH         LINE#         381
  C:AC1CH         LINE#         382
  C:AC23H         LINE#         383
  C:AC25H         LINE#         385
  C:AC25H         LINE#         386
  C:AC2AH         LINE#         390
  C:AC2AH         LINE#         391
  C:AC2CH         LINE#         392
  -------         ENDPROC       UART5T_ISR
  -------         PROC          UART5R_ISR
  C:B005H         LINE#         394
  C:B012H         LINE#         396
  C:B014H         LINE#         397
  C:B017H         LINE#         398
  C:B02AH         LINE#         399
  C:B038H         LINE#         400
  C:B03FH         LINE#         401
  C:B041H         LINE#         402
  -------         ENDPROC       UART5R_ISR
  -------         PROC          UART3_ISR
  C:A10BH         LINE#         404
  C:A11AH         LINE#         406
  C:A11CH         LINE#         407
  C:A121H         LINE#         408
  C:A121H         LINE#         409
BL51 BANKED LINKER/LOCATER V6.22.2.0                                                  12/22/2022  15:38:00  PAGE 33


  C:A124H         LINE#         410
  C:A127H         LINE#         411
  C:A13AH         LINE#         412
  C:A148H         LINE#         413
  C:A14FH         LINE#         414
  C:A14FH         LINE#         415
  C:A154H         LINE#         416
  C:A154H         LINE#         417
  C:A157H         LINE#         418
  C:A15AH         LINE#         419
  C:A16EH         LINE#         420
  C:A16EH         LINE#         421
  C:A17BH         LINE#         422
  C:A189H         LINE#         423
  C:A190H         LINE#         424
  C:A192H         LINE#         426
  C:A192H         LINE#         427
  C:A197H         LINE#         431
  C:A197H         LINE#         432
  C:A197H         LINE#         433
  C:A199H         LINE#         434
  -------         ENDPROC       UART3_ISR
  -------         ENDMOD        UART

  -------         MODULE        CANBUS
  C:0000H         SYMBOL        _ICE_DUMMY_
  D:00F1H         PUBLIC        ADR_H
  D:00F3H         PUBLIC        ADR_L
  D:00F2H         PUBLIC        ADR_M
  B:00A8H.7       PUBLIC        EA
  D:00F8H         PUBLIC        RAMMODE
  X:A228H         PUBLIC        CanData
  B:00F8H.4       PUBLIC        APP_ACK
  D:00F4H         PUBLIC        ADR_INC
  C:8BACH         PUBLIC        LoadOneFrame
  B:00B8H.1       PUBLIC        ECAN
  C:6CA4H         PUBLIC        Can_Isr
  C:B32CH         PUBLIC        CanErrorReset
  D:00C9H         PUBLIC        MUX_SEL
  D:008FH         PUBLIC        CAN_CR
  D:00FDH         PUBLIC        DATA0
  D:00FCH         PUBLIC        DATA1
  D:00E8H         PUBLIC        CAN_ET
  D:00FBH         PUBLIC        DATA2
  D:00FAH         PUBLIC        DATA3
  D:0091H         PUBLIC        CAN_IR
  B:00F8H.6       PUBLIC        APP_EN
  C:A2CDH         PUBLIC        _CanBusInit
  C:72E9H         PUBLIC        _CanTx
  -------         PROC          _CANBUSINIT
  X:C11EH         SYMBOL        RegCfg
  C:A2CDH         LINE#         26
  C:A2D8H         LINE#         27
  C:A2D8H         LINE#         28
  C:A2DFH         LINE#         29
  C:A2E6H         LINE#         30
  C:A2EFH         LINE#         31
BL51 BANKED LINKER/LOCATER V6.22.2.0                                                  12/22/2022  15:38:00  PAGE 34


  C:A2F2H         LINE#         32
  C:A2F5H         LINE#         33
  C:A2F8H         LINE#         34
  C:A2FBH         LINE#         35
  C:A2FEH         LINE#         36
  C:A301H         LINE#         37
  C:A304H         LINE#         45
  C:A314H         LINE#         46
  C:A31CH         LINE#         47
  C:A324H         LINE#         48
  C:A32CH         LINE#         50
  C:A32EH         LINE#         51
  C:A331H         LINE#         53
  C:A334H         LINE#         54
  C:A336H         LINE#         55
  C:A338H         LINE#         56
  C:A33AH         LINE#         57
  C:A33CH         LINE#         58
  C:A33FH         LINE#         60
  C:A342H         LINE#         61
  C:A345H         LINE#         62
  C:A348H         LINE#         63
  C:A34BH         LINE#         64
  C:A34DH         LINE#         65
  C:A350H         LINE#         67
  C:A353H         LINE#         68
  C:A356H         LINE#         69
  C:A35BH         LINE#         71
  C:A35DH         LINE#         72
  -------         ENDPROC       _CANBUSINIT
  -------         PROC          CANERRORRESET
  C:B32CH         LINE#         88
  C:B32CH         LINE#         89
  C:B32CH         LINE#         91
  C:B331H         LINE#         92
  C:B331H         LINE#         93
  C:B334H         LINE#         94
  C:B337H         LINE#         95
  C:B33EH         LINE#         96
  C:B341H         LINE#         97
  C:B346H         LINE#         98
  C:B346H         LINE#         100
  -------         ENDPROC       CANERRORRESET
  -------         PROC          LOADONEFRAME
  C:8BACH         LINE#         102
  C:8BACH         LINE#         103
  C:8BACH         LINE#         104
  C:8BAFH         LINE#         105
  C:8BB2H         LINE#         106
  C:8BB5H         LINE#         107
  C:8BB8H         LINE#         108
  C:8BBBH         LINE#         109
  C:8BBEH         LINE#         111
  C:8BD3H         LINE#         112
  C:8BD6H         LINE#         113
  C:8BD8H         LINE#         114
  C:8BDAH         LINE#         115
BL51 BANKED LINKER/LOCATER V6.22.2.0                                                  12/22/2022  15:38:00  PAGE 35


  C:8BDCH         LINE#         116
  C:8BDFH         LINE#         118
  C:8C04H         LINE#         119
  C:8C25H         LINE#         120
  C:8C4AH         LINE#         121
  C:8C5FH         LINE#         122
  C:8C61H         LINE#         123
  C:8C64H         LINE#         125
  C:8C7AH         LINE#         126
  C:8C8CH         LINE#         127
  C:8CA2H         LINE#         128
  C:8CB4H         LINE#         129
  C:8CB6H         LINE#         130
  C:8CB9H         LINE#         132
  C:8CCFH         LINE#         133
  C:8CE1H         LINE#         134
  C:8CF7H         LINE#         135
  C:8D09H         LINE#         136
  C:8D0BH         LINE#         137
  C:8D0EH         LINE#         139
  C:8D14H         LINE#         140
  C:8D17H         LINE#         141
  -------         ENDPROC       LOADONEFRAME
  -------         PROC          _CANTX
  X:C114H         SYMBOL        ID
  X:C118H         SYMBOL        status
  X:C119H         SYMBOL        len
  X:C11BH         SYMBOL        pData
  -------         DO            
  X:C11EH         SYMBOL        i
  X:C11FH         SYMBOL        j
  X:C120H         SYMBOL        k
  X:C121H         SYMBOL        framnum
  X:C122H         SYMBOL        framoffset
  X:C123H         SYMBOL        idtmp
  X:C127H         SYMBOL        statustmp
  -------         ENDDO         
  C:72E9H         LINE#         144
  C:72EFH         LINE#         145
  C:72EFH         LINE#         149
  C:7301H         LINE#         151
  C:730CH         LINE#         152
  C:730CH         LINE#         153
  C:7319H         LINE#         154
  C:731BH         LINE#         156
  C:731BH         LINE#         157
  C:7331H         LINE#         158
  C:7331H         LINE#         159
  C:7348H         LINE#         160
  C:7348H         LINE#         161
  C:7368H         LINE#         162
  C:737DH         LINE#         163
  C:737DH         LINE#         164
  C:7380H         LINE#         166
  C:7380H         LINE#         167
  C:7397H         LINE#         168
  C:739CH         LINE#         169
BL51 BANKED LINKER/LOCATER V6.22.2.0                                                  12/22/2022  15:38:00  PAGE 36


  C:73A1H         LINE#         170
  C:73B2H         LINE#         171
  C:73C7H         LINE#         172
  C:73C7H         LINE#         173
  C:73EBH         LINE#         174
  C:740CH         LINE#         175
  C:741FH         LINE#         176
  C:741FH         LINE#         177
  C:7455H         LINE#         178
  C:745BH         LINE#         179
  C:7463H         LINE#         180
  C:7469H         LINE#         181
  C:7472H         LINE#         182
  C:747CH         LINE#         183
  C:747CH         LINE#         184
  C:749DH         LINE#         185
  C:74C0H         LINE#         186
  C:74D3H         LINE#         187
  C:74D3H         LINE#         188
  C:7509H         LINE#         189
  C:750FH         LINE#         190
  C:7517H         LINE#         191
  C:7525H         LINE#         192
  C:754BH         LINE#         193
  C:7551H         LINE#         194
  C:7551H         LINE#         195
  C:7551H         LINE#         196
  C:7557H         LINE#         197
  C:7557H         LINE#         198
  C:7559H         LINE#         199
  C:755CH         LINE#         200
  C:755EH         LINE#         201
  C:7564H         LINE#         202
  C:7567H         LINE#         203
  C:7567H         LINE#         204
  -------         ENDPROC       _CANTX
  -------         PROC          CAN_ISR
  -------         DO            
  X:C113H         SYMBOL        status
  -------         ENDDO         
  C:6CA4H         LINE#         206
  C:6CC1H         LINE#         210
  C:6CC3H         LINE#         211
  C:6CCBH         LINE#         212
  C:6CCBH         LINE#         213
  C:6CCEH         LINE#         214
  C:6CCEH         LINE#         215
  C:6CD9H         LINE#         216
  C:6CD9H         LINE#         217
  C:6CDCH         LINE#         218
  C:6CDFH         LINE#         219
  C:6CE1H         LINE#         220
  C:6CE4H         LINE#         221
  C:6CE7H         LINE#         222
  C:6CEAH         LINE#         223
  C:6CEDH         LINE#         225
  C:6CEFH         LINE#         226
BL51 BANKED LINKER/LOCATER V6.22.2.0                                                  12/22/2022  15:38:00  PAGE 37


  C:6CF2H         LINE#         228
  C:6CF8H         LINE#         229
  C:6D0EH         LINE#         230
  C:6D10H         LINE#         231
  C:6D13H         LINE#         233
  C:6D40H         LINE#         234
  C:6D73H         LINE#         235
  C:6DA0H         LINE#         236
  C:6DD3H         LINE#         237
  C:6E00H         LINE#         238
  C:6E33H         LINE#         239
  C:6E60H         LINE#         240
  C:6E93H         LINE#         241
  C:6EC0H         LINE#         242
  C:6EC8H         LINE#         243
  C:6EC8H         LINE#         244
  C:6EF5H         LINE#         245
  C:6EF5H         LINE#         246
  C:6F00H         LINE#         247
  C:6F00H         LINE#         248
  C:6F02H         LINE#         249
  C:6F05H         LINE#         251
  C:6F1BH         LINE#         252
  C:6F2DH         LINE#         253
  C:6F3FH         LINE#         254
  C:6F51H         LINE#         255
  C:6F53H         LINE#         256
  C:6F56H         LINE#         258
  C:6F6CH         LINE#         259
  C:6F7EH         LINE#         260
  C:6F90H         LINE#         261
  C:6FA2H         LINE#         262
  C:6FA2H         LINE#         263
  C:6FA5H         LINE#         264
  C:6FABH         LINE#         265
  C:6FABH         LINE#         266
  C:6FB3H         LINE#         267
  C:6FB3H         LINE#         268
  C:6FB6H         LINE#         269
  C:6FC0H         LINE#         270
  C:6FC0H         LINE#         271
  C:6FC3H         LINE#         272
  C:6FC6H         LINE#         273
  C:6FC8H         LINE#         275
  C:6FC8H         LINE#         276
  C:6FCDH         LINE#         277
  C:6FCDH         LINE#         278
  C:6FCDH         LINE#         279
  C:6FD5H         LINE#         280
  C:6FD5H         LINE#         281
  C:6FD8H         LINE#         282
  C:6FD8H         LINE#         283
  C:6FE0H         LINE#         284
  C:6FE0H         LINE#         285
  C:6FE3H         LINE#         286
  C:6FE3H         LINE#         287
  C:6FEBH         LINE#         288
BL51 BANKED LINKER/LOCATER V6.22.2.0                                                  12/22/2022  15:38:00  PAGE 38


  C:6FEBH         LINE#         289
  C:6FEEH         LINE#         290
  C:6FF1H         LINE#         291
  C:6FF1H         LINE#         292
  C:6FF4H         LINE#         293
  C:6FF6H         LINE#         294
  -------         ENDPROC       CAN_ISR
  -------         ENDMOD        CANBUS

  -------         MODULE        MAIN
  C:0000H         SYMBOL        _ICE_DUMMY_
  D:00B0H         PUBLIC        P3
  B:00A8H.7       PUBLIC        EA
  D:00BCH         PUBLIC        P1MDOUT
  C:91BDH         PUBLIC        Sta_Init
  C:A8F2H         PUBLIC        main
  D:00F9H         PUBLIC        PORTDRV
  C:B406H         PUBLIC        io_init
  -------         PROC          IO_INIT
  C:B406H         LINE#         14
  C:B406H         LINE#         15
  C:B406H         LINE#         16
  C:B409H         LINE#         26
  C:B40CH         LINE#         27
  -------         ENDPROC       IO_INIT
  -------         PROC          MAIN
  C:A8F2H         LINE#         29
  C:A8F2H         LINE#         30
  C:A8F2H         LINE#         33
  C:A8F5H         LINE#         34
  C:A8F8H         LINE#         35
  C:A8FBH         LINE#         36
  C:A8FEH         LINE#         37
  C:A900H         LINE#         38
  C:A909H         LINE#         39
  C:A912H         LINE#         42
  C:A915H         LINE#         43
  C:A91CH         LINE#         44
  C:A91FH         LINE#         46
  C:A922H         LINE#         48
  C:A931H         LINE#         49
  C:A934H         LINE#         50
  C:A937H         LINE#         52
  C:A937H         LINE#         53
  C:A937H         LINE#         70
  C:A93FH         LINE#         71
  C:A93FH         LINE#         72
  C:A942H         LINE#         73
  C:A94BH         LINE#         74
  C:A94BH         LINE#         75
  C:A953H         LINE#         76
  C:A953H         LINE#         77
  C:A956H         LINE#         78
  C:A95FH         LINE#         79
  C:A95FH         LINE#         82
  C:A962H         LINE#         83
  -------         ENDPROC       MAIN
BL51 BANKED LINKER/LOCATER V6.22.2.0                                                  12/22/2022  15:38:00  PAGE 39


  -------         PROC          STA_INIT
  -------         DO            
  X:C114H         SYMBOL        Dat
  -------         ENDDO         
  C:91BDH         LINE#         87
  C:91BDH         LINE#         88
  C:91BDH         LINE#         92
  C:91C4H         LINE#         93
  C:91D8H         LINE#         94
  C:91E1H         LINE#         95
  C:91F5H         LINE#         96
  C:91FEH         LINE#         97
  C:9212H         LINE#         98
  C:921AH         LINE#         99
  C:922EH         LINE#         101
  C:9236H         LINE#         103
  C:924AH         LINE#         105
  C:9252H         LINE#         106
  C:9266H         LINE#         107
  C:927BH         LINE#         108
  C:9290H         LINE#         109
  C:92A5H         LINE#         110
  C:92BAH         LINE#         111
  -------         ENDPROC       STA_INIT
  -------         ENDMOD        MAIN

  -------         MODULE        CONST
  C:0000H         SYMBOL        _ICE_DUMMY_
  -------         ENDMOD        CONST

  -------         MODULE        UI
  C:0000H         SYMBOL        _ICE_DUMMY_
  C:7A0FH         PUBLIC        Polling10_12
  D:00F1H         PUBLIC        ADR_H
  C:8A31H         PUBLIC        Touch_Scan_3
  C:857AH         PUBLIC        Touch_Scan_4
  C:90A3H         PUBLIC        Touch_Scan_5
  C:B42BH         PUBLIC        P10_12Func
  C:20F7H         PUBLIC        Touch_Scan_6
  D:00F3H         PUBLIC        ADR_L
  D:00F2H         PUBLIC        ADR_M
  B:00A8H.7       PUBLIC        EA
  D:00F8H         PUBLIC        RAMMODE
  C:7011H         PUBLIC        Polling15_17
  C:B44DH         PUBLIC        Polling2
  C:B449H         PUBLIC        P15_17Func
  C:B40DH         PUBLIC        P0Func
  C:B413H         PUBLIC        P1Func
  C:B419H         PUBLIC        P2Func
  C:2DFBH         PUBLIC        Touch_Scan_1_2
  C:B3EDH         PUBLIC        P3Func
  B:00F8H.4       PUBLIC        APP_ACK
  C:B43DH         PUBLIC        P4Func
  D:00F4H         PUBLIC        ADR_INC
  C:B41FH         PUBLIC        P5Func
  C:B425H         PUBLIC        P6Func
  C:B391H         PUBLIC        P9Func
BL51 BANKED LINKER/LOCATER V6.22.2.0                                                  12/22/2022  15:38:00  PAGE 40


  C:5D85H         PUBLIC        Polling1_6
  C:801EH         PUBLIC        Touch_Scan_13
  C:A708H         PUBLIC        Touch_Scan_14
  C:95CAH         PUBLIC        Touch_Scan_16
  C:B440H         PUBLIC        P13Func
  C:B443H         PUBLIC        P14Func
  C:B446H         PUBLIC        P16Func
  C:B44CH         PUBLIC        P18Func
  C:3AB1H         PUBLIC        File_Control
  C:AA45H         PUBLIC        PageFunction
  D:00FBH         PUBLIC        DATA2
  D:00FAH         PUBLIC        DATA3
  C:6887H         PUBLIC        Coordinate_Control
  B:00F8H.6       PUBLIC        APP_EN
  C:B0CFH         PUBLIC        _PagePointer
  C:9884H         PUBLIC        Contorl
  C:77D2H         PUBLIC        Touch_Scan_10_12
  C:A500H         PUBLIC        Touch_Scan_0
  -------         PROC          P0FUNC
  C:B40DH         LINE#         9
  C:B40DH         LINE#         10
  C:B40DH         LINE#         11
  C:B410H         LINE#         12
  -------         ENDPROC       P0FUNC
  -------         PROC          P1FUNC
  C:B413H         LINE#         15
  C:B413H         LINE#         16
  C:B413H         LINE#         17
  C:B416H         LINE#         18
  -------         ENDPROC       P1FUNC
  -------         PROC          P2FUNC
  C:B419H         LINE#         20
  C:B419H         LINE#         21
  C:B419H         LINE#         22
  C:B41CH         LINE#         23
  -------         ENDPROC       P2FUNC
  -------         PROC          P3FUNC
  C:B3EDH         LINE#         26
  C:B3EDH         LINE#         27
  C:B3EDH         LINE#         28
  C:B3F0H         LINE#         29
  C:B3F3H         LINE#         31
  -------         ENDPROC       P3FUNC
  -------         PROC          P4FUNC
  C:B43DH         LINE#         33
  C:B43DH         LINE#         34
  C:B43DH         LINE#         35
  -------         ENDPROC       P4FUNC
  -------         PROC          P5FUNC
  C:B41FH         LINE#         38
  C:B41FH         LINE#         39
  C:B41FH         LINE#         40
  C:B422H         LINE#         41
  -------         ENDPROC       P5FUNC
  -------         PROC          P6FUNC
  C:B425H         LINE#         43
  C:B425H         LINE#         44
BL51 BANKED LINKER/LOCATER V6.22.2.0                                                  12/22/2022  15:38:00  PAGE 41


  C:B425H         LINE#         45
  C:B428H         LINE#         46
  -------         ENDPROC       P6FUNC
  -------         PROC          P9FUNC
  C:B391H         LINE#         48
  C:B391H         LINE#         49
  C:B391H         LINE#         50
  C:B398H         LINE#         53
  C:B39EH         LINE#         55
  C:B3A5H         LINE#         56
  -------         ENDPROC       P9FUNC
  -------         PROC          P10_12FUNC
  C:B42BH         LINE#         58
  C:B42BH         LINE#         59
  C:B42BH         LINE#         60
  C:B42EH         LINE#         61
  -------         ENDPROC       P10_12FUNC
  -------         PROC          P13FUNC
  C:B440H         LINE#         64
  C:B440H         LINE#         65
  C:B440H         LINE#         66
  -------         ENDPROC       P13FUNC
  -------         PROC          P14FUNC
  C:B443H         LINE#         69
  C:B443H         LINE#         70
  C:B443H         LINE#         71
  -------         ENDPROC       P14FUNC
  -------         PROC          P16FUNC
  C:B446H         LINE#         75
  C:B446H         LINE#         76
  C:B446H         LINE#         77
  -------         ENDPROC       P16FUNC
  -------         PROC          P18FUNC
  C:B44CH         LINE#         81
  C:B44CH         LINE#         82
  C:B44CH         LINE#         84
  -------         ENDPROC       P18FUNC
  -------         PROC          P15_17FUNC
  C:B449H         LINE#         86
  C:B449H         LINE#         87
  C:B449H         LINE#         88
  -------         ENDPROC       P15_17FUNC
  -------         PROC          PAGEFUNCTION
  -------         DO            
  X:C114H         SYMBOL        pageid
  -------         ENDDO         
  C:AA45H         LINE#         94
  C:AA45H         LINE#         95
  C:AA45H         LINE#         98
  C:AA47H         LINE#         99
  C:AA4AH         LINE#         100
  C:AA4CH         LINE#         101
  C:AA4FH         LINE#         102
  C:AA52H         LINE#         103
  C:AA55H         LINE#         104
  C:AA58H         LINE#         106
  C:AA5AH         LINE#         107
BL51 BANKED LINKER/LOCATER V6.22.2.0                                                  12/22/2022  15:38:00  PAGE 42


  C:AA5DH         LINE#         109
  C:AA67H         LINE#         110
  C:AA72H         LINE#         111
  C:AA7EH         LINE#         112
  C:AA81H         LINE#         113
  C:AA83H         LINE#         114
  C:AAA8H         LINE#         115
  C:AAA8H         LINE#         116
  C:AAAFH         LINE#         117
  C:AAAFH         LINE#         118
  -------         ENDPROC       PAGEFUNCTION
  -------         PROC          CONTORL
  C:9884H         LINE#         121
  C:9884H         LINE#         122
  C:9884H         LINE#         123
  C:988DH         LINE#         124
  C:988DH         LINE#         125
  C:989BH         LINE#         126
  C:98ADH         LINE#         127
  C:98ADH         LINE#         128
  C:98B1H         LINE#         129
  C:98B9H         LINE#         130
  C:98CAH         LINE#         132
  C:98D1H         LINE#         133
  C:98E5H         LINE#         135
  C:98EDH         LINE#         136
  C:9901H         LINE#         137
  C:990BH         LINE#         138
  C:990BH         LINE#         139
  C:990DH         LINE#         141
  C:990DH         LINE#         142
  C:9913H         LINE#         143
  C:9913H         LINE#         144
  C:9921H         LINE#         145
  C:9930H         LINE#         146
  C:9930H         LINE#         147
  C:9934H         LINE#         148
  C:993CH         LINE#         149
  C:994DH         LINE#         151
  C:9954H         LINE#         152
  C:9968H         LINE#         154
  C:9968H         LINE#         155
  C:9968H         LINE#         156
  C:9968H         LINE#         157
  -------         ENDPROC       CONTORL
  -------         PROC          POLLING1_6
  C:5D85H         LINE#         160
  C:5D85H         LINE#         161
  C:5D85H         LINE#         162
  C:5D90H         LINE#         163
  C:5D90H         LINE#         164
  C:5D9BH         LINE#         165
  C:5D9BH         LINE#         166
  C:5DDAH         LINE#         167
  C:5DDAH         LINE#         168
  C:5DDAH         LINE#         169
  C:5DE4H         LINE#         171
BL51 BANKED LINKER/LOCATER V6.22.2.0                                                  12/22/2022  15:38:00  PAGE 43


  C:5DF5H         LINE#         172
  C:5E03H         LINE#         173
  C:5E15H         LINE#         174
  C:5E15H         LINE#         175
  C:5E18H         LINE#         176
  C:5E18H         LINE#         177
  C:5E18H         LINE#         178
  C:5E1BH         LINE#         179
  C:5E1BH         LINE#         180
  C:5E25H         LINE#         181
  C:5E36H         LINE#         182
  C:5E44H         LINE#         183
  C:5E56H         LINE#         184
  C:5E56H         LINE#         185
  C:5E5EH         LINE#         186
  C:5E5EH         LINE#         187
  C:5E5EH         LINE#         188
  C:5E61H         LINE#         189
  C:5E61H         LINE#         190
  C:5E6BH         LINE#         191
  C:5E7CH         LINE#         192
  C:5E8AH         LINE#         193
  C:5E9CH         LINE#         194
  C:5E9CH         LINE#         195
  C:5EA4H         LINE#         196
  C:5EA4H         LINE#         197
  C:5EA4H         LINE#         198
  C:5EA7H         LINE#         199
  C:5EA7H         LINE#         200
  C:5EB1H         LINE#         201
  C:5EC2H         LINE#         202
  C:5ED0H         LINE#         203
  C:5EE2H         LINE#         204
  C:5EE2H         LINE#         205
  C:5EEAH         LINE#         206
  C:5EEAH         LINE#         207
  C:5EEAH         LINE#         208
  C:5EEDH         LINE#         209
  C:5EEDH         LINE#         210
  C:5EF6H         LINE#         211
  C:5F07H         LINE#         212
  C:5F15H         LINE#         213
  C:5F27H         LINE#         214
  C:5F27H         LINE#         215
  C:5F2FH         LINE#         216
  C:5F2FH         LINE#         217
  C:5F2FH         LINE#         218
  C:5F32H         LINE#         219
  C:5F32H         LINE#         220
  C:5F3CH         LINE#         221
  C:5F4DH         LINE#         222
  C:5F5BH         LINE#         223
  C:5F6DH         LINE#         224
  C:5F6DH         LINE#         225
  C:5F75H         LINE#         226
  C:5F75H         LINE#         227
  C:5F75H         LINE#         228
BL51 BANKED LINKER/LOCATER V6.22.2.0                                                  12/22/2022  15:38:00  PAGE 44


  C:5F78H         LINE#         229
  C:5F78H         LINE#         230
  C:5F82H         LINE#         231
  C:5F93H         LINE#         232
  C:5FA1H         LINE#         233
  C:5FB3H         LINE#         234
  C:5FB3H         LINE#         235
  C:5FBBH         LINE#         236
  C:5FBBH         LINE#         237
  C:5FBBH         LINE#         238
  C:5FBEH         LINE#         239
  C:5FBEH         LINE#         240
  C:5FC8H         LINE#         241
  C:5FD9H         LINE#         242
  C:5FE7H         LINE#         243
  C:5FF9H         LINE#         244
  C:5FF9H         LINE#         245
  C:6001H         LINE#         246
  C:6001H         LINE#         247
  C:6001H         LINE#         248
  C:6004H         LINE#         249
  C:6004H         LINE#         250
  C:600EH         LINE#         251
  C:601FH         LINE#         252
  C:602DH         LINE#         253
  C:603FH         LINE#         254
  C:603FH         LINE#         255
  C:6047H         LINE#         256
  C:6047H         LINE#         257
  C:6047H         LINE#         258
  C:604AH         LINE#         259
  C:604AH         LINE#         262
  C:6058H         LINE#         263
  C:606AH         LINE#         264
  C:606AH         LINE#         265
  C:6072H         LINE#         266
  C:6072H         LINE#         267
  C:6072H         LINE#         269
  C:6075H         LINE#         270
  C:6075H         LINE#         271
  C:6079H         LINE#         272
  C:607CH         LINE#         273
  C:607CH         LINE#         274
  C:607CH         LINE#         276
  C:6092H         LINE#         277
  C:6092H         LINE#         278
  C:60CEH         LINE#         279
  C:60CEH         LINE#         280
  C:60CEH         LINE#         281
  C:60DAH         LINE#         282
  C:60DAH         LINE#         283
  C:60E1H         LINE#         284
  C:60E2H         LINE#         286
  C:60E2H         LINE#         287
  C:60ECH         LINE#         288
  C:60FDH         LINE#         289
  C:610BH         LINE#         290
BL51 BANKED LINKER/LOCATER V6.22.2.0                                                  12/22/2022  15:38:00  PAGE 45


  C:611DH         LINE#         291
  C:611DH         LINE#         292
  C:6125H         LINE#         293
  C:6129H         LINE#         294
  C:6129H         LINE#         295
  C:6129H         LINE#         296
  C:612CH         LINE#         297
  C:612CH         LINE#         298
  C:6135H         LINE#         299
  C:6136H         LINE#         300
  C:6136H         LINE#         301
  C:6140H         LINE#         302
  C:6151H         LINE#         303
  C:615FH         LINE#         304
  C:6171H         LINE#         305
  C:6171H         LINE#         306
  C:617AH         LINE#         307
  C:617EH         LINE#         308
  C:617EH         LINE#         309
  C:6181H         LINE#         310
  C:6181H         LINE#         311
  C:618BH         LINE#         312
  C:619CH         LINE#         313
  C:61AAH         LINE#         314
  C:61BCH         LINE#         315
  C:61BCH         LINE#         316
  C:61C5H         LINE#         317
  C:61C9H         LINE#         318
  C:61C9H         LINE#         319
  C:61CCH         LINE#         320
  C:61CCH         LINE#         321
  C:61D6H         LINE#         322
  C:61E7H         LINE#         323
  C:61F5H         LINE#         324
  C:6207H         LINE#         325
  C:6207H         LINE#         326
  C:6210H         LINE#         327
  C:6214H         LINE#         328
  C:6214H         LINE#         329
  C:6217H         LINE#         330
  C:6217H         LINE#         331
  C:6223H         LINE#         332
  C:6223H         LINE#         333
  C:622BH         LINE#         334
  C:622CH         LINE#         336
  C:622CH         LINE#         337
  C:6236H         LINE#         338
  C:6247H         LINE#         339
  C:6255H         LINE#         340
  C:6267H         LINE#         341
  C:6267H         LINE#         342
  C:6270H         LINE#         343
  C:6274H         LINE#         344
  C:6274H         LINE#         345
  C:6274H         LINE#         346
  C:6277H         LINE#         347
  C:6277H         LINE#         348
BL51 BANKED LINKER/LOCATER V6.22.2.0                                                  12/22/2022  15:38:00  PAGE 46


  C:6283H         LINE#         349
  C:6283H         LINE#         350
  C:628DH         LINE#         351
  C:629EH         LINE#         352
  C:629EH         LINE#         354
  C:629EH         LINE#         355
  C:62A7H         LINE#         356
  C:62A7H         LINE#         357
  C:62A8H         LINE#         358
  C:62A8H         LINE#         361
  C:62B6H         LINE#         362
  C:62C8H         LINE#         363
  C:62C8H         LINE#         364
  C:62D1H         LINE#         365
  C:62D5H         LINE#         366
  C:62D5H         LINE#         368
  C:62D7H         LINE#         370
  C:62D7H         LINE#         371
  C:62E0H         LINE#         372
  C:62F1H         LINE#         373
  C:62FFH         LINE#         374
  C:630EH         LINE#         375
  C:630EH         LINE#         376
  C:6317H         LINE#         377
  C:631EH         LINE#         378
  C:631EH         LINE#         379
  C:631FH         LINE#         380
  C:631FH         LINE#         381
  C:6326H         LINE#         382
  C:632CH         LINE#         383
  C:632DH         LINE#         384
  C:632DH         LINE#         385
  C:632DH         LINE#         386
  C:633AH         LINE#         387
  C:633AH         LINE#         388
  C:633DH         LINE#         389
  C:6347H         LINE#         390
  C:6347H         LINE#         391
  C:634AH         LINE#         392
  C:634AH         LINE#         393
  C:634AH         LINE#         394
  C:634AH         LINE#         395
  -------         ENDPROC       POLLING1_6
  -------         PROC          POLLING2
  C:B44DH         LINE#         398
  C:B44DH         LINE#         399
  C:B44DH         LINE#         400
  C:B44DH         LINE#         401
  C:B44DH         LINE#         402
  C:B44DH         LINE#         403
  -------         ENDPROC       POLLING2
  -------         PROC          POLLING10_12
  C:7A0FH         LINE#         405
  C:7A0FH         LINE#         406
  C:7A0FH         LINE#         407
  C:7A1AH         LINE#         408
  C:7A1AH         LINE#         409
BL51 BANKED LINKER/LOCATER V6.22.2.0                                                  12/22/2022  15:38:00  PAGE 47


  C:7A2CH         LINE#         410
  C:7A2CH         LINE#         411
  C:7A5FH         LINE#         412
  C:7A5FH         LINE#         413
  C:7A5FH         LINE#         414
  C:7A68H         LINE#         415
  C:7A79H         LINE#         416
  C:7A87H         LINE#         417
  C:7A99H         LINE#         418
  C:7A99H         LINE#         419
  C:7AA0H         LINE#         420
  C:7AA0H         LINE#         421
  C:7AA0H         LINE#         422
  C:7AA3H         LINE#         424
  C:7AA3H         LINE#         425
  C:7AACH         LINE#         426
  C:7ABDH         LINE#         427
  C:7ACBH         LINE#         428
  C:7ADDH         LINE#         429
  C:7ADDH         LINE#         430
  C:7AE5H         LINE#         431
  C:7AE5H         LINE#         432
  C:7AE5H         LINE#         433
  C:7AE8H         LINE#         435
  C:7AE8H         LINE#         436
  C:7AF1H         LINE#         437
  C:7B02H         LINE#         438
  C:7B10H         LINE#         439
  C:7B22H         LINE#         440
  C:7B22H         LINE#         441
  C:7B2AH         LINE#         442
  C:7B2AH         LINE#         443
  C:7B2AH         LINE#         444
  C:7B2DH         LINE#         446
  C:7B2DH         LINE#         447
  C:7B36H         LINE#         448
  C:7B47H         LINE#         449
  C:7B55H         LINE#         450
  C:7B67H         LINE#         451
  C:7B67H         LINE#         452
  C:7B6FH         LINE#         453
  C:7B6FH         LINE#         454
  C:7B6FH         LINE#         455
  C:7B72H         LINE#         457
  C:7B72H         LINE#         458
  C:7B7BH         LINE#         459
  C:7B8CH         LINE#         460
  C:7B9AH         LINE#         461
  C:7BA9H         LINE#         462
  C:7BA9H         LINE#         463
  C:7BB1H         LINE#         464
  C:7BB1H         LINE#         465
  C:7BB1H         LINE#         466
  C:7BB3H         LINE#         468
  C:7BB3H         LINE#         469
  C:7BBCH         LINE#         470
  C:7BCDH         LINE#         471
BL51 BANKED LINKER/LOCATER V6.22.2.0                                                  12/22/2022  15:38:00  PAGE 48


  C:7BDBH         LINE#         472
  C:7BEAH         LINE#         473
  C:7BEAH         LINE#         474
  C:7BF3H         LINE#         475
  C:7BFAH         LINE#         476
  C:7BFAH         LINE#         477
  C:7BFBH         LINE#         479
  C:7BFBH         LINE#         480
  C:7C02H         LINE#         481
  C:7C10H         LINE#         482
  C:7C1FH         LINE#         483
  C:7C1FH         LINE#         484
  C:7C25H         LINE#         485
  C:7C25H         LINE#         486
  C:7C25H         LINE#         487
  C:7C25H         LINE#         488
  C:7C25H         LINE#         489
  C:7C25H         LINE#         490
  -------         ENDPROC       POLLING10_12
  -------         PROC          POLLING15_17
  C:7011H         LINE#         492
  C:7011H         LINE#         493
  C:7011H         LINE#         495
  C:701CH         LINE#         496
  C:701CH         LINE#         497
  C:702EH         LINE#         498
  C:702EH         LINE#         499
  C:7067H         LINE#         500
  C:7067H         LINE#         501
  C:7067H         LINE#         502
  C:7070H         LINE#         503
  C:7081H         LINE#         504
  C:708FH         LINE#         505
  C:70A1H         LINE#         506
  C:70A1H         LINE#         507
  C:70A8H         LINE#         508
  C:70A8H         LINE#         509
  C:70A8H         LINE#         510
  C:70ABH         LINE#         512
  C:70ABH         LINE#         513
  C:70B5H         LINE#         514
  C:70C7H         LINE#         515
  C:70D5H         LINE#         516
  C:70E7H         LINE#         517
  C:70E7H         LINE#         518
  C:70EFH         LINE#         519
  C:70EFH         LINE#         520
  C:70EFH         LINE#         521
  C:70F2H         LINE#         523
  C:70F2H         LINE#         524
  C:70FCH         LINE#         525
  C:710EH         LINE#         526
  C:711CH         LINE#         527
  C:712EH         LINE#         528
  C:712EH         LINE#         529
  C:7136H         LINE#         530
  C:7136H         LINE#         531
BL51 BANKED LINKER/LOCATER V6.22.2.0                                                  12/22/2022  15:38:00  PAGE 49


  C:7136H         LINE#         532
  C:7139H         LINE#         534
  C:7139H         LINE#         535
  C:7143H         LINE#         536
  C:7155H         LINE#         537
  C:7163H         LINE#         538
  C:7175H         LINE#         539
  C:7175H         LINE#         540
  C:717DH         LINE#         541
  C:717DH         LINE#         542
  C:717DH         LINE#         543
  C:7180H         LINE#         545
  C:7180H         LINE#         546
  C:718AH         LINE#         547
  C:719CH         LINE#         548
  C:71AAH         LINE#         549
  C:71BCH         LINE#         550
  C:71BCH         LINE#         551
  C:71C4H         LINE#         552
  C:71C4H         LINE#         553
  C:71C4H         LINE#         554
  C:71C7H         LINE#         556
  C:71C7H         LINE#         557
  C:71D1H         LINE#         558
  C:71E3H         LINE#         559
  C:71F1H         LINE#         560
  C:7203H         LINE#         561
  C:7203H         LINE#         562
  C:720BH         LINE#         563
  C:720BH         LINE#         564
  C:720BH         LINE#         565
  C:720EH         LINE#         568
  C:720EH         LINE#         569
  C:7218H         LINE#         570
  C:722AH         LINE#         571
  C:7238H         LINE#         572
  C:724AH         LINE#         573
  C:724AH         LINE#         574
  C:7252H         LINE#         575
  C:7252H         LINE#         576
  C:7252H         LINE#         577
  C:7254H         LINE#         580
  C:7254H         LINE#         581
  C:725EH         LINE#         582
  C:7270H         LINE#         583
  C:727EH         LINE#         584
  C:728DH         LINE#         585
  C:728DH         LINE#         586
  C:7296H         LINE#         587
  C:729AH         LINE#         588
  C:729AH         LINE#         589
  C:729CH         LINE#         603
  C:729CH         LINE#         605
  C:72A3H         LINE#         606
  C:72B1H         LINE#         607
  C:72C0H         LINE#         608
  C:72C0H         LINE#         609
BL51 BANKED LINKER/LOCATER V6.22.2.0                                                  12/22/2022  15:38:00  PAGE 50


  C:72C6H         LINE#         610
  C:72C6H         LINE#         611
  C:72C7H         LINE#         612
  C:72C7H         LINE#         613
  C:72C7H         LINE#         615
  C:72C7H         LINE#         616
  C:72D5H         LINE#         617
  C:72E4H         LINE#         618
  C:72E4H         LINE#         619
  C:72E8H         LINE#         620
  C:72E8H         LINE#         621
  C:72E8H         LINE#         622
  C:72E8H         LINE#         623
  -------         ENDPROC       POLLING15_17
  -------         PROC          TOUCH_SCAN_0
  -------         DO            
  X:C116H         SYMBOL        i
  -------         ENDDO         
  C:A500H         LINE#         625
  C:A500H         LINE#         626
  C:A500H         LINE#         629
  C:A512H         LINE#         630
  C:A512H         LINE#         631
  C:A526H         LINE#         632
  C:A52EH         LINE#         633
  C:A53AH         LINE#         634
  C:A53AH         LINE#         635
  C:A54DH         LINE#         636
  C:A559H         LINE#         637
  C:A559H         LINE#         638
  C:A568H         LINE#         639
  C:A56FH         LINE#         640
  C:A582H         LINE#         641
  C:A582H         LINE#         642
  C:A582H         LINE#         643
  -------         ENDPROC       TOUCH_SCAN_0
  -------         PROC          TOUCH_SCAN_3
  -------         DO            
  X:C116H         SYMBOL        i
  X:C117H         SYMBOL        j
  -------         ENDDO         
  C:8A31H         LINE#         645
  C:8A31H         LINE#         646
  C:8A31H         LINE#         650
  C:8A47H         LINE#         651
  C:8A47H         LINE#         652
  C:8A60H         LINE#         654
  C:8A6FH         LINE#         655
  C:8A6FH         LINE#         656
  C:8A81H         LINE#         657
  C:8A81H         LINE#         658
  C:8A9AH         LINE#         659
  C:8AA2H         LINE#         661
  C:8ABEH         LINE#         662
  C:8ACFH         LINE#         663
  C:8AF0H         LINE#         665
  C:8B09H         LINE#         666
BL51 BANKED LINKER/LOCATER V6.22.2.0                                                  12/22/2022  15:38:00  PAGE 51


  C:8B09H         LINE#         667
  C:8B12H         LINE#         670
  C:8B24H         LINE#         671
  C:8B24H         LINE#         672
  C:8B39H         LINE#         673
  C:8B41H         LINE#         674
  C:8B58H         LINE#         675
  C:8B58H         LINE#         676
  C:8B67H         LINE#         678
  C:8B74H         LINE#         679
  C:8B74H         LINE#         680
  C:8B7BH         LINE#         681
  C:8B7DH         LINE#         683
  C:8B7DH         LINE#         684
  C:8B8AH         LINE#         685
  C:8B8AH         LINE#         687
  C:8BABH         LINE#         688
  C:8BABH         LINE#         689
  -------         ENDPROC       TOUCH_SCAN_3
  -------         PROC          TOUCH_SCAN_4
  -------         DO            
  X:C116H         SYMBOL        i
  -------         ENDDO         
  C:857AH         LINE#         691
  C:857AH         LINE#         692
  C:857AH         LINE#         695
  C:8581H         LINE#         696
  C:8587H         LINE#         698
  C:858DH         LINE#         701
  C:859EH         LINE#         702
  C:859EH         LINE#         703
  C:85B3H         LINE#         704
  C:85BBH         LINE#         705
  C:85C7H         LINE#         706
  C:85C7H         LINE#         707
  C:85DBH         LINE#         708
  C:85E7H         LINE#         709
  C:85E7H         LINE#         710
  C:85EBH         LINE#         711
  C:85EDH         LINE#         712
  C:85F2H         LINE#         714
  C:85F9H         LINE#         715
  C:860DH         LINE#         716
  C:860DH         LINE#         717
  C:860DH         LINE#         720
  C:861FH         LINE#         721
  C:861FH         LINE#         722
  C:8633H         LINE#         723
  C:863BH         LINE#         724
  C:8647H         LINE#         725
  C:8647H         LINE#         726
  C:865AH         LINE#         727
  C:8666H         LINE#         728
  C:8666H         LINE#         729
  C:866CH         LINE#         731
  C:8673H         LINE#         732
  C:8686H         LINE#         733
BL51 BANKED LINKER/LOCATER V6.22.2.0                                                  12/22/2022  15:38:00  PAGE 52


  C:8686H         LINE#         734
  C:8686H         LINE#         737
  C:8698H         LINE#         738
  C:8698H         LINE#         739
  C:86ADH         LINE#         740
  C:86B5H         LINE#         741
  C:86C1H         LINE#         742
  C:86C1H         LINE#         744
  C:86D5H         LINE#         745
  C:86E1H         LINE#         746
  C:86E1H         LINE#         747
  C:86EBH         LINE#         749
  C:86FCH         LINE#         750
  C:8703H         LINE#         751
  C:8717H         LINE#         752
  C:8717H         LINE#         753
  C:8717H         LINE#         754
  -------         ENDPROC       TOUCH_SCAN_4
  -------         PROC          TOUCH_SCAN_5
  -------         DO            
  X:C116H         SYMBOL        i
  -------         ENDDO         
  C:90A3H         LINE#         756
  C:90A3H         LINE#         757
  C:90A3H         LINE#         760
  C:90B5H         LINE#         761
  C:90B5H         LINE#         762
  C:90CAH         LINE#         763
  C:90D2H         LINE#         764
  C:90DEH         LINE#         765
  C:90DEH         LINE#         766
  C:90F2H         LINE#         767
  C:90FEH         LINE#         768
  C:90FEH         LINE#         769
  C:9105H         LINE#         770
  C:9115H         LINE#         771
  C:911CH         LINE#         772
  C:9130H         LINE#         773
  C:9130H         LINE#         774
  C:9130H         LINE#         777
  C:9142H         LINE#         778
  C:9142H         LINE#         779
  C:9157H         LINE#         780
  C:915FH         LINE#         781
  C:916BH         LINE#         782
  C:916BH         LINE#         783
  C:917FH         LINE#         784
  C:918BH         LINE#         785
  C:918BH         LINE#         786
  C:9192H         LINE#         787
  C:91A1H         LINE#         788
  C:91A8H         LINE#         789
  C:91BCH         LINE#         790
  C:91BCH         LINE#         791
  C:91BCH         LINE#         792
  -------         ENDPROC       TOUCH_SCAN_5
  -------         PROC          TOUCH_SCAN_1_2
BL51 BANKED LINKER/LOCATER V6.22.2.0                                                  12/22/2022  15:38:00  PAGE 53


  -------         DO            
  X:C116H         SYMBOL        i
  -------         ENDDO         
  C:2DFBH         LINE#         794
  C:2DFBH         LINE#         795
  C:2DFBH         LINE#         798
  C:2E02H         LINE#         801
  C:2E13H         LINE#         802
  C:2E13H         LINE#         803
  C:2E28H         LINE#         804
  C:2E30H         LINE#         805
  C:2E3CH         LINE#         806
  C:2E3CH         LINE#         807
  C:2E50H         LINE#         808
  C:2E5CH         LINE#         809
  C:2E5CH         LINE#         810
  C:2E63H         LINE#         811
  C:2E6DH         LINE#         812
  C:2E75H         LINE#         814
  C:2E85H         LINE#         815
  C:2E8CH         LINE#         816
  C:2EA0H         LINE#         817
  C:2EA0H         LINE#         818
  C:2EA0H         LINE#         821
  C:2EB2H         LINE#         822
  C:2EB2H         LINE#         823
  C:2EC7H         LINE#         824
  C:2ECFH         LINE#         825
  C:2EDBH         LINE#         826
  C:2EDBH         LINE#         827
  C:2EEFH         LINE#         828
  C:2EFBH         LINE#         829
  C:2EFBH         LINE#         830
  C:2F0AH         LINE#         831
  C:2F11H         LINE#         832
  C:2F25H         LINE#         833
  C:2F25H         LINE#         834
  C:2F25H         LINE#         837
  C:2F37H         LINE#         838
  C:2F37H         LINE#         839
  C:2F4CH         LINE#         840
  C:2F54H         LINE#         841
  C:2F63H         LINE#         842
  C:2F63H         LINE#         843
  C:2F77H         LINE#         844
  C:2F83H         LINE#         845
  C:2F83H         LINE#         846
  C:2F91H         LINE#         847
  C:2F98H         LINE#         848
  C:2FACH         LINE#         850
  C:2FB2H         LINE#         851
  C:2FC1H         LINE#         852
  C:2FC1H         LINE#         854
  C:2FC9H         LINE#         855
  C:2FD2H         LINE#         856
  C:2FD4H         LINE#         858
  C:2FD4H         LINE#         860
BL51 BANKED LINKER/LOCATER V6.22.2.0                                                  12/22/2022  15:38:00  PAGE 54


  C:2FDBH         LINE#         861
  C:2FEFH         LINE#         862
  C:2FEFH         LINE#         863
  C:2FEFH         LINE#         864
  C:2FEFH         LINE#         867
  C:3001H         LINE#         868
  C:3001H         LINE#         869
  C:3016H         LINE#         870
  C:301EH         LINE#         871
  C:302DH         LINE#         872
  C:302DH         LINE#         873
  C:3041H         LINE#         874
  C:3050H         LINE#         875
  C:3050H         LINE#         876
  C:305FH         LINE#         877
  C:3066H         LINE#         878
  C:307AH         LINE#         879
  C:3080H         LINE#         881
  C:3087H         LINE#         882
  C:309BH         LINE#         884
  C:30A2H         LINE#         885
  C:30B6H         LINE#         886
  C:30BDH         LINE#         887
  C:30D1H         LINE#         888
  C:30D8H         LINE#         889
  C:30ECH         LINE#         891
  C:30F3H         LINE#         892
  C:3107H         LINE#         894
  C:310EH         LINE#         899
  C:3115H         LINE#         900
  C:3115H         LINE#         901
  C:3115H         LINE#         904
  C:3120H         LINE#         905
  C:3120H         LINE#         907
  C:312EH         LINE#         908
  C:312EH         LINE#         909
  C:3143H         LINE#         910
  C:314AH         LINE#         911
  C:3150H         LINE#         912
  C:3150H         LINE#         915
  C:3162H         LINE#         916
  C:3162H         LINE#         917
  C:3177H         LINE#         918
  C:317FH         LINE#         919
  C:318BH         LINE#         920
  C:318BH         LINE#         921
  C:319FH         LINE#         922
  C:31ABH         LINE#         923
  C:31ABH         LINE#         924
  C:31BAH         LINE#         925
  C:31C1H         LINE#         926
  C:31D0H         LINE#         927
  C:31D7H         LINE#         928
  C:31EBH         LINE#         930
  C:31F0H         LINE#         931
  C:31F8H         LINE#         932
  C:3201H         LINE#         933
BL51 BANKED LINKER/LOCATER V6.22.2.0                                                  12/22/2022  15:38:00  PAGE 55


  C:3207H         LINE#         934
  C:3207H         LINE#         935
  C:3207H         LINE#         938
  C:3219H         LINE#         939
  C:3219H         LINE#         940
  C:322EH         LINE#         941
  C:3236H         LINE#         942
  C:3242H         LINE#         943
  C:3242H         LINE#         944
  C:3256H         LINE#         945
  C:3262H         LINE#         946
  C:3262H         LINE#         947
  C:3267H         LINE#         948
  C:326EH         LINE#         949
  C:3270H         LINE#         950
  C:327EH         LINE#         951
  C:3285H         LINE#         952
  C:3299H         LINE#         953
  C:3299H         LINE#         954
  C:3299H         LINE#         957
  C:32ABH         LINE#         958
  C:32ABH         LINE#         959
  C:32C0H         LINE#         960
  C:32C8H         LINE#         961
  C:32D4H         LINE#         962
  C:32D4H         LINE#         963
  C:32E8H         LINE#         964
  C:32F4H         LINE#         965
  C:32F4H         LINE#         966
  C:3303H         LINE#         967
  C:330AH         LINE#         968
  C:3319H         LINE#         969
  C:3320H         LINE#         970
  C:3334H         LINE#         972
  C:3339H         LINE#         973
  C:3341H         LINE#         974
  C:334AH         LINE#         975
  C:3350H         LINE#         976
  C:3350H         LINE#         977
  C:3350H         LINE#         980
  C:3362H         LINE#         981
  C:3362H         LINE#         982
  C:3377H         LINE#         983
  C:337FH         LINE#         984
  C:338BH         LINE#         985
  C:338BH         LINE#         986
  C:339FH         LINE#         987
  C:33ABH         LINE#         988
  C:33ABH         LINE#         989
  C:33B0H         LINE#         990
  C:33B7H         LINE#         991
  C:33B9H         LINE#         992
  C:33C7H         LINE#         993
  C:33CEH         LINE#         994
  C:33E2H         LINE#         995
  C:33E2H         LINE#         996
  C:33E2H         LINE#         999
BL51 BANKED LINKER/LOCATER V6.22.2.0                                                  12/22/2022  15:38:00  PAGE 56


  C:33F4H         LINE#         1000
  C:33F4H         LINE#         1001
  C:3409H         LINE#         1002
  C:3411H         LINE#         1003
  C:341DH         LINE#         1004
  C:341DH         LINE#         1005
  C:3431H         LINE#         1006
  C:343DH         LINE#         1007
  C:343DH         LINE#         1008
  C:344CH         LINE#         1009
  C:3453H         LINE#         1010
  C:3462H         LINE#         1011
  C:3469H         LINE#         1012
  C:347DH         LINE#         1014
  C:3482H         LINE#         1015
  C:348AH         LINE#         1016
  C:3493H         LINE#         1017
  C:3499H         LINE#         1018
  C:3499H         LINE#         1019
  C:3499H         LINE#         1022
  C:34ABH         LINE#         1023
  C:34ABH         LINE#         1024
  C:34C0H         LINE#         1025
  C:34C8H         LINE#         1026
  C:34D4H         LINE#         1027
  C:34D4H         LINE#         1028
  C:34E8H         LINE#         1029
  C:34F4H         LINE#         1030
  C:34F4H         LINE#         1031
  C:34F9H         LINE#         1032
  C:3500H         LINE#         1033
  C:3502H         LINE#         1034
  C:3510H         LINE#         1035
  C:3517H         LINE#         1036
  C:352BH         LINE#         1037
  C:352BH         LINE#         1038
  C:352BH         LINE#         1041
  C:353DH         LINE#         1042
  C:353DH         LINE#         1043
  C:3552H         LINE#         1044
  C:355AH         LINE#         1045
  C:3566H         LINE#         1046
  C:3566H         LINE#         1047
  C:357AH         LINE#         1048
  C:3586H         LINE#         1049
  C:3586H         LINE#         1050
  C:3595H         LINE#         1051
  C:359CH         LINE#         1052
  C:35ABH         LINE#         1053
  C:35B2H         LINE#         1054
  C:35C6H         LINE#         1056
  C:35CBH         LINE#         1057
  C:35D3H         LINE#         1058
  C:35DCH         LINE#         1059
  C:35E2H         LINE#         1060
  C:35E2H         LINE#         1061
  C:35E2H         LINE#         1064
BL51 BANKED LINKER/LOCATER V6.22.2.0                                                  12/22/2022  15:38:00  PAGE 57


  C:35F4H         LINE#         1065
  C:35F4H         LINE#         1066
  C:3609H         LINE#         1067
  C:3611H         LINE#         1068
  C:361DH         LINE#         1069
  C:361DH         LINE#         1070
  C:3631H         LINE#         1071
  C:363DH         LINE#         1072
  C:363DH         LINE#         1073
  C:3642H         LINE#         1074
  C:3649H         LINE#         1075
  C:364BH         LINE#         1076
  C:3659H         LINE#         1077
  C:3660H         LINE#         1078
  C:3674H         LINE#         1079
  C:3674H         LINE#         1080
  C:3674H         LINE#         1083
  C:3686H         LINE#         1084
  C:3686H         LINE#         1085
  C:369BH         LINE#         1086
  C:36A3H         LINE#         1087
  C:36AFH         LINE#         1088
  C:36AFH         LINE#         1089
  C:36C3H         LINE#         1090
  C:36CFH         LINE#         1091
  C:36CFH         LINE#         1092
  C:36DEH         LINE#         1093
  C:36E5H         LINE#         1094
  C:36F9H         LINE#         1096
  C:36FFH         LINE#         1097
  C:36FFH         LINE#         1098
  C:36FFH         LINE#         1101
  C:3711H         LINE#         1102
  C:3711H         LINE#         1103
  C:3726H         LINE#         1104
  C:372EH         LINE#         1105
  C:373AH         LINE#         1106
  C:373AH         LINE#         1107
  C:374EH         LINE#         1108
  C:375AH         LINE#         1109
  C:375AH         LINE#         1110
  C:3768H         LINE#         1111
  C:376FH         LINE#         1112
  C:3783H         LINE#         1113
  C:3783H         LINE#         1114
  C:3783H         LINE#         1117
  C:3795H         LINE#         1118
  C:3795H         LINE#         1119
  C:37AAH         LINE#         1120
  C:37B2H         LINE#         1121
  C:37BEH         LINE#         1122
  C:37BEH         LINE#         1123
  C:37D2H         LINE#         1124
  C:37DEH         LINE#         1125
  C:37DEH         LINE#         1126
  C:37EDH         LINE#         1127
  C:37F4H         LINE#         1128
BL51 BANKED LINKER/LOCATER V6.22.2.0                                                  12/22/2022  15:38:00  PAGE 58


  C:3808H         LINE#         1130
  C:380EH         LINE#         1131
  C:380EH         LINE#         1132
  C:380EH         LINE#         1135
  C:3820H         LINE#         1136
  C:3820H         LINE#         1137
  C:3835H         LINE#         1138
  C:383DH         LINE#         1139
  C:3849H         LINE#         1140
  C:3849H         LINE#         1141
  C:385DH         LINE#         1142
  C:3869H         LINE#         1143
  C:3869H         LINE#         1144
  C:3877H         LINE#         1145
  C:387EH         LINE#         1146
  C:3892H         LINE#         1147
  C:3892H         LINE#         1148
  C:3892H         LINE#         1151
  C:38A4H         LINE#         1152
  C:38A4H         LINE#         1153
  C:38B9H         LINE#         1154
  C:38C1H         LINE#         1155
  C:38CDH         LINE#         1156
  C:38CDH         LINE#         1157
  C:38E1H         LINE#         1158
  C:38EDH         LINE#         1159
  C:38EDH         LINE#         1160
  C:38FCH         LINE#         1161
  C:3903H         LINE#         1162
  C:3917H         LINE#         1164
  C:391DH         LINE#         1165
  C:391DH         LINE#         1166
  C:391DH         LINE#         1169
  C:392FH         LINE#         1170
  C:392FH         LINE#         1171
  C:3944H         LINE#         1172
  C:394CH         LINE#         1173
  C:3958H         LINE#         1174
  C:3958H         LINE#         1176
  C:396CH         LINE#         1177
  C:3978H         LINE#         1178
  C:3978H         LINE#         1179
  C:3986H         LINE#         1180
  C:398DH         LINE#         1181
  C:39A1H         LINE#         1182
  C:39A1H         LINE#         1183
  C:39A1H         LINE#         1186
  C:39B3H         LINE#         1187
  C:39B3H         LINE#         1188
  C:39C8H         LINE#         1189
  C:39D0H         LINE#         1190
  C:39DCH         LINE#         1191
  C:39DCH         LINE#         1192
  C:39F0H         LINE#         1193
  C:39FCH         LINE#         1194
  C:39FCH         LINE#         1195
  C:3A0BH         LINE#         1196
BL51 BANKED LINKER/LOCATER V6.22.2.0                                                  12/22/2022  15:38:00  PAGE 59


  C:3A12H         LINE#         1197
  C:3A26H         LINE#         1199
  C:3A2CH         LINE#         1200
  C:3A2CH         LINE#         1201
  C:3A2CH         LINE#         1204
  C:3A3EH         LINE#         1205
  C:3A3EH         LINE#         1206
  C:3A53H         LINE#         1207
  C:3A5BH         LINE#         1208
  C:3A67H         LINE#         1209
  C:3A67H         LINE#         1210
  C:3A7BH         LINE#         1211
  C:3A87H         LINE#         1212
  C:3A87H         LINE#         1213
  C:3A95H         LINE#         1214
  C:3A9CH         LINE#         1215
  C:3AB0H         LINE#         1216
  C:3AB0H         LINE#         1217
  C:3AB0H         LINE#         1218
  C:3AB0H         LINE#         1219
  -------         ENDPROC       TOUCH_SCAN_1_2
  -------         PROC          TOUCH_SCAN_6
  -------         DO            
  X:C116H         SYMBOL        i
  -------         ENDDO         
  C:20F7H         LINE#         1221
  C:20F7H         LINE#         1222
  C:20F7H         LINE#         1224
  C:20FEH         LINE#         1227
  C:210FH         LINE#         1228
  C:210FH         LINE#         1229
  C:2124H         LINE#         1230
  C:212CH         LINE#         1231
  C:2138H         LINE#         1232
  C:2138H         LINE#         1233
  C:214CH         LINE#         1234
  C:2158H         LINE#         1235
  C:2158H         LINE#         1236
  C:215FH         LINE#         1237
  C:2169H         LINE#         1238
  C:2171H         LINE#         1240
  C:2181H         LINE#         1241
  C:2188H         LINE#         1242
  C:219CH         LINE#         1243
  C:219CH         LINE#         1244
  C:219CH         LINE#         1247
  C:21AEH         LINE#         1248
  C:21AEH         LINE#         1249
  C:21C3H         LINE#         1250
  C:21CBH         LINE#         1251
  C:21D7H         LINE#         1252
  C:21D7H         LINE#         1253
  C:21EBH         LINE#         1254
  C:21F7H         LINE#         1255
  C:21F7H         LINE#         1256
  C:2206H         LINE#         1257
  C:220DH         LINE#         1258
BL51 BANKED LINKER/LOCATER V6.22.2.0                                                  12/22/2022  15:38:00  PAGE 60


  C:2221H         LINE#         1259
  C:2221H         LINE#         1260
  C:2221H         LINE#         1263
  C:2233H         LINE#         1264
  C:2233H         LINE#         1265
  C:2248H         LINE#         1266
  C:2250H         LINE#         1267
  C:225FH         LINE#         1268
  C:225FH         LINE#         1269
  C:2273H         LINE#         1270
  C:227FH         LINE#         1271
  C:227FH         LINE#         1272
  C:228DH         LINE#         1273
  C:2294H         LINE#         1274
  C:22A8H         LINE#         1276
  C:22AEH         LINE#         1277
  C:22BDH         LINE#         1278
  C:22BDH         LINE#         1280
  C:22C5H         LINE#         1281
  C:22CEH         LINE#         1282
  C:22D0H         LINE#         1284
  C:22D0H         LINE#         1286
  C:22D7H         LINE#         1287
  C:22EBH         LINE#         1288
  C:22EBH         LINE#         1289
  C:22EBH         LINE#         1290
  C:22EBH         LINE#         1293
  C:22FDH         LINE#         1294
  C:22FDH         LINE#         1295
  C:2312H         LINE#         1296
  C:231AH         LINE#         1297
  C:2329H         LINE#         1298
  C:2329H         LINE#         1299
  C:233DH         LINE#         1300
  C:234CH         LINE#         1301
  C:234CH         LINE#         1302
  C:235BH         LINE#         1303
  C:2362H         LINE#         1304
  C:2376H         LINE#         1305
  C:237CH         LINE#         1307
  C:2383H         LINE#         1308
  C:2397H         LINE#         1310
  C:239EH         LINE#         1311
  C:23B2H         LINE#         1312
  C:23B9H         LINE#         1313
  C:23CDH         LINE#         1314
  C:23D4H         LINE#         1315
  C:23E8H         LINE#         1317
  C:23EFH         LINE#         1318
  C:2403H         LINE#         1320
  C:240AH         LINE#         1325
  C:2411H         LINE#         1326
  C:2411H         LINE#         1327
  C:2411H         LINE#         1330
  C:241CH         LINE#         1331
  C:241CH         LINE#         1333
  C:242DH         LINE#         1334
BL51 BANKED LINKER/LOCATER V6.22.2.0                                                  12/22/2022  15:38:00  PAGE 61


  C:242DH         LINE#         1335
  C:2442H         LINE#         1336
  C:244AH         LINE#         1339
  C:2458H         LINE#         1340
  C:2458H         LINE#         1341
  C:246DH         LINE#         1342
  C:2478H         LINE#         1343
  C:247EH         LINE#         1344
  C:247EH         LINE#         1347
  C:2490H         LINE#         1348
  C:2490H         LINE#         1349
  C:24A5H         LINE#         1350
  C:24ADH         LINE#         1351
  C:24BCH         LINE#         1352
  C:24BCH         LINE#         1353
  C:24D0H         LINE#         1354
  C:24DCH         LINE#         1355
  C:24DCH         LINE#         1356
  C:24EBH         LINE#         1357
  C:24F6H         LINE#         1358
  C:2505H         LINE#         1359
  C:250CH         LINE#         1360
  C:2520H         LINE#         1362
  C:2525H         LINE#         1363
  C:252DH         LINE#         1364
  C:2536H         LINE#         1365
  C:253CH         LINE#         1366
  C:253CH         LINE#         1367
  C:253CH         LINE#         1370
  C:254EH         LINE#         1371
  C:254EH         LINE#         1372
  C:2563H         LINE#         1373
  C:256BH         LINE#         1374
  C:2577H         LINE#         1375
  C:2577H         LINE#         1376
  C:258BH         LINE#         1377
  C:2597H         LINE#         1378
  C:2597H         LINE#         1379
  C:259CH         LINE#         1380
  C:25A3H         LINE#         1381
  C:25A5H         LINE#         1382
  C:25B3H         LINE#         1383
  C:25BAH         LINE#         1384
  C:25CEH         LINE#         1385
  C:25CEH         LINE#         1386
  C:25CEH         LINE#         1389
  C:25E0H         LINE#         1390
  C:25E0H         LINE#         1391
  C:25F5H         LINE#         1392
  C:25FDH         LINE#         1393
  C:260CH         LINE#         1394
  C:260CH         LINE#         1395
  C:2620H         LINE#         1396
  C:262CH         LINE#         1397
  C:262CH         LINE#         1398
  C:263BH         LINE#         1399
  C:2646H         LINE#         1400
BL51 BANKED LINKER/LOCATER V6.22.2.0                                                  12/22/2022  15:38:00  PAGE 62


  C:2655H         LINE#         1401
  C:265CH         LINE#         1402
  C:2670H         LINE#         1404
  C:2675H         LINE#         1405
  C:267DH         LINE#         1406
  C:2686H         LINE#         1407
  C:268CH         LINE#         1408
  C:268CH         LINE#         1409
  C:268CH         LINE#         1412
  C:269EH         LINE#         1413
  C:269EH         LINE#         1414
  C:26B3H         LINE#         1415
  C:26BBH         LINE#         1416
  C:26C7H         LINE#         1417
  C:26C7H         LINE#         1418
  C:26DBH         LINE#         1419
  C:26E7H         LINE#         1420
  C:26E7H         LINE#         1421
  C:26ECH         LINE#         1422
  C:26F3H         LINE#         1423
  C:26F5H         LINE#         1424
  C:2703H         LINE#         1425
  C:270AH         LINE#         1426
  C:271EH         LINE#         1427
  C:271EH         LINE#         1428
  C:271EH         LINE#         1431
  C:2730H         LINE#         1432
  C:2730H         LINE#         1433
  C:2745H         LINE#         1434
  C:274DH         LINE#         1435
  C:275CH         LINE#         1436
  C:275CH         LINE#         1437
  C:2770H         LINE#         1438
  C:277CH         LINE#         1439
  C:277CH         LINE#         1440
  C:278BH         LINE#         1441
  C:2796H         LINE#         1442
  C:27A5H         LINE#         1443
  C:27ACH         LINE#         1444
  C:27C0H         LINE#         1446
  C:27C5H         LINE#         1447
  C:27CDH         LINE#         1448
  C:27D6H         LINE#         1449
  C:27DCH         LINE#         1450
  C:27DCH         LINE#         1451
  C:27DCH         LINE#         1454
  C:27EEH         LINE#         1455
  C:27EEH         LINE#         1456
  C:2803H         LINE#         1457
  C:280BH         LINE#         1458
  C:2817H         LINE#         1459
  C:2817H         LINE#         1460
  C:282BH         LINE#         1461
  C:2837H         LINE#         1462
  C:2837H         LINE#         1463
  C:283CH         LINE#         1464
  C:2843H         LINE#         1465
BL51 BANKED LINKER/LOCATER V6.22.2.0                                                  12/22/2022  15:38:00  PAGE 63


  C:2845H         LINE#         1466
  C:2853H         LINE#         1467
  C:285AH         LINE#         1468
  C:286EH         LINE#         1469
  C:286EH         LINE#         1470
  C:286EH         LINE#         1473
  C:2880H         LINE#         1474
  C:2880H         LINE#         1475
  C:2895H         LINE#         1476
  C:289DH         LINE#         1477
  C:28ACH         LINE#         1478
  C:28ACH         LINE#         1479
  C:28C0H         LINE#         1480
  C:28CCH         LINE#         1481
  C:28CCH         LINE#         1482
  C:28DBH         LINE#         1483
  C:28E6H         LINE#         1484
  C:28F5H         LINE#         1485
  C:28FCH         LINE#         1486
  C:2910H         LINE#         1488
  C:2915H         LINE#         1489
  C:291DH         LINE#         1490
  C:2926H         LINE#         1491
  C:292CH         LINE#         1492
  C:292CH         LINE#         1493
  C:292CH         LINE#         1496
  C:293EH         LINE#         1497
  C:293EH         LINE#         1498
  C:2953H         LINE#         1499
  C:295BH         LINE#         1500
  C:2967H         LINE#         1501
  C:2967H         LINE#         1502
  C:297BH         LINE#         1503
  C:2987H         LINE#         1504
  C:2987H         LINE#         1505
  C:298CH         LINE#         1506
  C:2993H         LINE#         1507
  C:2995H         LINE#         1508
  C:29A3H         LINE#         1509
  C:29AAH         LINE#         1510
  C:29BEH         LINE#         1511
  C:29BEH         LINE#         1512
  C:29BEH         LINE#         1515
  C:29D0H         LINE#         1516
  C:29D0H         LINE#         1517
  C:29E5H         LINE#         1518
  C:29EDH         LINE#         1519
  C:29F9H         LINE#         1520
  C:29F9H         LINE#         1521
  C:2A0DH         LINE#         1522
  C:2A19H         LINE#         1523
  C:2A19H         LINE#         1524
  C:2A28H         LINE#         1525
  C:2A2FH         LINE#         1526
  C:2A43H         LINE#         1528
  C:2A49H         LINE#         1529
  C:2A49H         LINE#         1530
BL51 BANKED LINKER/LOCATER V6.22.2.0                                                  12/22/2022  15:38:00  PAGE 64


  C:2A49H         LINE#         1533
  C:2A5BH         LINE#         1534
  C:2A5BH         LINE#         1535
  C:2A70H         LINE#         1536
  C:2A78H         LINE#         1537
  C:2A84H         LINE#         1538
  C:2A84H         LINE#         1539
  C:2A98H         LINE#         1540
  C:2AA4H         LINE#         1541
  C:2AA4H         LINE#         1542
  C:2AB2H         LINE#         1543
  C:2AB9H         LINE#         1544
  C:2ACDH         LINE#         1545
  C:2ACDH         LINE#         1546
  C:2ACDH         LINE#         1549
  C:2ADFH         LINE#         1550
  C:2ADFH         LINE#         1551
  C:2AF4H         LINE#         1552
  C:2AFCH         LINE#         1553
  C:2B08H         LINE#         1554
  C:2B08H         LINE#         1555
  C:2B1CH         LINE#         1556
  C:2B28H         LINE#         1557
  C:2B28H         LINE#         1558
  C:2B37H         LINE#         1559
  C:2B3EH         LINE#         1560
  C:2B52H         LINE#         1562
  C:2B58H         LINE#         1563
  C:2B58H         LINE#         1564
  C:2B58H         LINE#         1567
  C:2B6AH         LINE#         1568
  C:2B6AH         LINE#         1569
  C:2B7FH         LINE#         1570
  C:2B87H         LINE#         1571
  C:2B93H         LINE#         1572
  C:2B93H         LINE#         1573
  C:2BA7H         LINE#         1574
  C:2BB3H         LINE#         1575
  C:2BB3H         LINE#         1576
  C:2BC1H         LINE#         1577
  C:2BC8H         LINE#         1578
  C:2BDCH         LINE#         1579
  C:2BDCH         LINE#         1580
  C:2BDCH         LINE#         1583
  C:2BEEH         LINE#         1584
  C:2BEEH         LINE#         1585
  C:2C03H         LINE#         1586
  C:2C0BH         LINE#         1587
  C:2C17H         LINE#         1588
  C:2C17H         LINE#         1589
  C:2C2BH         LINE#         1590
  C:2C37H         LINE#         1591
  C:2C37H         LINE#         1592
  C:2C46H         LINE#         1593
  C:2C4DH         LINE#         1594
  C:2C61H         LINE#         1596
  C:2C67H         LINE#         1597
BL51 BANKED LINKER/LOCATER V6.22.2.0                                                  12/22/2022  15:38:00  PAGE 65


  C:2C67H         LINE#         1598
  C:2C67H         LINE#         1601
  C:2C79H         LINE#         1602
  C:2C79H         LINE#         1603
  C:2C8EH         LINE#         1604
  C:2C96H         LINE#         1605
  C:2CA2H         LINE#         1606
  C:2CA2H         LINE#         1608
  C:2CB6H         LINE#         1609
  C:2CC2H         LINE#         1610
  C:2CC2H         LINE#         1611
  C:2CD0H         LINE#         1612
  C:2CD7H         LINE#         1613
  C:2CEBH         LINE#         1614
  C:2CEBH         LINE#         1615
  C:2CEBH         LINE#         1618
  C:2CFDH         LINE#         1619
  C:2CFDH         LINE#         1620
  C:2D12H         LINE#         1621
  C:2D1AH         LINE#         1622
  C:2D26H         LINE#         1623
  C:2D26H         LINE#         1624
  C:2D3AH         LINE#         1625
  C:2D46H         LINE#         1626
  C:2D46H         LINE#         1627
  C:2D55H         LINE#         1628
  C:2D5CH         LINE#         1629
  C:2D70H         LINE#         1631
  C:2D76H         LINE#         1632
  C:2D76H         LINE#         1633
  C:2D76H         LINE#         1636
  C:2D88H         LINE#         1637
  C:2D88H         LINE#         1638
  C:2D9DH         LINE#         1639
  C:2DA5H         LINE#         1640
  C:2DB1H         LINE#         1641
  C:2DB1H         LINE#         1642
  C:2DC5H         LINE#         1643
  C:2DD1H         LINE#         1644
  C:2DD1H         LINE#         1645
  C:2DDFH         LINE#         1646
  C:2DE6H         LINE#         1647
  C:2DFAH         LINE#         1648
  C:2DFAH         LINE#         1649
  C:2DFAH         LINE#         1650
  C:2DFAH         LINE#         1651
  -------         ENDPROC       TOUCH_SCAN_6
  -------         PROC          TOUCH_SCAN_10_12
  -------         DO            
  X:C116H         SYMBOL        i
  -------         ENDDO         
  C:77D2H         LINE#         1653
  C:77D2H         LINE#         1654
  C:77D2H         LINE#         1657
  C:77E4H         LINE#         1658
  C:77E4H         LINE#         1659
  C:77F9H         LINE#         1660
BL51 BANKED LINKER/LOCATER V6.22.2.0                                                  12/22/2022  15:38:00  PAGE 66


  C:7801H         LINE#         1661
  C:7818H         LINE#         1662
  C:7818H         LINE#         1663
  C:782DH         LINE#         1664
  C:7847H         LINE#         1665
  C:7847H         LINE#         1667
  C:784DH         LINE#         1668
  C:784DH         LINE#         1669
  C:7855H         LINE#         1670
  C:7875H         LINE#         1671
  C:787CH         LINE#         1672
  C:7887H         LINE#         1673
  C:788AH         LINE#         1674
  C:7896H         LINE#         1675
  C:7896H         LINE#         1676
  C:789EH         LINE#         1677
  C:78BEH         LINE#         1679
  C:78C5H         LINE#         1680
  C:78D0H         LINE#         1681
  C:78D3H         LINE#         1682
  C:78DFH         LINE#         1683
  C:78DFH         LINE#         1684
  C:78E7H         LINE#         1685
  C:7907H         LINE#         1687
  C:790EH         LINE#         1688
  C:7919H         LINE#         1689
  C:791CH         LINE#         1690
  C:7928H         LINE#         1691
  C:7928H         LINE#         1692
  C:7930H         LINE#         1693
  C:7950H         LINE#         1695
  C:7957H         LINE#         1696
  C:7962H         LINE#         1697
  C:7965H         LINE#         1698
  C:7971H         LINE#         1699
  C:7971H         LINE#         1700
  C:7979H         LINE#         1701
  C:7999H         LINE#         1703
  C:79A0H         LINE#         1704
  C:79ABH         LINE#         1705
  C:79ADH         LINE#         1706
  C:79B9H         LINE#         1707
  C:79B9H         LINE#         1708
  C:79C1H         LINE#         1709
  C:79E1H         LINE#         1711
  C:79E8H         LINE#         1712
  C:79F9H         LINE#         1713
  C:79F9H         LINE#         1715
  C:7A0EH         LINE#         1716
  C:7A0EH         LINE#         1717
  C:7A0EH         LINE#         1718
  -------         ENDPROC       TOUCH_SCAN_10_12
  -------         PROC          TOUCH_SCAN_13
  -------         DO            
  X:C116H         SYMBOL        i
  -------         ENDDO         
  C:801EH         LINE#         1747
BL51 BANKED LINKER/LOCATER V6.22.2.0                                                  12/22/2022  15:38:00  PAGE 67


  C:801EH         LINE#         1748
  C:801EH         LINE#         1750
  C:802DH         LINE#         1751
  C:802DH         LINE#         1752
  C:803EH         LINE#         1753
  C:803EH         LINE#         1754
  C:8053H         LINE#         1755
  C:805BH         LINE#         1756
  C:8060H         LINE#         1758
  C:8076H         LINE#         1759
  C:8076H         LINE#         1760
  C:807CH         LINE#         1761
  C:807DH         LINE#         1762
  C:807FH         LINE#         1763
  C:8098H         LINE#         1764
  C:8098H         LINE#         1765
  C:809FH         LINE#         1766
  C:80A1H         LINE#         1767
  C:80A3H         LINE#         1768
  C:80BCH         LINE#         1769
  C:80BCH         LINE#         1770
  C:80C3H         LINE#         1771
  C:80D8H         LINE#         1772
  C:80D8H         LINE#         1774
  C:80DFH         LINE#         1775
  C:80DFH         LINE#         1777
  C:80F1H         LINE#         1778
  C:80F1H         LINE#         1779
  C:8106H         LINE#         1780
  C:810EH         LINE#         1781
  C:811DH         LINE#         1782
  C:811DH         LINE#         1783
  C:8131H         LINE#         1784
  C:8140H         LINE#         1785
  C:8140H         LINE#         1787
  C:8154H         LINE#         1788
  C:815EH         LINE#         1789
  C:815EH         LINE#         1790
  C:815EH         LINE#         1791
  C:8160H         LINE#         1792
  C:816CH         LINE#         1793
  C:816CH         LINE#         1794
  C:8180H         LINE#         1795
  C:8180H         LINE#         1797
  C:8195H         LINE#         1798
  C:81A1H         LINE#         1799
  C:81A1H         LINE#         1800
  C:81A3H         LINE#         1801
  C:81A3H         LINE#         1802
  C:81A5H         LINE#         1803
  C:81B1H         LINE#         1804
  C:81B1H         LINE#         1805
  C:81B3H         LINE#         1806
  C:81B3H         LINE#         1807
  C:81B5H         LINE#         1808
  C:81C1H         LINE#         1809
  C:81C1H         LINE#         1810
BL51 BANKED LINKER/LOCATER V6.22.2.0                                                  12/22/2022  15:38:00  PAGE 68


  C:81C9H         LINE#         1811
  C:81DEH         LINE#         1812
  C:81DEH         LINE#         1814
  C:81E5H         LINE#         1815
  C:81F9H         LINE#         1816
  C:81F9H         LINE#         1817
  C:81F9H         LINE#         1818
  -------         ENDPROC       TOUCH_SCAN_13
  -------         PROC          TOUCH_SCAN_14
  -------         DO            
  X:C116H         SYMBOL        i
  -------         ENDDO         
  C:A708H         LINE#         1820
  C:A708H         LINE#         1821
  C:A708H         LINE#         1824
  C:A71AH         LINE#         1825
  C:A71AH         LINE#         1826
  C:A72FH         LINE#         1827
  C:A737H         LINE#         1828
  C:A743H         LINE#         1829
  C:A743H         LINE#         1830
  C:A757H         LINE#         1831
  C:A763H         LINE#         1832
  C:A763H         LINE#         1833
  C:A766H         LINE#         1834
  C:A76DH         LINE#         1835
  C:A774H         LINE#         1836
  C:A788H         LINE#         1837
  C:A788H         LINE#         1838
  C:A788H         LINE#         1839
  -------         ENDPROC       TOUCH_SCAN_14
  -------         PROC          TOUCH_SCAN_16
  -------         DO            
  X:C116H         SYMBOL        i
  -------         ENDDO         
  C:95CAH         LINE#         1841
  C:95CAH         LINE#         1842
  C:95CAH         LINE#         1845
  C:95DCH         LINE#         1846
  C:95DCH         LINE#         1847
  C:95F1H         LINE#         1848
  C:95F9H         LINE#         1849
  C:9608H         LINE#         1850
  C:9608H         LINE#         1851
  C:961CH         LINE#         1852
  C:962BH         LINE#         1853
  C:962BH         LINE#         1854
  C:963FH         LINE#         1855
  C:9654H         LINE#         1856
  C:9669H         LINE#         1857
  C:967EH         LINE#         1859
  C:96AEH         LINE#         1860
  C:96AEH         LINE#         1861
  C:96B4H         LINE#         1862
  C:96B4H         LINE#         1863
  C:96B4H         LINE#         1864
  C:96B4H         LINE#         1865
BL51 BANKED LINKER/LOCATER V6.22.2.0                                                  12/22/2022  15:38:00  PAGE 69


  -------         ENDPROC       TOUCH_SCAN_16
  -------         PROC          COORDINATE_CONTROL
  C:6887H         LINE#         1894
  C:6887H         LINE#         1895
  C:6887H         LINE#         1896
  C:689DH         LINE#         1897
  C:68B8H         LINE#         1898
  C:68BEH         LINE#         1899
  C:68BEH         LINE#         1900
  C:68C9H         LINE#         1901
  C:68C9H         LINE#         1902
  C:68DCH         LINE#         1903
  C:68EFH         LINE#         1905
  C:690EH         LINE#         1906
  C:690EH         LINE#         1908
  C:6930H         LINE#         1909
  C:6930H         LINE#         1910
  C:6930H         LINE#         1911
  C:6930H         LINE#         1913
  C:6930H         LINE#         1914
  C:6930H         LINE#         1915
  C:6933H         LINE#         1917
  C:6958H         LINE#         1918
  C:6958H         LINE#         1919
  C:6958H         LINE#         1920
  C:6958H         LINE#         1922
  C:6958H         LINE#         1923
  C:6958H         LINE#         1924
  C:695BH         LINE#         1925
  C:6980H         LINE#         1926
  C:6980H         LINE#         1927
  C:6980H         LINE#         1928
  C:6980H         LINE#         1930
  C:6980H         LINE#         1931
  C:6980H         LINE#         1932
  C:6983H         LINE#         1933
  C:69A8H         LINE#         1934
  C:69A8H         LINE#         1935
  C:69A8H         LINE#         1936
  C:69A8H         LINE#         1938
  C:69A8H         LINE#         1939
  C:69A8H         LINE#         1940
  C:69AAH         LINE#         1941
  C:69CFH         LINE#         1942
  C:69CFH         LINE#         1943
  C:69CFH         LINE#         1944
  C:69CFH         LINE#         1946
  C:69CFH         LINE#         1947
  C:69CFH         LINE#         1948
  C:69D1H         LINE#         1949
  C:69F6H         LINE#         1950
  C:69F6H         LINE#         1951
  C:69F6H         LINE#         1952
  C:69F6H         LINE#         1954
  C:69F6H         LINE#         1955
  C:69F6H         LINE#         1956
  C:69F8H         LINE#         1957
BL51 BANKED LINKER/LOCATER V6.22.2.0                                                  12/22/2022  15:38:00  PAGE 70


  C:6A26H         LINE#         1958
  C:6A26H         LINE#         1959
  C:6A30H         LINE#         1960
  C:6A50H         LINE#         1962
  C:6A57H         LINE#         1963
  C:6A5EH         LINE#         1964
  C:6A5EH         LINE#         1965
  C:6A61H         LINE#         1966
  C:6A7FH         LINE#         1967
  C:6A7FH         LINE#         1969
  C:6AA1H         LINE#         1970
  C:6AA1H         LINE#         1971
  C:6AA1H         LINE#         1972
  C:6AA1H         LINE#         1973
  C:6AA1H         LINE#         1974
  C:6AA1H         LINE#         1975
  C:6AA4H         LINE#         1977
  C:6AC9H         LINE#         1978
  C:6AC9H         LINE#         1979
  C:6AD1H         LINE#         1980
  C:6AF0H         LINE#         1982
  C:6AF2H         LINE#         1983
  C:6AF2H         LINE#         1984
  C:6AF5H         LINE#         1985
  C:6B1AH         LINE#         1986
  C:6B1AH         LINE#         1987
  C:6B22H         LINE#         1988
  C:6B41H         LINE#         1989
  C:6B43H         LINE#         1990
  C:6B43H         LINE#         1991
  C:6B46H         LINE#         1992
  C:6B6BH         LINE#         1993
  C:6B6BH         LINE#         1994
  C:6B73H         LINE#         1995
  C:6B92H         LINE#         1996
  C:6B94H         LINE#         1997
  C:6B94H         LINE#         1998
  C:6B97H         LINE#         1999
  C:6BBCH         LINE#         2000
  C:6BBCH         LINE#         2001
  C:6BC4H         LINE#         2002
  C:6BE3H         LINE#         2003
  C:6BE5H         LINE#         2004
  C:6BE5H         LINE#         2005
  C:6BE8H         LINE#         2006
  C:6C0DH         LINE#         2007
  C:6C0DH         LINE#         2008
  C:6C15H         LINE#         2009
  C:6C34H         LINE#         2010
  C:6C36H         LINE#         2011
  C:6C36H         LINE#         2012
  C:6C38H         LINE#         2013
  C:6C5DH         LINE#         2014
  C:6C5DH         LINE#         2015
  C:6C65H         LINE#         2016
  C:6C84H         LINE#         2017
  C:6C89H         LINE#         2018
BL51 BANKED LINKER/LOCATER V6.22.2.0                                                  12/22/2022  15:38:00  PAGE 71


  C:6C90H         LINE#         2019
  C:6C90H         LINE#         2020
  C:6C90H         LINE#         2026
  C:6C90H         LINE#         2027
  C:6CA3H         LINE#         2028
  C:6CA3H         LINE#         2030
  C:6CA3H         LINE#         2031
  C:6CA3H         LINE#         2032
  -------         ENDPROC       COORDINATE_CONTROL
  -------         PROC          FILE_CONTROL
  -------         DO            
  X:C116H         SYMBOL        i
  -------         ENDDO         
  C:3AB1H         LINE#         2035
  C:3AB1H         LINE#         2036
  C:3AB1H         LINE#         2039
  C:3AC0H         LINE#         2040
  C:3AC0H         LINE#         2042
  C:3AE8H         LINE#         2043
  C:3AE8H         LINE#         2049
  C:3AF2H         LINE#         2050
  C:3AF2H         LINE#         2052
  C:3AFCH         LINE#         2053
  C:3B0DH         LINE#         2054
  C:3B0DH         LINE#         2056
  C:3B1FH         LINE#         2057
  C:3B1FH         LINE#         2058
  C:3B43H         LINE#         2059
  C:3B43H         LINE#         2060
  C:3B7FH         LINE#         2061
  C:3B7FH         LINE#         2062
  C:3B7FH         LINE#         2063
  C:3B7FH         LINE#         2065
  C:3B8DH         LINE#         2066
  C:3B97H         LINE#         2067
  C:3BBBH         LINE#         2068
  C:3BC9H         LINE#         2069
  C:3BDBH         LINE#         2070
  C:3BDBH         LINE#         2071
  C:3BDBH         LINE#         2072
  C:3BDBH         LINE#         2073
  C:3BDBH         LINE#         2074
  C:3BDBH         LINE#         2075
  C:3BDEH         LINE#         2076
  C:3BDEH         LINE#         2077
  C:3BDEH         LINE#         2079
  C:3BECH         LINE#         2080
  C:3BF5H         LINE#         2081
  C:3C19H         LINE#         2082
  C:3C27H         LINE#         2083
  C:3C39H         LINE#         2084
  C:3C39H         LINE#         2085
  C:3C39H         LINE#         2086
  C:3C39H         LINE#         2087
  C:3C39H         LINE#         2088
  C:3C39H         LINE#         2089
  C:3C3CH         LINE#         2091
BL51 BANKED LINKER/LOCATER V6.22.2.0                                                  12/22/2022  15:38:00  PAGE 72


  C:3C3CH         LINE#         2092
  C:3C3CH         LINE#         2094
  C:3C4AH         LINE#         2095
  C:3C54H         LINE#         2096
  C:3C78H         LINE#         2097
  C:3C86H         LINE#         2098
  C:3C98H         LINE#         2099
  C:3C98H         LINE#         2100
  C:3C98H         LINE#         2101
  C:3C98H         LINE#         2102
  C:3C98H         LINE#         2103
  C:3C98H         LINE#         2104
  C:3C9BH         LINE#         2105
  C:3C9BH         LINE#         2106
  C:3C9BH         LINE#         2108
  C:3CA9H         LINE#         2109
  C:3CB3H         LINE#         2110
  C:3CD7H         LINE#         2111
  C:3CE5H         LINE#         2112
  C:3CF7H         LINE#         2113
  C:3CF7H         LINE#         2114
  C:3CF7H         LINE#         2115
  C:3CF7H         LINE#         2116
  C:3CF7H         LINE#         2117
  C:3CF7H         LINE#         2118
  C:3CFAH         LINE#         2119
  C:3CFAH         LINE#         2120
  C:3CFAH         LINE#         2122
  C:3D08H         LINE#         2123
  C:3D12H         LINE#         2124
  C:3D36H         LINE#         2125
  C:3D44H         LINE#         2126
  C:3D56H         LINE#         2127
  C:3D56H         LINE#         2128
  C:3D56H         LINE#         2129
  C:3D56H         LINE#         2130
  C:3D56H         LINE#         2131
  C:3D56H         LINE#         2132
  C:3D59H         LINE#         2133
  C:3D59H         LINE#         2134
  C:3D59H         LINE#         2136
  C:3D67H         LINE#         2137
  C:3D71H         LINE#         2138
  C:3D95H         LINE#         2139
  C:3DA3H         LINE#         2140
  C:3DB5H         LINE#         2141
  C:3DB5H         LINE#         2142
  C:3DB5H         LINE#         2143
  C:3DB5H         LINE#         2144
  C:3DB5H         LINE#         2145
  C:3DB5H         LINE#         2146
  C:3DB8H         LINE#         2147
  C:3DB8H         LINE#         2148
  C:3DB8H         LINE#         2150
  C:3DC6H         LINE#         2151
  C:3DD0H         LINE#         2152
  C:3DF4H         LINE#         2153
BL51 BANKED LINKER/LOCATER V6.22.2.0                                                  12/22/2022  15:38:00  PAGE 73


  C:3E02H         LINE#         2154
  C:3E14H         LINE#         2155
  C:3E14H         LINE#         2156
  C:3E14H         LINE#         2157
  C:3E14H         LINE#         2158
  C:3E14H         LINE#         2159
  C:3E14H         LINE#         2160
  C:3E17H         LINE#         2161
  C:3E17H         LINE#         2162
  C:3E17H         LINE#         2163
  C:3E24H         LINE#         2165
  C:3E32H         LINE#         2166
  C:3E41H         LINE#         2167
  C:3E41H         LINE#         2168
  C:3E47H         LINE#         2170
  C:3E47H         LINE#         2172
  C:3E4EH         LINE#         2173
  C:3E52H         LINE#         2175
  C:3E58H         LINE#         2176
  C:3E58H         LINE#         2177
  C:3E5BH         LINE#         2178
  C:3E5BH         LINE#         2179
  C:3E5BH         LINE#         2180
  C:3E8BH         LINE#         2181
  C:3E8BH         LINE#         2182
  C:3EA0H         LINE#         2183
  C:3EA0H         LINE#         2184
  C:3EADH         LINE#         2186
  C:3EBBH         LINE#         2187
  C:3ECAH         LINE#         2188
  C:3ECAH         LINE#         2189
  C:3ED0H         LINE#         2191
  C:3ED0H         LINE#         2193
  C:3ED7H         LINE#         2194
  C:3EDBH         LINE#         2196
  C:3EE1H         LINE#         2197
  C:3EE1H         LINE#         2199
  C:3F1CH         LINE#         2200
  C:3F1CH         LINE#         2201
  C:3F1CH         LINE#         2202
  C:3F1CH         LINE#         2204
  C:3F2AH         LINE#         2205
  C:3F34H         LINE#         2206
  C:3F58H         LINE#         2207
  C:3F66H         LINE#         2208
  C:3F78H         LINE#         2209
  C:3F78H         LINE#         2210
  C:3F7CH         LINE#         2211
  C:3F84H         LINE#         2212
  C:3F84H         LINE#         2213
  C:3F84H         LINE#         2214
  C:3F87H         LINE#         2215
  C:3F87H         LINE#         2216
  C:3F87H         LINE#         2218
  C:3F95H         LINE#         2219
  C:3F9EH         LINE#         2220
  C:3FC2H         LINE#         2221
BL51 BANKED LINKER/LOCATER V6.22.2.0                                                  12/22/2022  15:38:00  PAGE 74


  C:3FD0H         LINE#         2222
  C:3FE2H         LINE#         2223
  C:3FE2H         LINE#         2224
  C:3FE6H         LINE#         2225
  C:3FEEH         LINE#         2226
  C:3FEEH         LINE#         2227
  C:3FEEH         LINE#         2228
  C:3FF1H         LINE#         2229
  C:3FF1H         LINE#         2230
  C:3FF1H         LINE#         2232
  C:3FFFH         LINE#         2233
  C:4009H         LINE#         2234
  C:402DH         LINE#         2235
  C:403BH         LINE#         2236
  C:404DH         LINE#         2237
  C:404DH         LINE#         2238
  C:4051H         LINE#         2239
  C:4059H         LINE#         2240
  C:4059H         LINE#         2241
  C:4059H         LINE#         2242
  C:405CH         LINE#         2243
  C:405CH         LINE#         2244
  C:405CH         LINE#         2246
  C:406AH         LINE#         2247
  C:4074H         LINE#         2248
  C:4098H         LINE#         2249
  C:40A6H         LINE#         2250
  C:40B8H         LINE#         2251
  C:40B8H         LINE#         2252
  C:40BCH         LINE#         2253
  C:40C4H         LINE#         2254
  C:40C4H         LINE#         2255
  C:40C4H         LINE#         2256
  C:40C7H         LINE#         2257
  C:40C7H         LINE#         2258
  C:40C7H         LINE#         2260
  C:40D5H         LINE#         2261
  C:40DFH         LINE#         2262
  C:4103H         LINE#         2263
  C:4111H         LINE#         2264
  C:4123H         LINE#         2265
  C:4123H         LINE#         2266
  C:4127H         LINE#         2267
  C:412FH         LINE#         2268
  C:412FH         LINE#         2269
  C:412FH         LINE#         2270
  C:4132H         LINE#         2271
  C:4132H         LINE#         2272
  C:4132H         LINE#         2274
  C:4140H         LINE#         2275
  C:414AH         LINE#         2276
  C:416EH         LINE#         2277
  C:417CH         LINE#         2278
  C:418BH         LINE#         2279
  C:418BH         LINE#         2280
  C:418FH         LINE#         2281
  C:4197H         LINE#         2282
BL51 BANKED LINKER/LOCATER V6.22.2.0                                                  12/22/2022  15:38:00  PAGE 75


  C:4197H         LINE#         2283
  C:4197H         LINE#         2284
  C:4199H         LINE#         2285
  C:4199H         LINE#         2286
  C:4199H         LINE#         2288
  C:41A7H         LINE#         2289
  C:41B1H         LINE#         2290
  C:41D5H         LINE#         2291
  C:41E3H         LINE#         2292
  C:41F2H         LINE#         2293
  C:41F2H         LINE#         2294
  C:41F6H         LINE#         2295
  C:41FEH         LINE#         2296
  C:41FEH         LINE#         2297
  C:41FEH         LINE#         2298
  C:41FEH         LINE#         2299
  C:41FEH         LINE#         2300
  C:41FEH         LINE#         2302
  C:420BH         LINE#         2303
  C:420BH         LINE#         2304
  C:4220H         LINE#         2305
  C:4220H         LINE#         2306
  C:4239H         LINE#         2307
  C:4239H         LINE#         2308
  C:4240H         LINE#         2309
  C:4259H         LINE#         2311
  C:4275H         LINE#         2312
  C:427DH         LINE#         2313
  C:4297H         LINE#         2314
  C:4297H         LINE#         2315
  C:429FH         LINE#         2316
  C:42B8H         LINE#         2317
  C:42C0H         LINE#         2318
  C:42CDH         LINE#         2319
  C:42CDH         LINE#         2320
  C:42CDH         LINE#         2321
  C:42CEH         LINE#         2323
  C:42CEH         LINE#         2324
  C:42DAH         LINE#         2325
  C:42DAH         LINE#         2327
  C:42ECH         LINE#         2328
  C:42ECH         LINE#         2329
  C:42F4H         LINE#         2330
  C:430DH         LINE#         2332
  C:4329H         LINE#         2333
  C:4331H         LINE#         2335
  C:4338H         LINE#         2336
  C:4338H         LINE#         2337
  C:4338H         LINE#         2338
  C:4338H         LINE#         2339
  C:4338H         LINE#         2340
  -------         ENDPROC       FILE_CONTROL
  -------         ENDMOD        UI

  -------         MODULE        DWIN8283
  C:0000H         SYMBOL        _ICE_DUMMY_
  C:8D18H         PUBLIC        Pro8283Deal
BL51 BANKED LINKER/LOCATER V6.22.2.0                                                  12/22/2022  15:38:00  PAGE 76


  X:BC2DH         PUBLIC        DwinFrame
  C:A479H         PUBLIC        AutoUploadValue
  B:00A8H.7       PUBLIC        EA
  X:BC43H         PUBLIC        DataBuf
  C:9CAFH         PUBLIC        Pro8283Init
  X:BD47H         PUBLIC        SendTmp
  C:B431H         SYMBOL        _?ix1000
  C:634BH         PUBLIC        _Pro8283RxTreat
  -------         PROC          PRO8283INIT
  -------         DO            
  X:C114H         SYMBOL        buf
  X:C116H         SYMBOL        baud
  X:C11AH         SYMBOL        CanReg
  -------         ENDDO         
  C:9CAFH         LINE#         20
  C:9CAFH         LINE#         21
  C:9CAFH         LINE#         24
  C:9CC2H         LINE#         26
  C:9CD8H         LINE#         27
  C:9CFBH         LINE#         30
  C:9D14H         LINE#         31
  C:9D1DH         LINE#         33
  C:9D2BH         LINE#         34
  C:9D37H         LINE#         35
  C:9D43H         LINE#         36
  C:9D4AH         LINE#         38
  C:9D57H         LINE#         39
  C:9D62H         LINE#         40
  C:9D6DH         LINE#         41
  C:9D74H         LINE#         42
  -------         ENDPROC       PRO8283INIT
  -------         PROC          AUTOUPLOADVALUE
  -------         DO            
  D:0002H         SYMBOL        address
  D:0005H         SYMBOL        len
  -------         ENDDO         
  C:A479H         LINE#         76
  C:A479H         LINE#         77
  C:A479H         LINE#         82
  C:A48FH         LINE#         83
  C:A497H         LINE#         84
  C:A497H         LINE#         85
  C:A498H         LINE#         86
  C:A4ADH         LINE#         87
  C:A4B2H         LINE#         88
  C:A4BBH         LINE#         89
  C:A4BDH         LINE#         90
  C:A4C7H         LINE#         91
  C:A4CDH         LINE#         92
  C:A4D1H         LINE#         93
  C:A4D8H         LINE#         94
  C:A4DCH         LINE#         95
  C:A4DFH         LINE#         96
  C:A4E2H         LINE#         97
  C:A4E5H         LINE#         98
  C:A4FAH         LINE#         104
  C:A4FDH         LINE#         105
BL51 BANKED LINKER/LOCATER V6.22.2.0                                                  12/22/2022  15:38:00  PAGE 77


  C:A4FDH         LINE#         106
  C:A4FFH         LINE#         107
  -------         ENDPROC       AUTOUPLOADVALUE
  -------         PROC          _PRO8283RXTREAT
  X:C114H         SYMBOL        pBuf
  -------         DO            
  X:C117H         SYMBOL        len
  X:C119H         SYMBOL        len1
  X:C11BH         SYMBOL        i
  X:C11DH         SYMBOL        tmp16
  X:C11FH         SYMBOL        headtmp
  X:C121H         SYMBOL        tailtmp
  -------         ENDDO         
  C:634BH         LINE#         110
  C:6356H         LINE#         111
  C:6356H         LINE#         116
  C:6358H         LINE#         117
  C:636CH         LINE#         118
  C:636EH         LINE#         119
  C:638FH         LINE#         120
  C:638FH         LINE#         121
  C:63A7H         LINE#         122
  C:63A7H         LINE#         123
  C:63C6H         LINE#         124
  C:63C8H         LINE#         126
  C:63C8H         LINE#         127
  C:63E6H         LINE#         128
  C:63E6H         LINE#         129
  C:63F5H         LINE#         130
  C:63F8H         LINE#         131
  C:642DH         LINE#         132
  C:6436H         LINE#         133
  C:6444H         LINE#         134
  C:645EH         LINE#         135
  C:645EH         LINE#         136
  C:6465H         LINE#         137
  C:6465H         LINE#         138
  C:6489H         LINE#         139
  C:6495H         LINE#         140
  C:6495H         LINE#         141
  C:64B7H         LINE#         142
  C:64D1H         LINE#         143
  C:64D1H         LINE#         144
  C:64D8H         LINE#         145
  C:64D8H         LINE#         146
  C:64F0H         LINE#         147
  C:64F0H         LINE#         148
  C:6512H         LINE#         149
  C:652CH         LINE#         150
  C:652CH         LINE#         151
  C:6533H         LINE#         152
  C:6533H         LINE#         153
  C:655CH         LINE#         154
  C:656CH         LINE#         155
  C:656CH         LINE#         156
  C:658AH         LINE#         157
  C:658AH         LINE#         158
BL51 BANKED LINKER/LOCATER V6.22.2.0                                                  12/22/2022  15:38:00  PAGE 78


  C:65C3H         LINE#         159
  C:65DBH         LINE#         160
  C:660CH         LINE#         161
  C:660CH         LINE#         162
  C:6618H         LINE#         163
  C:6618H         LINE#         164
  C:6629H         LINE#         170
  C:664BH         LINE#         171
  C:6651H         LINE#         172
  C:665AH         LINE#         178
  C:665DH         LINE#         182
  C:665DH         LINE#         183
  C:665DH         LINE#         184
  C:6680H         LINE#         185
  C:6680H         LINE#         186
  C:66A2H         LINE#         187
  C:66BCH         LINE#         188
  C:66BCH         LINE#         189
  C:66C3H         LINE#         190
  C:66C3H         LINE#         191
  C:66ECH         LINE#         192
  C:66FCH         LINE#         193
  C:66FCH         LINE#         194
  C:671AH         LINE#         195
  C:671AH         LINE#         196
  C:6753H         LINE#         197
  C:676BH         LINE#         198
  C:679CH         LINE#         199
  C:679CH         LINE#         200
  C:67A8H         LINE#         201
  C:67A8H         LINE#         202
  C:67B9H         LINE#         207
  C:67D5H         LINE#         208
  C:67E1H         LINE#         214
  C:67E4H         LINE#         218
  C:67E4H         LINE#         219
  C:67E4H         LINE#         221
  C:67E4H         LINE#         222
  C:67FCH         LINE#         223
  C:682DH         LINE#         224
  C:682DH         LINE#         225
  C:682DH         LINE#         226
  C:682DH         LINE#         227
  C:682DH         LINE#         228
  C:682FH         LINE#         230
  C:682FH         LINE#         231
  C:6847H         LINE#         232
  C:6878H         LINE#         233
  C:6878H         LINE#         234
  C:6884H         LINE#         235
  C:6884H         LINE#         236
  C:6884H         LINE#         237
  C:6884H         LINE#         238
  C:6886H         LINE#         239
  -------         ENDPROC       _PRO8283RXTREAT
  -------         PROC          PRO8283DEAL
  -------         DO            
BL51 BANKED LINKER/LOCATER V6.22.2.0                                                  12/22/2022  15:38:00  PAGE 79


  D:0006H         SYMBOL        i
  D:0007H         SYMBOL        len
  -------         ENDDO         
  C:8D18H         LINE#         242
  C:8D18H         LINE#         243
  C:8D18H         LINE#         247
  C:8D27H         LINE#         248
  C:8D27H         LINE#         249
  C:8D4DH         LINE#         250
  C:8D4DH         LINE#         251
  C:8D63H         LINE#         252
  C:8D6AH         LINE#         253
  C:8D6AH         LINE#         254
  C:8D9AH         LINE#         255
  C:8DA8H         LINE#         256
  C:8DABH         LINE#         257
  C:8DABH         LINE#         258
  C:8DB1H         LINE#         259
  C:8DB1H         LINE#         261
  C:8DB9H         LINE#         262
  C:8DB9H         LINE#         263
  C:8DCEH         LINE#         264
  C:8DFAH         LINE#         265
  C:8DFAH         LINE#         267
  C:8E08H         LINE#         268
  C:8E08H         LINE#         269
  C:8E1DH         LINE#         270
  C:8E1DH         LINE#         271
  C:8E2BH         LINE#         272
  C:8E2BH         LINE#         273
  C:8E56H         LINE#         274
  C:8E56H         LINE#         275
  -------         ENDPROC       PRO8283DEAL
  -------         ENDMOD        DWIN8283

  -------         MODULE        SSD2828
  C:0000H         SYMBOL        _ICE_DUMMY_
  C:899DH         PUBLIC        pa_tab120
  C:8989H         PUBLIC        pa_tab111
  C:8977H         PUBLIC        pa_tab102
  C:89B3H         PUBLIC        pa_tab130
  C:899FH         PUBLIC        pa_tab121
  C:898BH         PUBLIC        pa_tab112
  C:8979H         PUBLIC        pa_tab103
  C:89C9H         PUBLIC        pa_tab140
  C:89B5H         PUBLIC        pa_tab131
  C:89A1H         PUBLIC        pa_tab122
  C:898DH         PUBLIC        pa_tab113
  C:897BH         PUBLIC        pa_tab104
  D:0090H         PUBLIC        P1
  C:A068H         PUBLIC        _ssd2828_writepackage
  C:8A15H         PUBLIC        pa_tab150
  C:89CBH         PUBLIC        pa_tab141
  C:89B7H         PUBLIC        pa_tab132
  C:89A3H         PUBLIC        pa_tab123
  C:898FH         PUBLIC        pa_tab114
  C:897DH         PUBLIC        pa_tab105
BL51 BANKED LINKER/LOCATER V6.22.2.0                                                  12/22/2022  15:38:00  PAGE 80


  C:8A2DH         PUBLIC        pa_tab160
  C:8A17H         PUBLIC        pa_tab151
  C:89CDH         PUBLIC        pa_tab142
  C:89B9H         PUBLIC        pa_tab133
  C:89A5H         PUBLIC        pa_tab124
  C:8991H         PUBLIC        pa_tab115
  C:897FH         PUBLIC        pa_tab106
  C:8A2FH         PUBLIC        pa_tab161
  C:8A19H         PUBLIC        pa_tab152
  C:89CFH         PUBLIC        pa_tab143
  C:89BBH         PUBLIC        pa_tab134
  C:89A7H         PUBLIC        pa_tab125
  C:8993H         PUBLIC        pa_tab116
  C:8981H         PUBLIC        pa_tab107
  C:8A1BH         PUBLIC        pa_tab153
  C:89D3H         PUBLIC        pa_tab144
  C:89BDH         PUBLIC        pa_tab135
  C:89A9H         PUBLIC        pa_tab126
  C:8995H         PUBLIC        pa_tab117
  C:8983H         PUBLIC        pa_tab108
  C:8A1DH         PUBLIC        pa_tab154
  C:89EFH         PUBLIC        pa_tab145
  C:89BFH         PUBLIC        pa_tab136
  C:89ABH         PUBLIC        pa_tab127
  C:8999H         PUBLIC        pa_tab118
  C:8985H         PUBLIC        pa_tab109
  C:8A21H         PUBLIC        pa_tab155
  C:8A0BH         PUBLIC        pa_tab146
  C:89C1H         PUBLIC        pa_tab137
  C:89ADH         PUBLIC        pa_tab128
  C:899BH         PUBLIC        pa_tab119
  C:8A23H         PUBLIC        pa_tab156
  C:8A0FH         PUBLIC        pa_tab147
  C:89C3H         PUBLIC        pa_tab138
  C:89B1H         PUBLIC        pa_tab129
  C:8A25H         PUBLIC        pa_tab157
  C:8A11H         PUBLIC        pa_tab148
  C:89C5H         PUBLIC        pa_tab139
  C:8A27H         PUBLIC        pa_tab158
  C:8A13H         PUBLIC        pa_tab149
  C:8A2BH         PUBLIC        pa_tab159
  C:AAB0H         PUBLIC        lcd_pa_set
  C:9EF5H         PUBLIC        _W_COM
  C:57AAH         PUBLIC        C055_code_download
  C:88ABH         PUBLIC        pa_tab1
  C:88AFH         PUBLIC        pa_tab2
  C:88B1H         PUBLIC        pa_tab3
  C:88B3H         PUBLIC        pa_tab4
  C:88B5H         PUBLIC        pa_tab5
  C:88B7H         PUBLIC        pa_tab6
  C:88B9H         PUBLIC        pa_tab7
  C:88BBH         PUBLIC        pa_tab8
  C:88BDH         PUBLIC        pa_tab9
  C:9E36H         PUBLIC        ssd2828_readID
  C:A789H         PUBLIC        _ssd2828_read_mipi
  C:92CFH         PUBLIC        ssd2828_init
  B:0090H.4       PUBLIC        sdc
BL51 BANKED LINKER/LOCATER V6.22.2.0                                                  12/22/2022  15:38:00  PAGE 81


  C:96B9H         PUBLIC        _ssd2828_regconfig
  C:9D75H         PUBLIC        _ssd2828_readReg
  B:0090H.2       PUBLIC        sdi
  B:0090H.3       PUBLIC        sck
  B:0090H.1       PUBLIC        sdo
  C:88BFH         PUBLIC        pa_tab10
  C:88D3H         PUBLIC        pa_tab20
  C:88C1H         PUBLIC        pa_tab11
  C:88E7H         PUBLIC        pa_tab30
  C:88D5H         PUBLIC        pa_tab21
  C:88C3H         PUBLIC        pa_tab12
  C:88FBH         PUBLIC        pa_tab40
  C:88E9H         PUBLIC        pa_tab31
  C:88D7H         PUBLIC        pa_tab22
  C:88C5H         PUBLIC        pa_tab13
  B:0090H.0       PUBLIC        csx
  C:890FH         PUBLIC        pa_tab50
  C:88FDH         PUBLIC        pa_tab41
  C:88EBH         PUBLIC        pa_tab32
  C:88D9H         PUBLIC        pa_tab23
  C:88C7H         PUBLIC        pa_tab14
  C:8923H         PUBLIC        pa_tab60
  C:8911H         PUBLIC        pa_tab51
  C:88FFH         PUBLIC        pa_tab42
  C:88EDH         PUBLIC        pa_tab33
  C:88DBH         PUBLIC        pa_tab24
  C:88C9H         PUBLIC        pa_tab15
  C:8937H         PUBLIC        pa_tab70
  C:8925H         PUBLIC        pa_tab61
  C:8913H         PUBLIC        pa_tab52
  C:8901H         PUBLIC        pa_tab43
  C:88EFH         PUBLIC        pa_tab34
  C:88DDH         PUBLIC        pa_tab25
  C:88CBH         PUBLIC        pa_tab16
  C:894BH         PUBLIC        pa_tab80
  C:8939H         PUBLIC        pa_tab71
  C:8927H         PUBLIC        pa_tab62
  C:8915H         PUBLIC        pa_tab53
  C:8903H         PUBLIC        pa_tab44
  C:88F1H         PUBLIC        pa_tab35
  C:88DFH         PUBLIC        pa_tab26
  C:88CDH         PUBLIC        pa_tab17
  C:895FH         PUBLIC        pa_tab90
  C:894DH         PUBLIC        pa_tab81
  C:893BH         PUBLIC        pa_tab72
  C:8929H         PUBLIC        pa_tab63
  C:8917H         PUBLIC        pa_tab54
  C:8905H         PUBLIC        pa_tab45
  C:88F3H         PUBLIC        pa_tab36
  C:88E1H         PUBLIC        pa_tab27
  C:88CFH         PUBLIC        pa_tab18
  C:8961H         PUBLIC        pa_tab91
  C:894FH         PUBLIC        pa_tab82
  C:893DH         PUBLIC        pa_tab73
  C:892BH         PUBLIC        pa_tab64
  C:8919H         PUBLIC        pa_tab55
  C:8907H         PUBLIC        pa_tab46
BL51 BANKED LINKER/LOCATER V6.22.2.0                                                  12/22/2022  15:38:00  PAGE 82


  C:88F5H         PUBLIC        pa_tab37
  C:88E3H         PUBLIC        pa_tab28
  C:88D1H         PUBLIC        pa_tab19
  C:8963H         PUBLIC        pa_tab92
  C:8951H         PUBLIC        pa_tab83
  C:893FH         PUBLIC        pa_tab74
  C:892DH         PUBLIC        pa_tab65
  C:891BH         PUBLIC        pa_tab56
  C:8909H         PUBLIC        pa_tab47
  C:88F7H         PUBLIC        pa_tab38
  C:88E5H         PUBLIC        pa_tab29
  C:8965H         PUBLIC        pa_tab93
  C:8953H         PUBLIC        pa_tab84
  C:8941H         PUBLIC        pa_tab75
  C:892FH         PUBLIC        pa_tab66
  C:891DH         PUBLIC        pa_tab57
  C:890BH         PUBLIC        pa_tab48
  C:88F9H         PUBLIC        pa_tab39
  C:8967H         PUBLIC        pa_tab94
  C:8955H         PUBLIC        pa_tab85
  C:8943H         PUBLIC        pa_tab76
  C:8931H         PUBLIC        pa_tab67
  C:891FH         PUBLIC        pa_tab58
  C:890DH         PUBLIC        pa_tab49
  C:8969H         PUBLIC        pa_tab95
  C:8957H         PUBLIC        pa_tab86
  C:8945H         PUBLIC        pa_tab77
  C:8933H         PUBLIC        pa_tab68
  C:8921H         PUBLIC        pa_tab59
  C:896BH         PUBLIC        pa_tab96
  C:8959H         PUBLIC        pa_tab87
  C:8947H         PUBLIC        pa_tab78
  C:8935H         PUBLIC        pa_tab69
  C:896DH         PUBLIC        pa_tab97
  C:895BH         PUBLIC        pa_tab88
  C:8949H         PUBLIC        pa_tab79
  C:896FH         PUBLIC        pa_tab98
  C:895DH         PUBLIC        pa_tab89
  C:8971H         PUBLIC        pa_tab99
  C:4A6FH         PUBLIC        W_write
  C:ACF6H         PUBLIC        _ssd2828_writecmd
  B:0020H.0       PUBLIC        ssd2828_cfg_ok
  C:8973H         PUBLIC        pa_tab100
  C:8987H         PUBLIC        pa_tab110
  C:8975H         PUBLIC        pa_tab101
  -------         PROC          SSD2828_READID
  -------         DO            
  X:C114H         SYMBOL        ssd2828_id
  X:C116H         SYMBOL        reg_temp
  X:C118H         SYMBOL        i
  -------         ENDDO         
  C:9E36H         LINE#         202
  C:9E36H         LINE#         203
  C:9E36H         LINE#         204
  C:9E45H         LINE#         206
  C:9E47H         LINE#         207
  C:9E49H         LINE#         208
BL51 BANKED LINKER/LOCATER V6.22.2.0                                                  12/22/2022  15:38:00  PAGE 83


  C:9E50H         LINE#         209
  C:9E62H         LINE#         210
  C:9E62H         LINE#         212
  C:9E6AH         LINE#         213
  C:9E6EH         LINE#         215
  C:9E70H         LINE#         216
  C:9E72H         LINE#         217
  C:9E79H         LINE#         218
  C:9E7BH         LINE#         219
  C:9E82H         LINE#         220
  C:9E8FH         LINE#         221
  C:9E97H         LINE#         222
  C:9E99H         LINE#         223
  C:9EA0H         LINE#         224
  C:9EB2H         LINE#         225
  C:9EB2H         LINE#         226
  C:9EB4H         LINE#         227
  C:9EBBH         LINE#         228
  C:9EBDH         LINE#         229
  C:9EC4H         LINE#         230
  C:9ED1H         LINE#         231
  C:9ED4H         LINE#         232
  C:9EDBH         LINE#         233
  C:9EE3H         LINE#         234
  C:9EE5H         LINE#         235
  C:9EECH         LINE#         236
  C:9EF4H         LINE#         237
  -------         ENDPROC       SSD2828_READID
  -------         PROC          _SSD2828_READREG
  D:0007H         SYMBOL        addr_reg
  -------         DO            
  X:C1E0H         SYMBOL        reg_value
  X:C1E2H         SYMBOL        reg_temp
  X:C1E4H         SYMBOL        i
  -------         ENDDO         
  C:9D75H         LINE#         239
  C:9D75H         LINE#         240
  C:9D75H         LINE#         241
  C:9D7CH         LINE#         243
  C:9D86H         LINE#         244
  C:9D88H         LINE#         245
  C:9D8AH         LINE#         246
  C:9D91H         LINE#         247
  C:9DA3H         LINE#         248
  C:9DA3H         LINE#         250
  C:9DABH         LINE#         251
  C:9DAFH         LINE#         253
  C:9DB1H         LINE#         254
  C:9DB3H         LINE#         255
  C:9DBAH         LINE#         256
  C:9DBCH         LINE#         257
  C:9DC3H         LINE#         258
  C:9DD0H         LINE#         259
  C:9DD8H         LINE#         260
  C:9DDAH         LINE#         261
  C:9DE1H         LINE#         262
  C:9DF3H         LINE#         263
BL51 BANKED LINKER/LOCATER V6.22.2.0                                                  12/22/2022  15:38:00  PAGE 84


  C:9DF3H         LINE#         264
  C:9DF5H         LINE#         265
  C:9DFCH         LINE#         266
  C:9DFEH         LINE#         267
  C:9E05H         LINE#         268
  C:9E12H         LINE#         269
  C:9E15H         LINE#         270
  C:9E1CH         LINE#         271
  C:9E24H         LINE#         272
  C:9E26H         LINE#         273
  C:9E2DH         LINE#         274
  C:9E35H         LINE#         275
  -------         ENDPROC       _SSD2828_READREG
  -------         PROC          _SSD2828_WRITECMD
  D:0007H         SYMBOL        cmd
  -------         DO            
  X:C11BH         SYMBOL        i
  X:C11CH         SYMBOL        ssd2828_cmd
  -------         ENDDO         
  C:ACF6H         LINE#         277
  C:ACF6H         LINE#         278
  C:ACF6H         LINE#         280
  C:ACFBH         LINE#         281
  C:ACFDH         LINE#         282
  C:ACFFH         LINE#         283
  C:AD06H         LINE#         284
  C:AD18H         LINE#         285
  C:AD18H         LINE#         286
  C:AD1DH         LINE#         287
  C:AD21H         LINE#         289
  C:AD23H         LINE#         290
  C:AD25H         LINE#         291
  C:AD2CH         LINE#         292
  C:AD2EH         LINE#         293
  C:AD35H         LINE#         294
  C:AD3CH         LINE#         295
  C:AD44H         LINE#         296
  C:AD46H         LINE#         297
  -------         ENDPROC       _SSD2828_WRITECMD
  -------         PROC          L?0075
  -------         ENDPROC       L?0075
  -------         PROC          _SSD2828_REGCONFIG
  D:0007H         SYMBOL        reg_addr
  D:0004H         SYMBOL        reg_data
  -------         DO            
  X:C11BH         SYMBOL        i
  X:C11CH         SYMBOL        addr_temp
  X:C11DH         SYMBOL        data_H
  X:C11EH         SYMBOL        data_L
  -------         ENDDO         
  C:96B9H         LINE#         300
  C:96B9H         LINE#         301
  C:96B9H         LINE#         303
  C:96BEH         LINE#         304
  C:96C1H         LINE#         305
  C:96C4H         LINE#         306
  C:96C6H         LINE#         307
BL51 BANKED LINKER/LOCATER V6.22.2.0                                                  12/22/2022  15:38:00  PAGE 85


  C:96C8H         LINE#         308
  C:96CFH         LINE#         309
  C:96E1H         LINE#         310
  C:96E1H         LINE#         311
  C:96E6H         LINE#         312
  C:96EAH         LINE#         314
  C:96ECH         LINE#         315
  C:96EEH         LINE#         316
  C:96F5H         LINE#         317
  C:96F7H         LINE#         318
  C:96FEH         LINE#         319
  C:9705H         LINE#         320
  C:970DH         LINE#         321
  C:970FH         LINE#         322
  C:9716H         LINE#         323
  C:9728H         LINE#         324
  C:9728H         LINE#         325
  C:972FH         LINE#         326
  C:9733H         LINE#         328
  C:9735H         LINE#         329
  C:9737H         LINE#         330
  C:973EH         LINE#         331
  C:9740H         LINE#         332
  C:9747H         LINE#         333
  C:974EH         LINE#         334
  C:9756H         LINE#         335
  C:9768H         LINE#         336
  C:9768H         LINE#         337
  C:976FH         LINE#         338
  C:9773H         LINE#         340
  C:9775H         LINE#         341
  C:9777H         LINE#         342
  C:977EH         LINE#         343
  C:9780H         LINE#         344
  C:9787H         LINE#         345
  C:978EH         LINE#         346
  C:9796H         LINE#         347
  C:9798H         LINE#         348
  -------         ENDPROC       _SSD2828_REGCONFIG
  C:A064H         SYMBOL        L?0074
  -------         PROC          L?0073
  -------         ENDPROC       L?0073
  C:A064H         SYMBOL        L?0074
  -------         PROC          _SSD2828_WRITEPACKAGE
  X:C114H         SYMBOL        pbuf
  D:0004H         SYMBOL        len
  -------         DO            
  X:C117H         SYMBOL        lenth
  X:C119H         SYMBOL        i
  X:C11AH         SYMBOL        temp
  -------         ENDDO         
  C:A068H         LINE#         351
  C:A073H         LINE#         352
  C:A073H         LINE#         355
  C:A07DH         LINE#         356
  C:A082H         LINE#         357
  C:A08FH         LINE#         358
BL51 BANKED LINKER/LOCATER V6.22.2.0                                                  12/22/2022  15:38:00  PAGE 86


  C:A094H         LINE#         359
  C:A096H         LINE#         360
  C:A098H         LINE#         361
  C:A09FH         LINE#         362
  C:A0ADH         LINE#         363
  C:A0ADH         LINE#         364
  C:A0C4H         LINE#         365
  C:A0D6H         LINE#         366
  C:A0D6H         LINE#         367
  C:A0DBH         LINE#         368
  C:A0DFH         LINE#         370
  C:A0E1H         LINE#         371
  C:A0E3H         LINE#         372
  C:A0EAH         LINE#         373
  C:A0ECH         LINE#         374
  C:A0F3H         LINE#         375
  C:A0FAH         LINE#         376
  C:A102H         LINE#         377
  C:A102H         LINE#         378
  C:A104H         LINE#         379
  -------         ENDPROC       _SSD2828_WRITEPACKAGE
  -------         PROC          _W_COM
  X:C1F7H         SYMBOL        cmd
  X:C1F8H         SYMBOL        val
  -------         DO            
  X:C1F9H         SYMBOL        i
  -------         ENDDO         
  C:9EF5H         LINE#         463
  C:9EFDH         LINE#         464
  C:9EFDH         LINE#         466
  C:9F06H         LINE#         467
  C:9F0BH         LINE#         468
  C:9F13H         LINE#         469
  C:9F18H         LINE#         470
  C:9F1AH         LINE#         471
  C:9F1CH         LINE#         472
  C:9F2EH         LINE#         473
  C:9F2EH         LINE#         474
  C:9F35H         LINE#         475
  C:9F39H         LINE#         477
  C:9F3BH         LINE#         478
  C:9F3DH         LINE#         479
  C:9F44H         LINE#         480
  C:9F46H         LINE#         481
  C:9F4DH         LINE#         482
  C:9F54H         LINE#         483
  C:9F5CH         LINE#         484
  C:9F5EH         LINE#         485
  C:9F65H         LINE#         486
  C:9F77H         LINE#         487
  C:9F77H         LINE#         488
  C:9F7EH         LINE#         489
  C:9F82H         LINE#         491
  C:9F84H         LINE#         492
  C:9F86H         LINE#         493
  C:9F8DH         LINE#         494
  C:9F8FH         LINE#         495
BL51 BANKED LINKER/LOCATER V6.22.2.0                                                  12/22/2022  15:38:00  PAGE 87


  C:9F96H         LINE#         496
  C:9F9DH         LINE#         497
  C:9FA3H         LINE#         498
  C:9FA5H         LINE#         499
  C:9FACH         LINE#         501
  -------         ENDPROC       _W_COM
  -------         PROC          _SSD2828_READ_MIPI
  X:C1E5H         SYMBOL        mipi_reg
  -------         DO            
  D:0006H         SYMBOL        reg_value
  X:C1E7H         SYMBOL        mipi_reg_value
  X:C1E9H         SYMBOL        mipi_read_cnt
  -------         ENDDO         
  C:A789H         LINE#         508
  C:A791H         LINE#         509
  C:A791H         LINE#         510
  C:A797H         LINE#         511
  C:A799H         LINE#         513
  C:A799H         LINE#         514
  C:A7A2H         LINE#         516
  C:A7ABH         LINE#         518
  C:A7B0H         LINE#         519
  C:A7BDH         LINE#         520
  C:A7C6H         LINE#         521
  C:A7CBH         LINE#         522
  C:A7D1H         LINE#         523
  C:A7D7H         LINE#         524
  C:A7E4H         LINE#         526
  C:A7F1H         LINE#         527
  C:A7FAH         LINE#         528
  C:A802H         LINE#         529
  -------         ENDPROC       _SSD2828_READ_MIPI
  -------         PROC          W_WRITE
  C:4A6FH         LINE#         531
  C:4A6FH         LINE#         532
  C:4A6FH         LINE#         533
  C:4A76H         LINE#         535
  C:4A7DH         LINE#         536
  C:4A84H         LINE#         537
  C:4A8BH         LINE#         538
  C:4A92H         LINE#         539
  C:4A99H         LINE#         541
  C:4AA0H         LINE#         542
  C:4AA7H         LINE#         543
  C:4AAEH         LINE#         544
  C:4AB5H         LINE#         545
  C:4ABCH         LINE#         546
  C:4AC3H         LINE#         547
  C:4ACAH         LINE#         548
  C:4AD1H         LINE#         549
  C:4AD8H         LINE#         550
  C:4ADFH         LINE#         551
  C:4AE6H         LINE#         552
  C:4AEDH         LINE#         553
  C:4AF4H         LINE#         554
  C:4AFBH         LINE#         555
  C:4B02H         LINE#         556
BL51 BANKED LINKER/LOCATER V6.22.2.0                                                  12/22/2022  15:38:00  PAGE 88


  C:4B09H         LINE#         557
  C:4B10H         LINE#         558
  C:4B17H         LINE#         559
  C:4B1EH         LINE#         560
  C:4B25H         LINE#         561
  C:4B2CH         LINE#         562
  C:4B33H         LINE#         563
  C:4B3AH         LINE#         564
  C:4B41H         LINE#         565
  C:4B48H         LINE#         566
  C:4B4FH         LINE#         567
  C:4B56H         LINE#         568
  C:4B5DH         LINE#         569
  C:4B64H         LINE#         570
  C:4B6BH         LINE#         571
  C:4B72H         LINE#         572
  C:4B79H         LINE#         573
  C:4B80H         LINE#         574
  C:4B87H         LINE#         575
  C:4B8EH         LINE#         576
  C:4B95H         LINE#         577
  C:4B9CH         LINE#         578
  C:4BA3H         LINE#         579
  C:4BAAH         LINE#         580
  C:4BB1H         LINE#         581
  C:4BB8H         LINE#         582
  C:4BBFH         LINE#         583
  C:4BC6H         LINE#         584
  C:4BCDH         LINE#         585
  C:4BD4H         LINE#         586
  C:4BDBH         LINE#         587
  C:4BE2H         LINE#         588
  C:4BE9H         LINE#         589
  C:4BF0H         LINE#         590
  C:4BF7H         LINE#         591
  C:4BFEH         LINE#         592
  C:4C05H         LINE#         593
  C:4C0CH         LINE#         594
  C:4C13H         LINE#         595
  C:4C1AH         LINE#         596
  C:4C21H         LINE#         597
  C:4C28H         LINE#         598
  C:4C2FH         LINE#         599
  C:4C36H         LINE#         600
  C:4C3DH         LINE#         601
  C:4C44H         LINE#         602
  C:4C4BH         LINE#         603
  C:4C52H         LINE#         604
  C:4C59H         LINE#         605
  C:4C60H         LINE#         606
  C:4C67H         LINE#         607
  C:4C6EH         LINE#         608
  C:4C75H         LINE#         609
  C:4C7CH         LINE#         610
  C:4C83H         LINE#         611
  C:4C8AH         LINE#         612
  C:4C91H         LINE#         613
BL51 BANKED LINKER/LOCATER V6.22.2.0                                                  12/22/2022  15:38:00  PAGE 89


  C:4C98H         LINE#         614
  C:4C9FH         LINE#         615
  C:4CA6H         LINE#         616
  C:4CADH         LINE#         617
  C:4CB4H         LINE#         618
  C:4CBBH         LINE#         619
  C:4CC2H         LINE#         620
  C:4CC9H         LINE#         621
  C:4CD0H         LINE#         622
  C:4CD7H         LINE#         623
  C:4CDEH         LINE#         624
  C:4CE5H         LINE#         625
  C:4CECH         LINE#         626
  C:4CF3H         LINE#         627
  C:4CFAH         LINE#         628
  C:4D01H         LINE#         629
  C:4D08H         LINE#         630
  C:4D0FH         LINE#         631
  C:4D16H         LINE#         632
  C:4D1DH         LINE#         633
  C:4D24H         LINE#         634
  C:4D2BH         LINE#         635
  C:4D32H         LINE#         636
  C:4D39H         LINE#         637
  C:4D40H         LINE#         638
  C:4D47H         LINE#         639
  C:4D4EH         LINE#         640
  C:4D55H         LINE#         641
  C:4D5CH         LINE#         642
  C:4D63H         LINE#         643
  C:4D6AH         LINE#         644
  C:4D71H         LINE#         645
  C:4D78H         LINE#         646
  C:4D7FH         LINE#         647
  C:4D86H         LINE#         648
  C:4D8DH         LINE#         649
  C:4D94H         LINE#         650
  C:4D9BH         LINE#         651
  C:4DA2H         LINE#         652
  C:4DA9H         LINE#         653
  C:4DB0H         LINE#         654
  C:4DB7H         LINE#         655
  C:4DBEH         LINE#         656
  C:4DC5H         LINE#         657
  C:4DCCH         LINE#         658
  C:4DD3H         LINE#         659
  C:4DDAH         LINE#         660
  C:4DE1H         LINE#         661
  C:4DE8H         LINE#         662
  C:4DEFH         LINE#         664
  C:4DF6H         LINE#         666
  C:4DFDH         LINE#         667
  C:4E04H         LINE#         668
  C:4E0BH         LINE#         669
  C:4E12H         LINE#         670
  C:4E19H         LINE#         671
  C:4E20H         LINE#         672
BL51 BANKED LINKER/LOCATER V6.22.2.0                                                  12/22/2022  15:38:00  PAGE 90


  C:4E27H         LINE#         673
  C:4E2EH         LINE#         674
  C:4E35H         LINE#         675
  C:4E3CH         LINE#         676
  C:4E43H         LINE#         677
  C:4E4AH         LINE#         678
  C:4E51H         LINE#         679
  C:4E58H         LINE#         680
  C:4E5FH         LINE#         681
  C:4E66H         LINE#         682
  C:4E6DH         LINE#         683
  C:4E74H         LINE#         684
  C:4E7BH         LINE#         685
  C:4E82H         LINE#         686
  C:4E89H         LINE#         687
  C:4E90H         LINE#         688
  C:4E97H         LINE#         689
  C:4E9EH         LINE#         690
  C:4EA5H         LINE#         691
  C:4EACH         LINE#         692
  C:4EB3H         LINE#         693
  C:4EBAH         LINE#         694
  C:4EC1H         LINE#         695
  C:4EC8H         LINE#         696
  C:4ECFH         LINE#         697
  C:4ED6H         LINE#         698
  C:4EDDH         LINE#         699
  C:4EE4H         LINE#         700
  C:4EEBH         LINE#         701
  C:4EF2H         LINE#         702
  C:4EF9H         LINE#         703
  C:4F00H         LINE#         704
  C:4F07H         LINE#         705
  C:4F0EH         LINE#         706
  C:4F15H         LINE#         707
  C:4F1CH         LINE#         708
  C:4F23H         LINE#         709
  C:4F2AH         LINE#         710
  C:4F31H         LINE#         711
  C:4F38H         LINE#         712
  C:4F3FH         LINE#         713
  C:4F46H         LINE#         714
  C:4F4DH         LINE#         715
  C:4F54H         LINE#         716
  C:4F5BH         LINE#         717
  C:4F62H         LINE#         718
  C:4F69H         LINE#         719
  C:4F70H         LINE#         720
  C:4F77H         LINE#         721
  C:4F7EH         LINE#         722
  C:4F85H         LINE#         723
  C:4F8CH         LINE#         724
  C:4F93H         LINE#         725
  C:4F9AH         LINE#         726
  C:4FA1H         LINE#         727
  C:4FA8H         LINE#         728
  C:4FAFH         LINE#         729
BL51 BANKED LINKER/LOCATER V6.22.2.0                                                  12/22/2022  15:38:00  PAGE 91


  C:4FB6H         LINE#         730
  C:4FBDH         LINE#         731
  C:4FC4H         LINE#         732
  C:4FCBH         LINE#         733
  C:4FD2H         LINE#         734
  C:4FD9H         LINE#         735
  C:4FE0H         LINE#         736
  C:4FE7H         LINE#         737
  C:4FEEH         LINE#         738
  C:4FF5H         LINE#         739
  C:4FFCH         LINE#         740
  C:5003H         LINE#         741
  C:500AH         LINE#         742
  C:5011H         LINE#         743
  C:5018H         LINE#         744
  C:501FH         LINE#         745
  C:5026H         LINE#         746
  C:502DH         LINE#         747
  C:5034H         LINE#         748
  C:503BH         LINE#         749
  C:5042H         LINE#         750
  C:5049H         LINE#         751
  C:5050H         LINE#         752
  C:5057H         LINE#         753
  C:505EH         LINE#         754
  C:5065H         LINE#         755
  C:506CH         LINE#         756
  C:5073H         LINE#         757
  C:507AH         LINE#         758
  C:5081H         LINE#         759
  C:5088H         LINE#         760
  C:508FH         LINE#         761
  C:5096H         LINE#         762
  C:509DH         LINE#         763
  C:50A4H         LINE#         764
  C:50ABH         LINE#         765
  C:50B2H         LINE#         766
  C:50B9H         LINE#         767
  C:50C0H         LINE#         768
  C:50C7H         LINE#         769
  C:50CEH         LINE#         770
  C:50D5H         LINE#         771
  C:50DCH         LINE#         772
  C:50E3H         LINE#         773
  C:50EAH         LINE#         774
  C:50F1H         LINE#         775
  C:50F8H         LINE#         776
  C:50FFH         LINE#         777
  C:5106H         LINE#         778
  C:510DH         LINE#         779
  C:5114H         LINE#         780
  C:511BH         LINE#         781
  C:5122H         LINE#         782
  C:5129H         LINE#         783
  C:5130H         LINE#         784
  C:5137H         LINE#         785
  C:513EH         LINE#         787
BL51 BANKED LINKER/LOCATER V6.22.2.0                                                  12/22/2022  15:38:00  PAGE 92


  C:5145H         LINE#         788
  C:514CH         LINE#         790
  C:5153H         LINE#         791
  -------         ENDPROC       W_WRITE
  -------         PROC          C055_CODE_DOWNLOAD
  C:57AAH         LINE#         794
  C:57AAH         LINE#         795
  C:57AAH         LINE#         796
  C:57B7H         LINE#         797
  C:57BEH         LINE#         798
  C:57C5H         LINE#         799
  C:57CEH         LINE#         800
  C:57D7H         LINE#         801
  C:57E0H         LINE#         802
  C:57E9H         LINE#         803
  C:57F2H         LINE#         804
  C:57FBH         LINE#         805
  C:5804H         LINE#         806
  C:580DH         LINE#         807
  C:5816H         LINE#         808
  C:581FH         LINE#         809
  C:5828H         LINE#         810
  C:5831H         LINE#         811
  C:583AH         LINE#         812
  C:5843H         LINE#         813
  C:584CH         LINE#         814
  C:5855H         LINE#         815
  C:585EH         LINE#         816
  C:5867H         LINE#         817
  C:5870H         LINE#         818
  C:5879H         LINE#         819
  C:5882H         LINE#         820
  C:588BH         LINE#         821
  C:5894H         LINE#         822
  C:589DH         LINE#         823
  C:58A6H         LINE#         824
  C:58AFH         LINE#         825
  C:58B8H         LINE#         826
  C:58C1H         LINE#         827
  C:58CAH         LINE#         828
  C:58D3H         LINE#         829
  C:58DCH         LINE#         830
  C:58E5H         LINE#         831
  C:58EEH         LINE#         832
  C:58F7H         LINE#         833
  C:5900H         LINE#         834
  C:5909H         LINE#         835
  C:5912H         LINE#         836
  C:591BH         LINE#         837
  C:5924H         LINE#         838
  C:592DH         LINE#         839
  C:5936H         LINE#         840
  C:593FH         LINE#         841
  C:5948H         LINE#         842
  C:5951H         LINE#         843
  C:595AH         LINE#         844
  C:5963H         LINE#         845
BL51 BANKED LINKER/LOCATER V6.22.2.0                                                  12/22/2022  15:38:00  PAGE 93


  C:596CH         LINE#         846
  C:5975H         LINE#         847
  C:597EH         LINE#         848
  C:5987H         LINE#         849
  C:5990H         LINE#         850
  C:5999H         LINE#         851
  C:59A2H         LINE#         852
  C:59ABH         LINE#         853
  C:59B4H         LINE#         854
  C:59BDH         LINE#         855
  C:59C6H         LINE#         856
  C:59CFH         LINE#         857
  C:59D8H         LINE#         858
  C:59E1H         LINE#         859
  C:59EAH         LINE#         860
  C:59F3H         LINE#         861
  C:59FCH         LINE#         862
  C:5A05H         LINE#         863
  C:5A0EH         LINE#         864
  C:5A17H         LINE#         865
  C:5A20H         LINE#         866
  C:5A29H         LINE#         867
  C:5A32H         LINE#         868
  C:5A3BH         LINE#         869
  C:5A44H         LINE#         870
  C:5A4DH         LINE#         871
  C:5A56H         LINE#         872
  C:5A5FH         LINE#         873
  C:5A68H         LINE#         874
  C:5A71H         LINE#         875
  C:5A7AH         LINE#         876
  C:5A83H         LINE#         877
  C:5A8CH         LINE#         878
  C:5A95H         LINE#         879
  C:5A9EH         LINE#         880
  C:5AA7H         LINE#         881
  C:5AB0H         LINE#         882
  C:5AB9H         LINE#         883
  C:5AC2H         LINE#         884
  C:5ACBH         LINE#         885
  C:5AD4H         LINE#         886
  C:5ADDH         LINE#         887
  C:5AE6H         LINE#         888
  C:5AEFH         LINE#         889
  C:5AF8H         LINE#         890
  C:5B01H         LINE#         891
  C:5B0AH         LINE#         892
  C:5B13H         LINE#         893
  C:5B1CH         LINE#         894
  C:5B25H         LINE#         895
  C:5B2EH         LINE#         896
  C:5B37H         LINE#         897
  C:5B40H         LINE#         898
  C:5B49H         LINE#         899
  C:5B52H         LINE#         900
  C:5B5BH         LINE#         901
  C:5B64H         LINE#         902
BL51 BANKED LINKER/LOCATER V6.22.2.0                                                  12/22/2022  15:38:00  PAGE 94


  C:5B6DH         LINE#         903
  C:5B76H         LINE#         904
  C:5B7FH         LINE#         905
  C:5B88H         LINE#         906
  C:5B91H         LINE#         907
  C:5B9AH         LINE#         908
  C:5BA3H         LINE#         909
  C:5BACH         LINE#         910
  C:5BB5H         LINE#         911
  C:5BBEH         LINE#         912
  C:5BCBH         LINE#         913
  C:5BD4H         LINE#         914
  C:5BDDH         LINE#         915
  C:5BE6H         LINE#         916
  C:5BEFH         LINE#         917
  C:5BF8H         LINE#         918
  C:5C01H         LINE#         919
  C:5C0AH         LINE#         920
  C:5C13H         LINE#         921
  C:5C1CH         LINE#         922
  C:5C25H         LINE#         923
  C:5C32H         LINE#         924
  C:5C3BH         LINE#         925
  C:5C44H         LINE#         926
  C:5C4DH         LINE#         927
  C:5C56H         LINE#         928
  C:5C5FH         LINE#         929
  C:5C68H         LINE#         930
  C:5C71H         LINE#         931
  C:5C7AH         LINE#         932
  C:5C83H         LINE#         933
  C:5C8CH         LINE#         934
  C:5C99H         LINE#         935
  C:5CA2H         LINE#         936
  C:5CABH         LINE#         937
  C:5CB4H         LINE#         938
  C:5CC1H         LINE#         939
  C:5CCEH         LINE#         940
  C:5CDBH         LINE#         941
  C:5CE8H         LINE#         942
  C:5CF1H         LINE#         943
  C:5CFAH         LINE#         944
  C:5D03H         LINE#         945
  C:5D0CH         LINE#         946
  C:5D15H         LINE#         947
  C:5D1EH         LINE#         948
  C:5D27H         LINE#         949
  C:5D34H         LINE#         950
  C:5D3DH         LINE#         951
  C:5D46H         LINE#         952
  C:5D4FH         LINE#         953
  C:5D5CH         LINE#         954
  C:5D65H         LINE#         955
  C:5D6EH         LINE#         956
  C:5D75H         LINE#         957
  C:5D7EH         LINE#         958
  -------         ENDPROC       C055_CODE_DOWNLOAD
BL51 BANKED LINKER/LOCATER V6.22.2.0                                                  12/22/2022  15:38:00  PAGE 95


  -------         PROC          LCD_PA_SET
  -------         DO            
  D:0007H         SYMBOL        lcd_vs
  D:0005H         SYMBOL        lcd_hs
  X:C114H         SYMBOL        lcd_vbp
  X:C115H         SYMBOL        lcd_hbp
  X:C116H         SYMBOL        lcd_vfp
  D:0001H         SYMBOL        lcd_hfp
  D:0004H         SYMBOL        lcd_sw
  X:C117H         SYMBOL        lcd_bp
  X:C119H         SYMBOL        lcd_fp
  -------         ENDDO         
  C:AAB0H         LINE#         961
  C:AAB0H         LINE#         962
  C:AAB0H         LINE#         965
  C:AAB0H         LINE#         966
  C:AAB0H         LINE#         967
  C:AAB6H         LINE#         968
  C:AABAH         LINE#         969
  C:AABEH         LINE#         970
  C:AAC0H         LINE#         971
  C:AAC5H         LINE#         972
  C:AAD7H         LINE#         973
  C:AAE6H         LINE#         974
  C:AAEBH         LINE#         975
  C:AAF8H         LINE#         976
  C:AB05H         LINE#         977
  C:AB0EH         LINE#         978
  -------         ENDPROC       LCD_PA_SET
  -------         PROC          SSD2828_INIT
  -------         DO            
  D:0006H         SYMBOL        temp
  -------         ENDDO         
  C:92CFH         LINE#         981
  C:92CFH         LINE#         982
  C:92CFH         LINE#         984
  C:92D2H         LINE#         985
  C:92D5H         LINE#         986
  C:92E2H         LINE#         990
  C:92EAH         LINE#         991
  C:92F2H         LINE#         992
  C:92FAH         LINE#         994
  C:9303H         LINE#         995
  C:930CH         LINE#         996
  C:9315H         LINE#         998
  C:931EH         LINE#         999
  C:9327H         LINE#         1000
  C:932EH         LINE#         1002
  C:9337H         LINE#         1004
  C:933EH         LINE#         1007
  C:9341H         LINE#         1010
  C:934AH         LINE#         1011
  C:9352H         LINE#         1012
  C:935AH         LINE#         1015
  C:9363H         LINE#         1017
  C:936CH         LINE#         1018
  C:9375H         LINE#         1019
BL51 BANKED LINKER/LOCATER V6.22.2.0                                                  12/22/2022  15:38:00  PAGE 96


  C:937EH         LINE#         1020
  C:9385H         LINE#         1021
  C:938EH         LINE#         1022
  C:9397H         LINE#         1023
  C:93A0H         LINE#         1024
  C:93A8H         LINE#         1025
  C:93ABH         LINE#         1028
  C:93B4H         LINE#         1029
  C:93BDH         LINE#         1031
  C:93C6H         LINE#         1033
  C:93CFH         LINE#         1034
  C:93D6H         LINE#         1035
  C:93DBH         LINE#         1041
  C:93DDH         LINE#         1042
  -------         ENDPROC       SSD2828_INIT
  -------         ENDMOD        SSD2828

  -------         MODULE        RTC
  C:0000H         SYMBOL        _ICE_DUMMY_
  D:00B0H         PUBLIC        P3
  X:C1D3H         PUBLIC        RTCdata
  C:9A4AH         PUBLIC        rdtime
  D:00BEH         PUBLIC        P3MDOUT
  C:B26AH         PUBLIC        cack
  C:B142H         PUBLIC        _Hex_to_BCD
  C:B3B9H         PUBLIC        mack
  B:00B0H.3       PUBLIC        RTC_SDA
  C:B3C8H         PUBLIC        mnak
  B:00B0H.2       PUBLIC        RTC_SCL
  C:B362H         PUBLIC        i2cstart
  C:B439H         PUBLIC        SDA_OUT
  C:B34CH         PUBLIC        i2cstop
  C:B435H         PUBLIC        SDA_IN
  C:B108H         PUBLIC        i2cbr
  C:9B19H         PUBLIC        _Write_RTC
  C:A8BCH         PUBLIC        _i2cbw
  C:A964H         PUBLIC        init_rtc
  C:9FB3H         PUBLIC        Write_wifi_RTC
  C:B3F6H         PUBLIC        RTC_Read_and_Set
  B:0020H.1       PUBLIC        is_time_flag
  C:A1A6H         PUBLIC        _rtc_get_week
  C:B24DH         PUBLIC        _delayus
  -------         PROC          SDA_IN
  C:B435H         LINE#         9
  C:B435H         LINE#         10
  C:B435H         LINE#         11
  C:B438H         LINE#         12
  -------         ENDPROC       SDA_IN
  -------         PROC          SDA_OUT
  C:B439H         LINE#         14
  C:B439H         LINE#         15
  C:B439H         LINE#         17
  C:B43CH         LINE#         18
  -------         ENDPROC       SDA_OUT
  C:B244H         SYMBOL        L?0061
  -------         PROC          L?0060
  -------         ENDPROC       L?0060
BL51 BANKED LINKER/LOCATER V6.22.2.0                                                  12/22/2022  15:38:00  PAGE 97


  C:B244H         SYMBOL        L?0061
  -------         PROC          _DELAYUS
  D:0007H         SYMBOL        t
  -------         DO            
  D:0006H         SYMBOL        i
  -------         ENDDO         
  C:B24DH         LINE#         21
  C:B24DH         LINE#         22
  C:B24DH         LINE#         24
  C:B250H         LINE#         25
  C:B250H         LINE#         26
  C:B263H         LINE#         27
  C:B263H         LINE#         28
  C:B263H         LINE#         29
  C:B266H         LINE#         30
  C:B267H         LINE#         31
  C:B269H         LINE#         32
  -------         ENDPROC       _DELAYUS
  -------         PROC          I2CSTART
  C:B362H         LINE#         34
  C:B362H         LINE#         35
  C:B362H         LINE#         36
  C:B365H         LINE#         37
  C:B367H         LINE#         38
  C:B369H         LINE#         39
  C:B36EH         LINE#         40
  C:B370H         LINE#         41
  C:B375H         LINE#         42
  C:B377H         LINE#         43
  -------         ENDPROC       I2CSTART
  -------         PROC          L?0062
  -------         ENDPROC       L?0062
  -------         PROC          I2CSTOP
  C:B34CH         LINE#         46
  C:B34CH         LINE#         47
  C:B34CH         LINE#         48
  C:B34FH         LINE#         49
  C:B351H         LINE#         50
  C:B353H         LINE#         51
  C:B358H         LINE#         52
  C:B35AH         LINE#         53
  C:B35FH         LINE#         54
  -------         ENDPROC       I2CSTOP
  -------         PROC          MACK
  C:B3B9H         LINE#         57
  C:B3B9H         LINE#         58
  C:B3B9H         LINE#         59
  C:B3BCH         LINE#         60
  C:B3BEH         LINE#         61
  C:B3BEH         LINE#         62
  C:B3BEH         LINE#         63
  C:B3C1H         LINE#         64
  C:B3C3H         LINE#         65
  -------         ENDPROC       MACK
  -------         PROC          MNAK
  C:B3C8H         LINE#         68
  C:B3C8H         LINE#         69
BL51 BANKED LINKER/LOCATER V6.22.2.0                                                  12/22/2022  15:38:00  PAGE 98


  C:B3C8H         LINE#         70
  C:B3CBH         LINE#         71
  C:B3CBH         LINE#         72
  C:B3CBH         LINE#         73
  C:B3CBH         LINE#         74
  C:B3CEH         LINE#         75
  C:B3D0H         LINE#         76
  -------         ENDPROC       MNAK
  -------         PROC          CACK
  -------         DO            
  D:0003H         SYMBOL        i
  -------         ENDDO         
  C:B26AH         LINE#         79
  C:B26AH         LINE#         80
  C:B26AH         LINE#         82
  C:B26DH         LINE#         83
  C:B26DH         LINE#         84
  C:B26DH         LINE#         85
  C:B26DH         LINE#         86
  C:B270H         LINE#         87
  C:B27CH         LINE#         88
  C:B27CH         LINE#         89
  C:B27FH         LINE#         90
  C:B27FH         LINE#         91
  C:B284H         LINE#         92
  C:B287H         LINE#         93
  C:B289H         LINE#         94
  C:B28EH         LINE#         95
  -------         ENDPROC       CACK
  C:A87EH         SYMBOL        L?0055
  C:A8B1H         SYMBOL        L?0056
  C:A8B7H         SYMBOL        L?0057
  -------         PROC          L?0054
  -------         ENDPROC       L?0054
  C:A87EH         SYMBOL        L?0055
  C:A8B1H         SYMBOL        L?0056
  C:A8B7H         SYMBOL        L?0057
  -------         PROC          _I2CBW
  D:0003H         SYMBOL        dat
  -------         DO            
  D:0002H         SYMBOL        i
  -------         ENDDO         
  C:A8BCH         LINE#         99
  C:A8BEH         LINE#         100
  C:A8BEH         LINE#         102
  C:A8C1H         LINE#         103
  C:A8D4H         LINE#         104
  C:A8D4H         LINE#         105
  C:A8D8H         LINE#         106
  C:A8DCH         LINE#         108
  C:A8DEH         LINE#         109
  C:A8E2H         LINE#         110
  C:A8E2H         LINE#         111
  C:A8E2H         LINE#         112
  C:A8E5H         LINE#         113
  C:A8E7H         LINE#         114
  C:A8ECH         LINE#         115
BL51 BANKED LINKER/LOCATER V6.22.2.0                                                  12/22/2022  15:38:00  PAGE 99


  C:A8EFH         LINE#         116
  -------         ENDPROC       _I2CBW
  -------         PROC          I2CBR
  -------         DO            
  D:0002H         SYMBOL        i
  D:0003H         SYMBOL        dat
  -------         ENDDO         
  C:B108H         LINE#         120
  C:B108H         LINE#         121
  C:B108H         LINE#         124
  C:B10BH         LINE#         125
  C:B11EH         LINE#         126
  C:B11EH         LINE#         127
  C:B11EH         LINE#         128
  C:B11EH         LINE#         129
  C:B121H         LINE#         130
  C:B125H         LINE#         131
  C:B128H         LINE#         132
  C:B12DH         LINE#         134
  C:B131H         LINE#         135
  C:B133H         LINE#         136
  C:B138H         LINE#         137
  C:B13BH         LINE#         138
  C:B13DH         LINE#         139
  -------         ENDPROC       I2CBR
  -------         PROC          INIT_RTC
  -------         DO            
  D:0001H         SYMBOL        i
  -------         ENDDO         
  C:A964H         LINE#         142
  C:A964H         LINE#         143
  C:A964H         LINE#         146
  C:A96BH         LINE#         147
  C:A972H         LINE#         150
  C:A972H         LINE#         151
  C:A975H         LINE#         152
  C:A97AH         LINE#         153
  C:A97DH         LINE#         154
  C:A980H         LINE#         155
  C:A985H         LINE#         156
  C:A98AH         LINE#         157
  C:A98DH         LINE#         158
  C:A990H         LINE#         159
  C:A993H         LINE#         160
  C:A996H         LINE#         161
  C:A99DH         LINE#         162
  C:A99DH         LINE#         163
  C:A99DH         LINE#         164
  C:A99DH         LINE#         165
  C:A99DH         LINE#         166
  C:A99DH         LINE#         167
  C:A99DH         LINE#         168
  C:A99DH         LINE#         169
  C:A99DH         LINE#         170
  C:A99DH         LINE#         171
  C:A99DH         LINE#         172
  C:A99DH         LINE#         173
BL51 BANKED LINKER/LOCATER V6.22.2.0                                                  12/22/2022  15:38:00  PAGE 100


  C:A99DH         LINE#         174
  C:A99DH         LINE#         175
  C:A99DH         LINE#         176
  C:A99DH         LINE#         177
  C:A9A0H         LINE#         178
  C:A9A5H         LINE#         179
  C:A9AAH         LINE#         180
  C:A9AFH         LINE#         181
  C:A9B4H         LINE#         182
  C:A9B9H         LINE#         183
  C:A9BEH         LINE#         184
  C:A9C3H         LINE#         185
  C:A9C5H         LINE#         186
  C:A9C5H         LINE#         187
  C:A9C5H         LINE#         188
  C:A9C8H         LINE#         189
  C:A9CDH         LINE#         190
  C:A9D2H         LINE#         191
  C:A9D2H         LINE#         192
  C:A9D5H         LINE#         193
  C:A9D5H         LINE#         194
  -------         ENDPROC       INIT_RTC
  -------         PROC          RDTIME
  -------         DO            
  D:0001H         SYMBOL        i
  X:C114H         SYMBOL        n
  X:C115H         SYMBOL        m
  -------         ENDDO         
  C:9A4AH         LINE#         197
  C:9A4AH         LINE#         198
  C:9A4AH         LINE#         201
  C:9A4AH         LINE#         202
  C:9A4DH         LINE#         203
  C:9A4DH         LINE#         204
  C:9A50H         LINE#         205
  C:9A53H         LINE#         206
  C:9A58H         LINE#         207
  C:9A64H         LINE#         208
  C:9A64H         LINE#         209
  C:9A73H         LINE#         210
  C:9A76H         LINE#         211
  C:9A79H         LINE#         212
  C:9A81H         LINE#         213
  C:9A84H         LINE#         214
  C:9A87H         LINE#         215
  C:9A93H         LINE#         216
  C:9A93H         LINE#         217
  C:9AA7H         LINE#         218
  C:9AADH         LINE#         219
  C:9AC0H         LINE#         220
  C:9AC3H         LINE#         221
  C:9ACFH         LINE#         222
  C:9ACFH         LINE#         223
  C:9AE3H         LINE#         224
  C:9AE9H         LINE#         225
  C:9AFCH         LINE#         226
  C:9AFFH         LINE#         242
BL51 BANKED LINKER/LOCATER V6.22.2.0                                                  12/22/2022  15:38:00  PAGE 101


  C:9B04H         LINE#         243
  -------         ENDPROC       RDTIME
  C:B13EH         SYMBOL        L?0059
  -------         PROC          L?0058
  -------         ENDPROC       L?0058
  C:B13EH         SYMBOL        L?0059
  -------         PROC          _HEX_TO_BCD
  D:0002H         SYMBOL        value
  C:B142H         LINE#         246
  C:B146H         LINE#         247
  C:B146H         LINE#         248
  C:B16FH         LINE#         249
  C:B172H         LINE#         250
  -------         ENDPROC       _HEX_TO_BCD
  -------         PROC          _RTC_GET_WEEK
  D:0004H         SYMBOL        year
  D:0005H         SYMBOL        month
  X:C1EAH         SYMBOL        day
  -------         DO            
  D:0006H         SYMBOL        tmp
  X:C1EBH         SYMBOL        mon
  X:C1EDH         SYMBOL        y
  D:0007H         SYMBOL        week
  -------         ENDDO         
  C:A1A6H         LINE#         252
  C:A1ADH         LINE#         253
  C:A1ADH         LINE#         256
  C:A1BAH         LINE#         257
  C:A1BAH         LINE#         258
  C:A1C7H         LINE#         259
  C:A1D3H         LINE#         260
  C:A1D5H         LINE#         262
  C:A1D5H         LINE#         263
  C:A1DFH         LINE#         264
  C:A1E7H         LINE#         265
  C:A1E7H         LINE#         266
  C:A232H         LINE#         267
  C:A239H         LINE#         268
  C:A239H         LINE#         269
  -------         ENDPROC       _RTC_GET_WEEK
  -------         PROC          _WRITE_RTC
  D:0006H         SYMBOL        time_addr
  X:C166H         SYMBOL        week_addr
  -------         DO            
  X:C168H         SYMBOL        rtcdata
  X:C170H         SYMBOL        Rtc_Set
  X:C176H         SYMBOL        week
  -------         ENDDO         
  C:9B19H         LINE#         271
  C:9B21H         LINE#         272
  C:9B21H         LINE#         277
  C:9B33H         LINE#         278
  C:9B4CH         LINE#         280
  C:9B57H         LINE#         281
  C:9B62H         LINE#         282
  C:9B6DH         LINE#         283
  C:9B78H         LINE#         284
BL51 BANKED LINKER/LOCATER V6.22.2.0                                                  12/22/2022  15:38:00  PAGE 102


  C:9B83H         LINE#         285
  C:9B8EH         LINE#         294
  C:9BA0H         LINE#         296
  C:9BA0H         LINE#         297
  C:9BA0H         LINE#         298
  C:9BA0H         LINE#         299
  C:9BA0H         LINE#         300
  C:9BA0H         LINE#         301
  C:9BA0H         LINE#         302
  C:9BA0H         LINE#         303
  C:9BA0H         LINE#         304
  C:9BA0H         LINE#         305
  C:9BA0H         LINE#         306
  C:9BA0H         LINE#         307
  C:9BA0H         LINE#         308
  C:9BA0H         LINE#         309
  C:9BA0H         LINE#         310
  C:9BA3H         LINE#         311
  C:9BA8H         LINE#         313
  C:9BB0H         LINE#         314
  C:9BB6H         LINE#         315
  C:9BBCH         LINE#         316
  C:9BC2H         LINE#         317
  C:9BC8H         LINE#         318
  C:9BCEH         LINE#         319
  C:9BD1H         LINE#         321
  C:9BD1H         LINE#         322
  C:9BD1H         LINE#         323
  C:9BD4H         LINE#         324
  C:9BD9H         LINE#         325
  C:9BDEH         LINE#         326
  C:9BE3H         LINE#         327
  -------         ENDPROC       _WRITE_RTC
  -------         PROC          WRITE_WIFI_RTC
  -------         DO            
  X:C178H         SYMBOL        rtcdata
  X:C17FH         SYMBOL        Rtc_Set
  -------         ENDDO         
  C:9FB3H         LINE#         330
  C:9FB3H         LINE#         331
  C:9FB3H         LINE#         335
  C:9FC8H         LINE#         337
  C:9FD3H         LINE#         338
  C:9FDEH         LINE#         339
  C:9FE9H         LINE#         340
  C:9FF4H         LINE#         341
  C:9FFFH         LINE#         342
  C:A00AH         LINE#         344
  C:A01CH         LINE#         346
  C:A01CH         LINE#         347
  C:A01CH         LINE#         348
  C:A01CH         LINE#         349
  C:A01CH         LINE#         350
  C:A01CH         LINE#         351
  C:A01CH         LINE#         352
  C:A01CH         LINE#         353
  C:A01CH         LINE#         354
BL51 BANKED LINKER/LOCATER V6.22.2.0                                                  12/22/2022  15:38:00  PAGE 103


  C:A01CH         LINE#         355
  C:A01CH         LINE#         356
  C:A01CH         LINE#         357
  C:A01CH         LINE#         358
  C:A01CH         LINE#         359
  C:A01CH         LINE#         360
  C:A01FH         LINE#         361
  C:A024H         LINE#         363
  C:A02CH         LINE#         364
  C:A032H         LINE#         365
  C:A038H         LINE#         366
  C:A03EH         LINE#         367
  C:A044H         LINE#         368
  C:A04AH         LINE#         369
  C:A04DH         LINE#         371
  C:A04DH         LINE#         372
  C:A04DH         LINE#         373
  C:A050H         LINE#         374
  C:A055H         LINE#         375
  C:A05AH         LINE#         376
  C:A05FH         LINE#         377
  -------         ENDPROC       WRITE_WIFI_RTC
  -------         PROC          RTC_READ_AND_SET
  C:B3F6H         LINE#         380
  C:B3F6H         LINE#         381
  C:B3F6H         LINE#         382
  C:B3F9H         LINE#         383
  C:B3F9H         LINE#         384
  C:B3FBH         LINE#         385
  C:B3FEH         LINE#         386
  C:B3FEH         LINE#         387
  -------         ENDPROC       RTC_READ_AND_SET
  -------         ENDMOD        RTC

  -------         MODULE        MYMODBUS
  C:0000H         SYMBOL        _ICE_DUMMY_
  C:AE92H         PUBLIC        _SendString
  X:C14FH         PUBLIC        Send_Buf
  X:C163H         PUBLIC        ID
  C:A598H         PUBLIC        _crc16
  C:7C26H         PUBLIC        auchCRCHi
  C:9BE6H         PUBLIC        Send_ModBus_IP
  C:7D26H         PUBLIC        auchCRCLo
  C:94D4H         PUBLIC        _Send_ModBus
  C:A9D6H         PUBLIC        _Send_ModBus04_10
  C:A803H         PUBLIC        _Send_ModBus08_10
  X:C164H         PUBLIC        CRC_C
  C:AC39H         PUBLIC        _Send_ModBus_10
  -------         PROC          L?0020
  -------         ENDPROC       L?0020
  -------         PROC          _CRC16
  X:C13EH         SYMBOL        puchMsg
  X:C141H         SYMBOL        usDataLen
  -------         DO            
  X:C142H         SYMBOL        uchCRCHi
  X:C143H         SYMBOL        uchCRCLo
  X:C144H         SYMBOL        uIndex
BL51 BANKED LINKER/LOCATER V6.22.2.0                                                  12/22/2022  15:38:00  PAGE 104


  -------         ENDDO         
  C:A598H         LINE#         70
  C:A5A6H         LINE#         71
  C:A5A6H         LINE#         72
  C:A5AAH         LINE#         73
  C:A5ACH         LINE#         76
  C:A5B6H         LINE#         77
  C:A5B6H         LINE#         78
  C:A5DAH         LINE#         79
  C:A5F0H         LINE#         80
  C:A5F9H         LINE#         81
  C:A5FBH         LINE#         82
  C:A605H         LINE#         83
  -------         ENDPROC       _CRC16
  -------         PROC          _SENDSTRING
  X:C13EH         SYMBOL        str
  X:C141H         SYMBOL        len
  -------         DO            
  X:C142H         SYMBOL        k
  -------         ENDDO         
  C:AE92H         LINE#         85
  C:AEA0H         LINE#         86
  C:AEA0H         LINE#         87
  C:AEA5H         LINE#         89
  C:AEA5H         LINE#         90
  C:AEC2H         LINE#         91
  C:AED0H         LINE#         92
  C:AEDAH         LINE#         93
  -------         ENDPROC       _SENDSTRING
  -------         PROC          _SEND_MODBUS
  X:C136H         SYMBOL        CMD
  X:C137H         SYMBOL        Address
  X:C139H         SYMBOL        dat
  X:C13BH         SYMBOL        count
  C:94D4H         LINE#         96
  C:94E7H         LINE#         97
  C:94E7H         LINE#         99
  C:94EDH         LINE#         101
  C:9500H         LINE#         102
  C:9500H         LINE#         103
  C:9500H         LINE#         104
  C:9500H         LINE#         105
  C:9508H         LINE#         106
  C:9510H         LINE#         107
  C:951DH         LINE#         108
  C:9520H         LINE#         109
  C:9523H         LINE#         110
  C:952AH         LINE#         112
  C:952AH         LINE#         113
  C:952AH         LINE#         114
  C:952AH         LINE#         115
  C:952AH         LINE#         116
  C:952CH         LINE#         117
  C:952CH         LINE#         118
  C:952CH         LINE#         119
  C:952CH         LINE#         120
  C:9534H         LINE#         121
BL51 BANKED LINKER/LOCATER V6.22.2.0                                                  12/22/2022  15:38:00  PAGE 105


  C:953CH         LINE#         122
  C:9549H         LINE#         123
  C:954CH         LINE#         124
  C:9559H         LINE#         125
  C:955CH         LINE#         127
  C:956FH         LINE#         128
  C:957CH         LINE#         129
  C:957DH         LINE#         130
  C:957DH         LINE#         131
  C:957FH         LINE#         132
  C:957FH         LINE#         133
  C:957FH         LINE#         134
  C:957FH         LINE#         135
  C:9587H         LINE#         136
  C:958FH         LINE#         137
  C:9598H         LINE#         138
  C:959AH         LINE#         139
  C:95A3H         LINE#         140
  C:95A5H         LINE#         142
  C:95B8H         LINE#         143
  C:95BCH         LINE#         144
  C:95BEH         LINE#         146
  C:95C9H         LINE#         147
  C:95C9H         LINE#         148
  C:95C9H         LINE#         149
  C:95C9H         LINE#         150
  -------         ENDPROC       _SEND_MODBUS
  -------         PROC          _SEND_MODBUS_10
  D:0007H         SYMBOL        CMD
  D:0004H         SYMBOL        Address
  D:0002H         SYMBOL        Register_num
  X:C13BH         SYMBOL        dat
  X:C13DH         SYMBOL        count
  C:AC39H         LINE#         152
  C:AC39H         LINE#         153
  C:AC39H         LINE#         155
  C:AC3FH         LINE#         157
  C:AC43H         LINE#         158
  C:AC46H         LINE#         159
  C:AC49H         LINE#         160
  C:AC4CH         LINE#         161
  C:AC4FH         LINE#         162
  C:AC52H         LINE#         163
  C:AC5AH         LINE#         164
  C:AC67H         LINE#         165
  C:AC6AH         LINE#         167
  C:AC7DH         LINE#         168
  C:AC8AH         LINE#         169
  C:AC8DH         LINE#         170
  -------         ENDPROC       _SEND_MODBUS_10
  -------         PROC          _SEND_MODBUS04_10
  D:0007H         SYMBOL        CMD
  D:0004H         SYMBOL        Address
  D:0002H         SYMBOL        Register_num
  X:C1BEH         SYMBOL        datH
  X:C1C0H         SYMBOL        datL
  X:C1C2H         SYMBOL        count
BL51 BANKED LINKER/LOCATER V6.22.2.0                                                  12/22/2022  15:38:00  PAGE 106


  C:A9D6H         LINE#         173
  C:A9D6H         LINE#         174
  C:A9D6H         LINE#         176
  C:A9DCH         LINE#         178
  C:A9E0H         LINE#         179
  C:A9E3H         LINE#         180
  C:A9E6H         LINE#         181
  C:A9E9H         LINE#         182
  C:A9ECH         LINE#         183
  C:A9EFH         LINE#         184
  C:A9F7H         LINE#         185
  C:AA04H         LINE#         186
  C:AA07H         LINE#         187
  C:AA14H         LINE#         188
  C:AA17H         LINE#         190
  C:AA2AH         LINE#         191
  C:AA37H         LINE#         192
  C:AA3AH         LINE#         193
  -------         ENDPROC       _SEND_MODBUS04_10
  -------         PROC          SEND_MODBUS_IP
  C:9BE6H         LINE#         196
  C:9BE6H         LINE#         197
  C:9BE6H         LINE#         198
  C:9BFBH         LINE#         199
  C:9C10H         LINE#         200
  C:9C25H         LINE#         201
  C:9C3AH         LINE#         203
  C:9C40H         LINE#         204
  C:9C44H         LINE#         205
  C:9C47H         LINE#         206
  C:9C4BH         LINE#         207
  C:9C4EH         LINE#         208
  C:9C52H         LINE#         209
  C:9C56H         LINE#         210
  C:9C63H         LINE#         211
  C:9C66H         LINE#         212
  C:9C73H         LINE#         213
  C:9C76H         LINE#         214
  C:9C83H         LINE#         215
  C:9C86H         LINE#         216
  C:9C89H         LINE#         217
  C:9C89H         LINE#         219
  C:9C94H         LINE#         220
  C:9CA1H         LINE#         221
  C:9CA4H         LINE#         222
  -------         ENDPROC       SEND_MODBUS_IP
  -------         PROC          _SEND_MODBUS08_10
  D:0007H         SYMBOL        CMD
  D:0004H         SYMBOL        Address
  D:0002H         SYMBOL        Register_num
  X:C18CH         SYMBOL        datH
  X:C18EH         SYMBOL        datL
  X:C190H         SYMBOL        dat1H
  X:C192H         SYMBOL        dat1L
  X:C194H         SYMBOL        count
  C:A803H         LINE#         225
  C:A803H         LINE#         226
BL51 BANKED LINKER/LOCATER V6.22.2.0                                                  12/22/2022  15:38:00  PAGE 107


  C:A803H         LINE#         228
  C:A809H         LINE#         230
  C:A80DH         LINE#         231
  C:A810H         LINE#         232
  C:A813H         LINE#         233
  C:A816H         LINE#         234
  C:A819H         LINE#         235
  C:A81CH         LINE#         236
  C:A824H         LINE#         237
  C:A831H         LINE#         238
  C:A834H         LINE#         239
  C:A841H         LINE#         240
  C:A844H         LINE#         241
  C:A851H         LINE#         242
  C:A854H         LINE#         243
  C:A857H         LINE#         244
  C:A857H         LINE#         246
  C:A862H         LINE#         247
  C:A86FH         LINE#         248
  C:A872H         LINE#         249
  -------         ENDPROC       _SEND_MODBUS08_10
  -------         ENDMOD        MYMODBUS

  -------         MODULE        RECEIVEDATA
  C:0000H         SYMBOL        _ICE_DUMMY_
  C:0103H         PUBLIC        Receive_Modbus
  C:4339H         PUBLIC        _ALm_Init
  -------         PROC          RECEIVE_MODBUS
  -------         DO            
  X:C114H         SYMBOL        iRxReadPt
  D:0006H         SYMBOL        RxHead_PC
  X:C116H         SYMBOL        Check_Nodbus
  X:C118H         SYMBOL        CheckNumber
  X:C11AH         SYMBOL        i
  X:C11BH         SYMBOL        Length
  X:C11CH         SYMBOL        buf
  X:C128H         SYMBOL        RxCommon
  X:C12AH         SYMBOL        Dat1
  X:C12CH         SYMBOL        Dat2
  X:C12EH         SYMBOL        Dat3
  X:C130H         SYMBOL        Dat4
  X:C132H         SYMBOL        Dat5
  X:C134H         SYMBOL        Dat6
  D:0004H         SYMBOL        Addr
  -------         ENDDO         
  C:0103H         LINE#         8
  C:0103H         LINE#         9
  C:0103H         LINE#         29
  C:0124H         LINE#         30
  C:0124H         LINE#         31
  C:0133H         LINE#         33
  C:014CH         LINE#         35
  C:0150H         LINE#         36
  C:0150H         LINE#         38
  C:018EH         LINE#         39
  C:018EH         LINE#         40
  C:01B0H         LINE#         41
BL51 BANKED LINKER/LOCATER V6.22.2.0                                                  12/22/2022  15:38:00  PAGE 108


  C:01B2H         LINE#         43
  C:01B2H         LINE#         45
  C:01C0H         LINE#         46
  C:01C3H         LINE#         47
  C:01C3H         LINE#         48
  C:01C3H         LINE#         50
  C:01C3H         LINE#         52
  C:01D1H         LINE#         53
  C:01D4H         LINE#         54
  C:01D4H         LINE#         56
  C:01E3H         LINE#         57
  C:01EAH         LINE#         59
  C:0207H         LINE#         60
  C:0207H         LINE#         61
  C:0207H         LINE#         62
  C:0207H         LINE#         63
  C:0224H         LINE#         64
  C:0229H         LINE#         65
  C:0229H         LINE#         66
  C:022FH         LINE#         67
  C:022FH         LINE#         68
  C:0248H         LINE#         69
  C:0248H         LINE#         70
  C:0248H         LINE#         71
  C:0248H         LINE#         72
  C:0266H         LINE#         73
  C:0266H         LINE#         74
  C:0268H         LINE#         75
  C:0268H         LINE#         76
  C:026BH         LINE#         77
  C:026BH         LINE#         78
  C:0271H         LINE#         79
  C:027AH         LINE#         80
  C:0282H         LINE#         81
  C:029FH         LINE#         82
  C:02BCH         LINE#         84
  C:02FDH         LINE#         85
  C:031EH         LINE#         87
  C:0335H         LINE#         88
  C:0335H         LINE#         91
  C:0341H         LINE#         92
  C:0341H         LINE#         94
  C:0346H         LINE#         95
  C:035EH         LINE#         97
  C:0366H         LINE#         98
  C:037AH         LINE#         99
  C:037EH         LINE#         100
  C:0381H         LINE#         101
  C:0381H         LINE#         102
  C:038DH         LINE#         103
  C:038DH         LINE#         104
  C:0398H         LINE#         105
  C:0398H         LINE#         106
  C:039DH         LINE#         108
  C:039FH         LINE#         110
  C:03A7H         LINE#         111
  C:03BBH         LINE#         112
BL51 BANKED LINKER/LOCATER V6.22.2.0                                                  12/22/2022  15:38:00  PAGE 109


  C:03D0H         LINE#         115
  C:03D7H         LINE#         116
  C:03D7H         LINE#         117
  C:03DAH         LINE#         118
  C:03DAH         LINE#         120
  C:03EBH         LINE#         121
  C:03EBH         LINE#         122
  C:03F3H         LINE#         129
  C:03F5H         LINE#         130
  C:03F5H         LINE#         131
  C:03FFH         LINE#         132
  C:0407H         LINE#         133
  C:041CH         LINE#         134
  C:042CH         LINE#         135
  C:042CH         LINE#         136
  C:042CH         LINE#         137
  C:042FH         LINE#         138
  C:0437H         LINE#         139
  C:0437H         LINE#         141
  C:0441H         LINE#         142
  C:0449H         LINE#         143
  C:045EH         LINE#         144
  C:0473H         LINE#         145
  C:047BH         LINE#         146
  C:0484H         LINE#         147
  C:0487H         LINE#         148
  C:048FH         LINE#         149
  C:048FH         LINE#         151
  C:0499H         LINE#         152
  C:04A1H         LINE#         153
  C:04A8H         LINE#         154
  C:04BCH         LINE#         155
  C:04D1H         LINE#         156
  C:04E6H         LINE#         157
  C:04EDH         LINE#         158
  C:04F6H         LINE#         159
  C:04F9H         LINE#         160
  C:0504H         LINE#         161
  C:0504H         LINE#         162
  C:050EH         LINE#         163
  C:0516H         LINE#         164
  C:052BH         LINE#         165
  C:0540H         LINE#         167
  C:054AH         LINE#         168
  C:054AH         LINE#         169
  C:0551H         LINE#         170
  C:0565H         LINE#         171
  C:056CH         LINE#         172
  C:0580H         LINE#         173
  C:0587H         LINE#         174
  C:059BH         LINE#         175
  C:05A2H         LINE#         176
  C:05B6H         LINE#         178
  C:05BDH         LINE#         180
  C:05C4H         LINE#         181
  C:05C4H         LINE#         183
  C:05CBH         LINE#         184
BL51 BANKED LINKER/LOCATER V6.22.2.0                                                  12/22/2022  15:38:00  PAGE 110


  C:05DFH         LINE#         185
  C:05DFH         LINE#         188
  C:05E6H         LINE#         189
  C:05EDH         LINE#         190
  C:05EEH         LINE#         191
  C:05F1H         LINE#         192
  C:05F1H         LINE#         195
  C:0600H         LINE#         196
  C:0600H         LINE#         197
  C:0615H         LINE#         198
  C:0625H         LINE#         200
  C:062BH         LINE#         201
  C:062BH         LINE#         202
  C:0631H         LINE#         203
  C:0635H         LINE#         204
  C:0639H         LINE#         205
  C:063DH         LINE#         206
  C:0641H         LINE#         207
  C:0645H         LINE#         208
  C:0649H         LINE#         210
  C:065DH         LINE#         211
  C:0672H         LINE#         212
  C:0687H         LINE#         213
  C:069CH         LINE#         214
  C:06B1H         LINE#         215
  C:06C6H         LINE#         216
  C:06DBH         LINE#         217
  C:06DDH         LINE#         219
  C:06DDH         LINE#         220
  C:06E8H         LINE#         221
  C:06E8H         LINE#         223
  C:06EFH         LINE#         224
  C:06F7H         LINE#         225
  C:06F9H         LINE#         226
  C:06FCH         LINE#         227
  C:06FCH         LINE#         230
  C:070DH         LINE#         231
  C:070DH         LINE#         232
  C:0722H         LINE#         234
  C:072FH         LINE#         235
  C:072FH         LINE#         236
  C:072FH         LINE#         237
  C:0735H         LINE#         238
  C:0735H         LINE#         240
  C:073BH         LINE#         241
  C:0742H         LINE#         242
  C:0742H         LINE#         243
  C:0745H         LINE#         244
  C:0748H         LINE#         245
  C:0748H         LINE#         247
  C:0752H         LINE#         248
  C:0752H         LINE#         249
  C:0767H         LINE#         250
  C:0776H         LINE#         251
  C:078BH         LINE#         253
  C:0792H         LINE#         254
  C:0795H         LINE#         255
BL51 BANKED LINKER/LOCATER V6.22.2.0                                                  12/22/2022  15:38:00  PAGE 111


  C:0798H         LINE#         256
  C:0798H         LINE#         259
  C:07A6H         LINE#         260
  C:07A6H         LINE#         261
  C:07BBH         LINE#         262
  C:07CAH         LINE#         263
  C:07DFH         LINE#         265
  C:07E6H         LINE#         266
  C:07E9H         LINE#         267
  C:07ECH         LINE#         268
  C:07ECH         LINE#         271
  C:07FAH         LINE#         272
  C:07FAH         LINE#         273
  C:080FH         LINE#         274
  C:081EH         LINE#         275
  C:0833H         LINE#         277
  C:083AH         LINE#         278
  C:083DH         LINE#         279
  C:0840H         LINE#         280
  C:0840H         LINE#         283
  C:0851H         LINE#         284
  C:0851H         LINE#         285
  C:0866H         LINE#         287
  C:0871H         LINE#         288
  C:0871H         LINE#         289
  C:0881H         LINE#         290
  C:0881H         LINE#         291
  C:0888H         LINE#         292
  C:088BH         LINE#         293
  C:089CH         LINE#         294
  C:089CH         LINE#         295
  C:08A4H         LINE#         296
  C:08A7H         LINE#         297
  C:08B8H         LINE#         298
  C:08B8H         LINE#         299
  C:08C1H         LINE#         300
  C:08C4H         LINE#         301
  C:08D5H         LINE#         302
  C:08D5H         LINE#         303
  C:08DEH         LINE#         304
  C:08E1H         LINE#         305
  C:08F2H         LINE#         306
  C:08F2H         LINE#         307
  C:08FBH         LINE#         308
  C:08FEH         LINE#         309
  C:090FH         LINE#         310
  C:090FH         LINE#         311
  C:0918H         LINE#         312
  C:091BH         LINE#         313
  C:092CH         LINE#         314
  C:092CH         LINE#         315
  C:0935H         LINE#         316
  C:0938H         LINE#         317
  C:0949H         LINE#         318
  C:0949H         LINE#         319
  C:0952H         LINE#         320
  C:0954H         LINE#         321
BL51 BANKED LINKER/LOCATER V6.22.2.0                                                  12/22/2022  15:38:00  PAGE 112


  C:0965H         LINE#         322
  C:0965H         LINE#         323
  C:096EH         LINE#         324
  C:0970H         LINE#         325
  C:0981H         LINE#         326
  C:0981H         LINE#         327
  C:098AH         LINE#         328
  C:098CH         LINE#         329
  C:0995H         LINE#         330
  C:0995H         LINE#         331
  C:099EH         LINE#         332
  C:099EH         LINE#         334
  C:099EH         LINE#         335
  C:09A0H         LINE#         336
  C:09A6H         LINE#         337
  C:09A6H         LINE#         338
  C:09ACH         LINE#         339
  C:09B5H         LINE#         340
  C:09B7H         LINE#         341
  C:09BFH         LINE#         342
  C:09BFH         LINE#         343
  C:09C7H         LINE#         344
  C:09DCH         LINE#         345
  C:09DCH         LINE#         346
  C:09E3H         LINE#         347
  C:09EBH         LINE#         348
  C:09EEH         LINE#         349
  C:09EEH         LINE#         352
  C:09FCH         LINE#         353
  C:09FCH         LINE#         354
  C:0A11H         LINE#         355
  C:0A21H         LINE#         357
  C:0A2EH         LINE#         358
  C:0A45H         LINE#         360
  C:0A5AH         LINE#         361
  C:0A62H         LINE#         363
  C:0A69H         LINE#         365
  C:0A6CH         LINE#         366
  C:0A6CH         LINE#         368
  C:0A78H         LINE#         369
  C:0A78H         LINE#         370
  C:0A8DH         LINE#         372
  C:0AA2H         LINE#         374
  C:0AAAH         LINE#         375
  C:0AAAH         LINE#         376
  C:0AB6H         LINE#         377
  C:0AB6H         LINE#         378
  C:0ACBH         LINE#         380
  C:0AE0H         LINE#         382
  C:0AE9H         LINE#         383
  C:0AE9H         LINE#         384
  C:0AF5H         LINE#         385
  C:0AF5H         LINE#         386
  C:0B0AH         LINE#         388
  C:0B1FH         LINE#         390
  C:0B28H         LINE#         391
  C:0B28H         LINE#         392
BL51 BANKED LINKER/LOCATER V6.22.2.0                                                  12/22/2022  15:38:00  PAGE 113


  C:0B34H         LINE#         393
  C:0B34H         LINE#         394
  C:0B49H         LINE#         396
  C:0B5EH         LINE#         398
  C:0B67H         LINE#         399
  C:0B67H         LINE#         400
  C:0B73H         LINE#         401
  C:0B73H         LINE#         402
  C:0B88H         LINE#         404
  C:0B9DH         LINE#         406
  C:0BA6H         LINE#         407
  C:0BA6H         LINE#         408
  C:0BB2H         LINE#         409
  C:0BB2H         LINE#         410
  C:0BC7H         LINE#         412
  C:0BDCH         LINE#         414
  C:0BE5H         LINE#         415
  C:0BE5H         LINE#         416
  C:0BE5H         LINE#         417
  C:0BFBH         LINE#         418
  C:0BFBH         LINE#         419
  C:0C07H         LINE#         420
  C:0C0FH         LINE#         421
  C:0C0FH         LINE#         422
  C:0C0FH         LINE#         424
  C:0C0FH         LINE#         425
  C:0C0FH         LINE#         426
  C:0C2DH         LINE#         427
  C:0C2DH         LINE#         428
  C:0C2FH         LINE#         429
  C:0C2FH         LINE#         430
  C:0C32H         LINE#         431
  C:0C32H         LINE#         432
  C:0C38H         LINE#         433
  C:0C41H         LINE#         434
  C:0C49H         LINE#         435
  C:0C66H         LINE#         436
  C:0C83H         LINE#         437
  C:0CA0H         LINE#         438
  C:0CBDH         LINE#         440
  C:0CFEH         LINE#         441
  C:0D1FH         LINE#         443
  C:0D36H         LINE#         444
  C:0D36H         LINE#         447
  C:0D44H         LINE#         448
  C:0D44H         LINE#         449
  C:0D59H         LINE#         450
  C:0D6CH         LINE#         452
  C:0D81H         LINE#         453
  C:0D96H         LINE#         455
  C:0D9DH         LINE#         456
  C:0DA5H         LINE#         457
  C:0DA6H         LINE#         458
  C:0DA9H         LINE#         459
  C:0DA9H         LINE#         462
  C:0DB7H         LINE#         463
  C:0DB7H         LINE#         464
BL51 BANKED LINKER/LOCATER V6.22.2.0                                                  12/22/2022  15:38:00  PAGE 114


  C:0DCCH         LINE#         465
  C:0DDFH         LINE#         467
  C:0DF4H         LINE#         468
  C:0E09H         LINE#         470
  C:0E10H         LINE#         471
  C:0E18H         LINE#         472
  C:0E19H         LINE#         473
  C:0E1CH         LINE#         474
  C:0E1CH         LINE#         477
  C:0E2AH         LINE#         478
  C:0E2AH         LINE#         479
  C:0E3FH         LINE#         480
  C:0E52H         LINE#         482
  C:0E67H         LINE#         483
  C:0E7CH         LINE#         485
  C:0E83H         LINE#         486
  C:0E8BH         LINE#         487
  C:0E8CH         LINE#         488
  C:0E8FH         LINE#         489
  C:0E8FH         LINE#         492
  C:0E9DH         LINE#         493
  C:0E9DH         LINE#         494
  C:0EB2H         LINE#         495
  C:0EC5H         LINE#         497
  C:0EDAH         LINE#         498
  C:0EEFH         LINE#         500
  C:0EF6H         LINE#         501
  C:0EFEH         LINE#         502
  C:0F05H         LINE#         503
  C:0F05H         LINE#         506
  C:0F11H         LINE#         507
  C:0F11H         LINE#         508
  C:0F26H         LINE#         509
  C:0F39H         LINE#         511
  C:0F4EH         LINE#         512
  C:0F63H         LINE#         514
  C:0F6BH         LINE#         515
  C:0F6EH         LINE#         516
  C:0F6EH         LINE#         519
  C:0F7FH         LINE#         520
  C:0F7FH         LINE#         521
  C:0F94H         LINE#         522
  C:0FA9H         LINE#         524
  C:0FC9H         LINE#         526
  C:0FE4H         LINE#         527
  C:1003H         LINE#         528
  C:1022H         LINE#         529
  C:1038H         LINE#         531
  C:104DH         LINE#         532
  C:1062H         LINE#         533
  C:1077H         LINE#         534
  C:108CH         LINE#         536
  C:1095H         LINE#         538
  C:1098H         LINE#         539
  C:1098H         LINE#         542
  C:10A9H         LINE#         543
  C:10A9H         LINE#         544
BL51 BANKED LINKER/LOCATER V6.22.2.0                                                  12/22/2022  15:38:00  PAGE 115


  C:10BEH         LINE#         545
  C:10D3H         LINE#         547
  C:10F3H         LINE#         549
  C:110EH         LINE#         550
  C:112DH         LINE#         551
  C:114CH         LINE#         552
  C:1162H         LINE#         554
  C:1177H         LINE#         555
  C:118CH         LINE#         556
  C:11A1H         LINE#         557
  C:11B6H         LINE#         559
  C:11BFH         LINE#         561
  C:11C2H         LINE#         562
  C:11C2H         LINE#         565
  C:11D3H         LINE#         566
  C:11D3H         LINE#         567
  C:11E8H         LINE#         568
  C:11FDH         LINE#         570
  C:121DH         LINE#         572
  C:1238H         LINE#         573
  C:1257H         LINE#         574
  C:1276H         LINE#         575
  C:128CH         LINE#         577
  C:12A1H         LINE#         578
  C:12B6H         LINE#         579
  C:12CBH         LINE#         580
  C:12E0H         LINE#         582
  C:12E9H         LINE#         584
  C:12ECH         LINE#         585
  C:12ECH         LINE#         588
  C:12FDH         LINE#         589
  C:12FDH         LINE#         590
  C:1312H         LINE#         591
  C:1327H         LINE#         593
  C:1347H         LINE#         595
  C:1362H         LINE#         596
  C:1381H         LINE#         597
  C:13A0H         LINE#         598
  C:13B6H         LINE#         600
  C:13CBH         LINE#         601
  C:13E0H         LINE#         602
  C:13F5H         LINE#         603
  C:140AH         LINE#         605
  C:1413H         LINE#         607
  C:1416H         LINE#         608
  C:1416H         LINE#         611
  C:1424H         LINE#         612
  C:1424H         LINE#         613
  C:1439H         LINE#         614
  C:144CH         LINE#         616
  C:1461H         LINE#         617
  C:1476H         LINE#         619
  C:147AH         LINE#         621
  C:147DH         LINE#         622
  C:147DH         LINE#         625
  C:148BH         LINE#         626
  C:148BH         LINE#         627
BL51 BANKED LINKER/LOCATER V6.22.2.0                                                  12/22/2022  15:38:00  PAGE 116


  C:14A0H         LINE#         628
  C:14B3H         LINE#         630
  C:14C8H         LINE#         631
  C:14DDH         LINE#         633
  C:14E6H         LINE#         635
  C:14E9H         LINE#         636
  C:14E9H         LINE#         639
  C:14F7H         LINE#         640
  C:14F7H         LINE#         641
  C:150CH         LINE#         642
  C:151FH         LINE#         644
  C:1534H         LINE#         645
  C:1549H         LINE#         647
  C:1552H         LINE#         649
  C:1555H         LINE#         650
  C:1555H         LINE#         651
  C:1555H         LINE#         652
  C:156BH         LINE#         653
  C:156BH         LINE#         654
  C:1577H         LINE#         655
  C:157FH         LINE#         656
  C:157FH         LINE#         657
  C:157FH         LINE#         659
  C:157FH         LINE#         660
  C:157FH         LINE#         661
  C:159DH         LINE#         662
  C:159DH         LINE#         663
  C:15A4H         LINE#         664
  C:15A4H         LINE#         665
  C:15A7H         LINE#         666
  C:15A7H         LINE#         667
  C:15ADH         LINE#         668
  C:15B6H         LINE#         669
  C:15BEH         LINE#         670
  C:15DBH         LINE#         671
  C:15F8H         LINE#         672
  C:1615H         LINE#         673
  C:1632H         LINE#         674
  C:164FH         LINE#         675
  C:166CH         LINE#         676
  C:1689H         LINE#         677
  C:16A6H         LINE#         679
  C:16E7H         LINE#         680
  C:1708H         LINE#         682
  C:171FH         LINE#         683
  C:171FH         LINE#         686
  C:1730H         LINE#         687
  C:1730H         LINE#         688
  C:1745H         LINE#         689
  C:1758H         LINE#         690
  C:176BH         LINE#         691
  C:177EH         LINE#         693
  C:1793H         LINE#         694
  C:17A8H         LINE#         695
  C:17BDH         LINE#         696
  C:17D2H         LINE#         698
  C:17D9H         LINE#         699
BL51 BANKED LINKER/LOCATER V6.22.2.0                                                  12/22/2022  15:38:00  PAGE 117


  C:17E1H         LINE#         701
  C:17E4H         LINE#         702
  C:17E4H         LINE#         705
  C:17F5H         LINE#         706
  C:17F5H         LINE#         707
  C:180AH         LINE#         708
  C:181DH         LINE#         709
  C:1830H         LINE#         710
  C:1843H         LINE#         712
  C:1858H         LINE#         713
  C:186DH         LINE#         714
  C:1882H         LINE#         715
  C:1897H         LINE#         717
  C:189AH         LINE#         718
  C:189AH         LINE#         721
  C:18ABH         LINE#         722
  C:18ABH         LINE#         723
  C:18C0H         LINE#         724
  C:18D3H         LINE#         725
  C:18E6H         LINE#         726
  C:18F9H         LINE#         728
  C:190EH         LINE#         729
  C:1923H         LINE#         730
  C:1938H         LINE#         731
  C:194DH         LINE#         733
  C:1955H         LINE#         734
  C:1955H         LINE#         736
  C:1958H         LINE#         737
  C:1958H         LINE#         740
  C:1969H         LINE#         741
  C:1969H         LINE#         742
  C:197EH         LINE#         743
  C:1991H         LINE#         744
  C:19A4H         LINE#         745
  C:19B7H         LINE#         747
  C:19CCH         LINE#         748
  C:19E1H         LINE#         749
  C:19F6H         LINE#         750
  C:1A0BH         LINE#         752
  C:1A13H         LINE#         753
  C:1A13H         LINE#         755
  C:1A16H         LINE#         756
  C:1A16H         LINE#         759
  C:1A27H         LINE#         760
  C:1A27H         LINE#         761
  C:1A3CH         LINE#         762
  C:1A4FH         LINE#         763
  C:1A62H         LINE#         764
  C:1A75H         LINE#         766
  C:1A8AH         LINE#         767
  C:1A9FH         LINE#         768
  C:1AB4H         LINE#         769
  C:1AC9H         LINE#         771
  C:1AD1H         LINE#         772
  C:1AD1H         LINE#         774
  C:1AD4H         LINE#         775
  C:1AD4H         LINE#         778
BL51 BANKED LINKER/LOCATER V6.22.2.0                                                  12/22/2022  15:38:00  PAGE 118


  C:1AE5H         LINE#         779
  C:1AE5H         LINE#         780
  C:1AFAH         LINE#         781
  C:1B0DH         LINE#         782
  C:1B20H         LINE#         783
  C:1B33H         LINE#         785
  C:1B48H         LINE#         786
  C:1B5DH         LINE#         787
  C:1B72H         LINE#         788
  C:1B87H         LINE#         790
  C:1B8FH         LINE#         791
  C:1B8FH         LINE#         793
  C:1B92H         LINE#         794
  C:1B92H         LINE#         797
  C:1BA3H         LINE#         798
  C:1BA3H         LINE#         799
  C:1BB8H         LINE#         800
  C:1BCBH         LINE#         801
  C:1BDEH         LINE#         802
  C:1BF1H         LINE#         804
  C:1C06H         LINE#         805
  C:1C1BH         LINE#         806
  C:1C30H         LINE#         807
  C:1C45H         LINE#         809
  C:1C4DH         LINE#         810
  C:1C4DH         LINE#         812
  C:1C50H         LINE#         813
  C:1C50H         LINE#         816
  C:1C61H         LINE#         817
  C:1C61H         LINE#         818
  C:1C76H         LINE#         819
  C:1C89H         LINE#         820
  C:1C9CH         LINE#         821
  C:1CAFH         LINE#         823
  C:1CC4H         LINE#         824
  C:1CD9H         LINE#         825
  C:1CEEH         LINE#         826
  C:1D03H         LINE#         828
  C:1D0BH         LINE#         829
  C:1D0BH         LINE#         831
  C:1D0EH         LINE#         832
  C:1D0EH         LINE#         835
  C:1D1FH         LINE#         836
  C:1D1FH         LINE#         837
  C:1D34H         LINE#         838
  C:1D47H         LINE#         839
  C:1D5AH         LINE#         840
  C:1D6DH         LINE#         842
  C:1D82H         LINE#         843
  C:1D97H         LINE#         844
  C:1DACH         LINE#         845
  C:1DC1H         LINE#         847
  C:1DC9H         LINE#         848
  C:1DC9H         LINE#         850
  C:1DCCH         LINE#         851
  C:1DCCH         LINE#         854
  C:1DDDH         LINE#         855
BL51 BANKED LINKER/LOCATER V6.22.2.0                                                  12/22/2022  15:38:00  PAGE 119


  C:1DDDH         LINE#         856
  C:1DF2H         LINE#         857
  C:1E05H         LINE#         858
  C:1E18H         LINE#         859
  C:1E2BH         LINE#         861
  C:1E40H         LINE#         862
  C:1E55H         LINE#         863
  C:1E6AH         LINE#         864
  C:1E7FH         LINE#         866
  C:1E87H         LINE#         867
  C:1E87H         LINE#         869
  C:1E8AH         LINE#         870
  C:1E8AH         LINE#         873
  C:1E9BH         LINE#         874
  C:1E9BH         LINE#         875
  C:1EB0H         LINE#         876
  C:1EC3H         LINE#         877
  C:1ED6H         LINE#         878
  C:1EE9H         LINE#         880
  C:1EFEH         LINE#         881
  C:1F13H         LINE#         882
  C:1F28H         LINE#         883
  C:1F3DH         LINE#         885
  C:1F46H         LINE#         886
  C:1F4DH         LINE#         888
  C:1F50H         LINE#         889
  C:1F50H         LINE#         890
  C:1F50H         LINE#         891
  C:1F66H         LINE#         892
  C:1F66H         LINE#         893
  C:1F72H         LINE#         894
  C:1F7AH         LINE#         895
  C:1F7AH         LINE#         896
  C:1F7AH         LINE#         897
  C:1F7AH         LINE#         898
  C:1F7AH         LINE#         899
  C:1F7AH         LINE#         901
  C:1F7AH         LINE#         902
  C:1F7AH         LINE#         904
  C:1FB7H         LINE#         905
  C:1FC4H         LINE#         906
  C:1FC4H         LINE#         908
  C:1FC4H         LINE#         909
  C:1FC4H         LINE#         910
  C:1FE2H         LINE#         911
  C:1FE2H         LINE#         912
  C:1FF0H         LINE#         913
  C:1FF3H         LINE#         914
  C:1FF3H         LINE#         915
  C:1FF9H         LINE#         916
  C:2002H         LINE#         917
  C:2010H         LINE#         918
  C:2023H         LINE#         919
  C:2040H         LINE#         920
  C:205DH         LINE#         922
  C:209EH         LINE#         923
  C:20BFH         LINE#         925
BL51 BANKED LINKER/LOCATER V6.22.2.0                                                  12/22/2022  15:38:00  PAGE 120


  C:20BFH         LINE#         926
  C:20BFH         LINE#         929
  C:20BFH         LINE#         931
  C:20D0H         LINE#         932
  C:20D0H         LINE#         933
  C:20DCH         LINE#         934
  C:20E4H         LINE#         935
  C:20E4H         LINE#         936
  C:20E4H         LINE#         937
  C:20E4H         LINE#         938
  C:20E4H         LINE#         939
  C:20E4H         LINE#         940
  C:20E4H         LINE#         942
  C:20F3H         LINE#         943
  C:20F6H         LINE#         944
  -------         ENDPROC       RECEIVE_MODBUS
  -------         PROC          _ALM_INIT
  D:0006H         SYMBOL        Dat1
  C:4339H         LINE#         946
  C:4339H         LINE#         947
  C:4339H         LINE#         948
  C:433DH         LINE#         949
  C:433DH         LINE#         950
  C:434AH         LINE#         951
  C:434AH         LINE#         952
  C:4351H         LINE#         953
  C:4359H         LINE#         954
  C:4361H         LINE#         955
  C:4369H         LINE#         956
  C:4371H         LINE#         957
  C:4376H         LINE#         958
  C:4376H         LINE#         959
  C:4379H         LINE#         961
  C:4379H         LINE#         962
  C:4380H         LINE#         963
  C:4388H         LINE#         964
  C:4390H         LINE#         965
  C:4398H         LINE#         966
  C:43A0H         LINE#         967
  C:43A8H         LINE#         968
  C:43A9H         LINE#         969
  C:43A9H         LINE#         970
  C:43ACH         LINE#         971
  C:43B0H         LINE#         972
  C:43B0H         LINE#         973
  C:43BDH         LINE#         974
  C:43BDH         LINE#         975
  C:43C4H         LINE#         976
  C:43CCH         LINE#         977
  C:43D4H         LINE#         978
  C:43DCH         LINE#         979
  C:43E4H         LINE#         980
  C:43E9H         LINE#         981
  C:43E9H         LINE#         982
  C:43EBH         LINE#         984
  C:43EBH         LINE#         986
  C:43F2H         LINE#         987
BL51 BANKED LINKER/LOCATER V6.22.2.0                                                  12/22/2022  15:38:00  PAGE 121


  C:43FAH         LINE#         988
  C:4402H         LINE#         989
  C:440AH         LINE#         990
  C:4412H         LINE#         991
  C:441AH         LINE#         992
  C:441BH         LINE#         993
  C:441BH         LINE#         994
  C:441EH         LINE#         995
  C:4422H         LINE#         996
  C:4422H         LINE#         997
  C:442FH         LINE#         998
  C:442FH         LINE#         999
  C:4436H         LINE#         1000
  C:443EH         LINE#         1001
  C:4446H         LINE#         1002
  C:444EH         LINE#         1003
  C:4456H         LINE#         1004
  C:445BH         LINE#         1005
  C:445BH         LINE#         1006
  C:445DH         LINE#         1008
  C:445DH         LINE#         1009
  C:4464H         LINE#         1010
  C:446CH         LINE#         1011
  C:4474H         LINE#         1012
  C:447CH         LINE#         1013
  C:4484H         LINE#         1014
  C:448CH         LINE#         1015
  C:448DH         LINE#         1016
  C:448DH         LINE#         1017
  C:4490H         LINE#         1018
  C:4494H         LINE#         1019
  C:4494H         LINE#         1020
  C:44A1H         LINE#         1021
  C:44A1H         LINE#         1022
  C:44A8H         LINE#         1023
  C:44B0H         LINE#         1024
  C:44B8H         LINE#         1025
  C:44C0H         LINE#         1026
  C:44C8H         LINE#         1027
  C:44CDH         LINE#         1028
  C:44CDH         LINE#         1029
  C:44CFH         LINE#         1031
  C:44CFH         LINE#         1032
  C:44D6H         LINE#         1033
  C:44DEH         LINE#         1034
  C:44E6H         LINE#         1035
  C:44EEH         LINE#         1036
  C:44F6H         LINE#         1037
  C:44FEH         LINE#         1038
  C:44FFH         LINE#         1039
  C:44FFH         LINE#         1040
  C:4502H         LINE#         1041
  C:4506H         LINE#         1042
  C:4506H         LINE#         1043
  C:4513H         LINE#         1044
  C:4513H         LINE#         1045
  C:451AH         LINE#         1046
BL51 BANKED LINKER/LOCATER V6.22.2.0                                                  12/22/2022  15:38:00  PAGE 122


  C:4522H         LINE#         1047
  C:452AH         LINE#         1048
  C:4532H         LINE#         1049
  C:4538H         LINE#         1050
  C:453CH         LINE#         1051
  C:453CH         LINE#         1052
  C:453EH         LINE#         1054
  C:453EH         LINE#         1055
  C:4545H         LINE#         1056
  C:454DH         LINE#         1057
  C:4555H         LINE#         1058
  C:455CH         LINE#         1059
  C:4564H         LINE#         1060
  C:456BH         LINE#         1061
  C:456BH         LINE#         1062
  C:456BH         LINE#         1074
  C:456EH         LINE#         1075
  C:4572H         LINE#         1076
  C:4572H         LINE#         1077
  C:457FH         LINE#         1078
  C:457FH         LINE#         1079
  C:4586H         LINE#         1080
  C:458EH         LINE#         1081
  C:4596H         LINE#         1082
  C:459EH         LINE#         1083
  C:45A4H         LINE#         1084
  C:45A8H         LINE#         1085
  C:45A8H         LINE#         1086
  C:45AAH         LINE#         1088
  C:45AAH         LINE#         1089
  C:45B1H         LINE#         1090
  C:45B9H         LINE#         1091
  C:45C1H         LINE#         1092
  C:45C8H         LINE#         1093
  C:45D0H         LINE#         1094
  C:45D7H         LINE#         1095
  C:45D7H         LINE#         1096
  C:45D7H         LINE#         1108
  C:45DAH         LINE#         1109
  C:45DEH         LINE#         1110
  C:45DEH         LINE#         1111
  C:45EBH         LINE#         1112
  C:45EBH         LINE#         1113
  C:45F2H         LINE#         1114
  C:45FAH         LINE#         1115
  C:4602H         LINE#         1116
  C:460AH         LINE#         1117
  C:4612H         LINE#         1118
  C:4616H         LINE#         1119
  C:4616H         LINE#         1120
  C:4618H         LINE#         1122
  C:4618H         LINE#         1123
  C:461FH         LINE#         1124
  C:4627H         LINE#         1125
  C:462FH         LINE#         1126
  C:4637H         LINE#         1127
  C:463EH         LINE#         1128
BL51 BANKED LINKER/LOCATER V6.22.2.0                                                  12/22/2022  15:38:00  PAGE 123


  C:4645H         LINE#         1129
  C:4645H         LINE#         1130
  C:4645H         LINE#         1142
  C:4648H         LINE#         1143
  C:464CH         LINE#         1144
  C:464CH         LINE#         1145
  C:4659H         LINE#         1146
  C:4659H         LINE#         1147
  C:4660H         LINE#         1148
  C:4668H         LINE#         1149
  C:4670H         LINE#         1150
  C:4678H         LINE#         1151
  C:4680H         LINE#         1152
  C:4684H         LINE#         1153
  C:4684H         LINE#         1154
  C:4686H         LINE#         1156
  C:4686H         LINE#         1157
  C:468DH         LINE#         1158
  C:4695H         LINE#         1159
  C:469DH         LINE#         1160
  C:46A5H         LINE#         1161
  C:46ADH         LINE#         1162
  C:46B4H         LINE#         1163
  C:46B4H         LINE#         1164
  C:46B4H         LINE#         1165
  C:46B7H         LINE#         1166
  C:46BBH         LINE#         1167
  C:46BBH         LINE#         1168
  C:46C8H         LINE#         1169
  C:46C8H         LINE#         1170
  C:46CFH         LINE#         1171
  C:46D7H         LINE#         1172
  C:46DFH         LINE#         1173
  C:46E7H         LINE#         1174
  C:46EEH         LINE#         1175
  C:46EEH         LINE#         1176
  C:46EEH         LINE#         1177
  C:46F0H         LINE#         1179
  C:46F0H         LINE#         1180
  C:46F7H         LINE#         1181
  C:46FFH         LINE#         1182
  C:4707H         LINE#         1183
  C:470FH         LINE#         1184
  C:4717H         LINE#         1185
  C:471CH         LINE#         1186
  C:471CH         LINE#         1187
  C:471CH         LINE#         1188
  C:471FH         LINE#         1189
  C:4723H         LINE#         1190
  C:4723H         LINE#         1191
  C:4730H         LINE#         1192
  C:4730H         LINE#         1193
  C:4737H         LINE#         1194
  C:473FH         LINE#         1195
  C:4747H         LINE#         1196
  C:474FH         LINE#         1197
  C:4754H         LINE#         1198
BL51 BANKED LINKER/LOCATER V6.22.2.0                                                  12/22/2022  15:38:00  PAGE 124


  C:4754H         LINE#         1199
  C:4754H         LINE#         1200
  C:4756H         LINE#         1202
  C:4756H         LINE#         1203
  C:475DH         LINE#         1204
  C:4764H         LINE#         1205
  C:476CH         LINE#         1206
  C:4774H         LINE#         1207
  C:477CH         LINE#         1208
  C:4781H         LINE#         1209
  C:4781H         LINE#         1210
  C:4781H         LINE#         1211
  C:4784H         LINE#         1212
  C:4788H         LINE#         1213
  C:4788H         LINE#         1214
  C:4795H         LINE#         1215
  C:4795H         LINE#         1216
  C:479CH         LINE#         1217
  C:47A4H         LINE#         1218
  C:47ACH         LINE#         1219
  C:47B4H         LINE#         1220
  C:47B9H         LINE#         1221
  C:47BCH         LINE#         1222
  C:47BCH         LINE#         1223
  C:47BEH         LINE#         1225
  C:47BEH         LINE#         1226
  C:47C5H         LINE#         1227
  C:47CDH         LINE#         1228
  C:47D5H         LINE#         1229
  C:47DDH         LINE#         1230
  C:47E5H         LINE#         1231
  C:47ECH         LINE#         1232
  C:47ECH         LINE#         1233
  C:47ECH         LINE#         1234
  C:47EFH         LINE#         1235
  C:47F3H         LINE#         1236
  C:47F3H         LINE#         1237
  C:4800H         LINE#         1238
  C:4800H         LINE#         1239
  C:4807H         LINE#         1240
  C:480FH         LINE#         1241
  C:4817H         LINE#         1242
  C:481FH         LINE#         1243
  C:4824H         LINE#         1244
  C:4824H         LINE#         1245
  C:4824H         LINE#         1246
  C:4826H         LINE#         1248
  C:4826H         LINE#         1249
  C:482DH         LINE#         1250
  C:4835H         LINE#         1251
  C:483CH         LINE#         1252
  C:4844H         LINE#         1253
  C:484CH         LINE#         1254
  C:4851H         LINE#         1255
  C:4851H         LINE#         1256
  C:4851H         LINE#         1257
  C:4854H         LINE#         1258
BL51 BANKED LINKER/LOCATER V6.22.2.0                                                  12/22/2022  15:38:00  PAGE 125


  C:4858H         LINE#         1259
  C:4858H         LINE#         1260
  C:4865H         LINE#         1261
  C:4865H         LINE#         1262
  C:486BH         LINE#         1263
  C:4873H         LINE#         1264
  C:487BH         LINE#         1265
  C:4883H         LINE#         1266
  C:4889H         LINE#         1267
  C:488DH         LINE#         1268
  C:488DH         LINE#         1269
  C:488FH         LINE#         1271
  C:488FH         LINE#         1272
  C:4895H         LINE#         1273
  C:489DH         LINE#         1274
  C:48A5H         LINE#         1275
  C:48ACH         LINE#         1276
  C:48B4H         LINE#         1277
  C:48BBH         LINE#         1278
  C:48BBH         LINE#         1279
  C:48BBH         LINE#         1280
  C:48BEH         LINE#         1281
  C:48C2H         LINE#         1282
  C:48C2H         LINE#         1283
  C:48CFH         LINE#         1284
  C:48CFH         LINE#         1285
  C:48D1H         LINE#         1286
  C:48D1H         LINE#         1287
  C:48D1H         LINE#         1288
  C:48D1H         LINE#         1289
  C:48D1H         LINE#         1290
  C:48D1H         LINE#         1291
  C:48D1H         LINE#         1292
  C:48D3H         LINE#         1294
  C:48D3H         LINE#         1295
  C:48DAH         LINE#         1296
  C:48E1H         LINE#         1297
  C:48E9H         LINE#         1298
  C:48F1H         LINE#         1299
  C:48F7H         LINE#         1300
  C:48FEH         LINE#         1301
  C:48FFH         LINE#         1302
  C:48FFH         LINE#         1303
  C:4901H         LINE#         1304
  C:4905H         LINE#         1305
  C:4905H         LINE#         1306
  C:4912H         LINE#         1307
  C:4912H         LINE#         1308
  C:4918H         LINE#         1309
  C:4918H         LINE#         1310
  C:4918H         LINE#         1311
  C:4918H         LINE#         1312
  C:4918H         LINE#         1313
  C:4918H         LINE#         1314
  C:4918H         LINE#         1315
  C:491AH         LINE#         1317
  C:491AH         LINE#         1318
BL51 BANKED LINKER/LOCATER V6.22.2.0                                                  12/22/2022  15:38:00  PAGE 126


  C:4921H         LINE#         1319
  C:4928H         LINE#         1320
  C:4930H         LINE#         1321
  C:4938H         LINE#         1322
  C:493EH         LINE#         1323
  C:4945H         LINE#         1324
  C:494AH         LINE#         1325
  C:494AH         LINE#         1326
  C:494CH         LINE#         1327
  C:4950H         LINE#         1328
  C:4950H         LINE#         1329
  C:495DH         LINE#         1330
  C:495DH         LINE#         1331
  C:4963H         LINE#         1332
  C:496AH         LINE#         1333
  C:4972H         LINE#         1334
  C:497AH         LINE#         1335
  C:4982H         LINE#         1336
  C:498AH         LINE#         1337
  C:4992H         LINE#         1338
  C:4994H         LINE#         1340
  C:4994H         LINE#         1341
  C:499AH         LINE#         1342
  C:49A2H         LINE#         1343
  C:49A9H         LINE#         1344
  C:49B1H         LINE#         1345
  C:49B9H         LINE#         1346
  C:49BEH         LINE#         1347
  C:49C5H         LINE#         1348
  C:49C5H         LINE#         1349
  C:49C5H         LINE#         1351
  C:49DAH         LINE#         1352
  C:49EFH         LINE#         1353
  C:4A04H         LINE#         1354
  C:4A19H         LINE#         1355
  C:4A2EH         LINE#         1356
  C:4A43H         LINE#         1357
  C:4A58H         LINE#         1359
  C:4A5FH         LINE#         1360
  -------         ENDPROC       _ALM_INIT
  -------         ENDMOD        RECEIVEDATA

  -------         MODULE        VARS
  C:0000H         SYMBOL        _ICE_DUMMY_
  X:BF47H         PUBLIC        gCtrlPara
  X:C048H         PUBLIC        TP_Status_Old
  X:C050H         PUBLIC        Contorlcount
  C:7568H         PUBLIC        Vars_Initialize
  X:C052H         PUBLIC        TP_Status_New
  X:C05AH         PUBLIC        HOST_Addr
  X:C05CH         PUBLIC        gTime1
  X:C05EH         PUBLIC        gTime2
  X:C060H         PUBLIC        gTime3
  X:C062H         PUBLIC        gTime4
  X:C064H         PUBLIC        gTime5
  X:C066H         PUBLIC        gTime6
  X:C068H         PUBLIC        gTime7
BL51 BANKED LINKER/LOCATER V6.22.2.0                                                  12/22/2022  15:38:00  PAGE 127


  X:C06AH         PUBLIC        gTime8
  X:C06CH         PUBLIC        gTime9
  X:C06EH         PUBLIC        Read_StatusFlag
  X:C070H         PUBLIC        HMI_VERSION
  X:C079H         PUBLIC        gTime
  -------         PROC          VARS_INITIALIZE
  C:7568H         LINE#         25
  C:7568H         LINE#         26
  C:7568H         LINE#         28
  C:756FH         LINE#         29
  C:7575H         LINE#         30
  C:757BH         LINE#         31
  C:757FH         LINE#         33
  C:7583H         LINE#         34
  C:758AH         LINE#         35
  C:758FH         LINE#         37
  C:7595H         LINE#         38
  C:759DH         LINE#         40
  C:75A4H         LINE#         41
  C:75A8H         LINE#         43
  C:75B0H         LINE#         44
  C:75BAH         LINE#         45
  C:75C1H         LINE#         46
  C:75C5H         LINE#         48
  C:75CBH         LINE#         49
  C:75D1H         LINE#         50
  C:75D5H         LINE#         51
  C:75D9H         LINE#         52
  C:75DDH         LINE#         53
  C:75E1H         LINE#         54
  C:75E5H         LINE#         55
  C:75E9H         LINE#         56
  C:75EDH         LINE#         57
  C:75F1H         LINE#         59
  C:75F7H         LINE#         60
  C:75FBH         LINE#         62
  C:7600H         LINE#         63
  C:7602H         LINE#         64
  C:7604H         LINE#         65
  C:7606H         LINE#         66
  C:7608H         LINE#         68
  C:760AH         LINE#         70
  C:760EH         LINE#         71
  C:7612H         LINE#         72
  C:7614H         LINE#         73
  C:7618H         LINE#         74
  C:761AH         LINE#         76
  C:761FH         LINE#         77
  C:7623H         LINE#         78
  C:7627H         LINE#         79
  C:762BH         LINE#         80
  C:762FH         LINE#         81
  C:7633H         LINE#         82
  C:7637H         LINE#         84
  C:763BH         LINE#         85
  C:7641H         LINE#         87
  C:7647H         LINE#         88
BL51 BANKED LINKER/LOCATER V6.22.2.0                                                  12/22/2022  15:38:00  PAGE 128


  C:764BH         LINE#         89
  C:764FH         LINE#         91
  C:7653H         LINE#         92
  C:7657H         LINE#         93
  C:765DH         LINE#         95
  C:7663H         LINE#         96
  C:7667H         LINE#         98
  C:766BH         LINE#         99
  C:766FH         LINE#         100
  C:7673H         LINE#         101
  C:7677H         LINE#         103
  C:767BH         LINE#         104
  C:767FH         LINE#         105
  C:7683H         LINE#         106
  C:7687H         LINE#         108
  C:768BH         LINE#         110
  C:768FH         LINE#         111
  C:7693H         LINE#         112
  C:7697H         LINE#         113
  C:769BH         LINE#         115
  C:769FH         LINE#         116
  C:76A3H         LINE#         118
  C:76A9H         LINE#         119
  C:76ADH         LINE#         121
  C:76B1H         LINE#         122
  C:76B5H         LINE#         123
  C:76B9H         LINE#         124
  C:76BDH         LINE#         126
  C:76C3H         LINE#         128
  C:76C7H         LINE#         129
  C:76CBH         LINE#         130
  C:76CFH         LINE#         132
  C:76D3H         LINE#         133
  C:76D9H         LINE#         134
  C:76DFH         LINE#         135
  C:76E3H         LINE#         136
  C:76E9H         LINE#         137
  C:76EDH         LINE#         138
  C:76F1H         LINE#         139
  C:76F5H         LINE#         141
  C:76F9H         LINE#         142
  C:76FDH         LINE#         143
  C:7701H         LINE#         144
  C:7705H         LINE#         145
  C:7709H         LINE#         146
  C:770DH         LINE#         148
  C:7711H         LINE#         149
  C:7715H         LINE#         150
  C:7719H         LINE#         151
  C:771DH         LINE#         152
  C:7721H         LINE#         153
  C:7725H         LINE#         154
  C:7729H         LINE#         155
  C:772DH         LINE#         156
  C:7731H         LINE#         158
  C:7735H         LINE#         159
  C:7739H         LINE#         160
BL51 BANKED LINKER/LOCATER V6.22.2.0                                                  12/22/2022  15:38:00  PAGE 129


  C:773DH         LINE#         161
  C:7743H         LINE#         162
  C:7749H         LINE#         163
  C:7750H         LINE#         164
  C:7756H         LINE#         165
  C:775BH         LINE#         167
  C:775FH         LINE#         168
  C:7763H         LINE#         169
  C:7767H         LINE#         171
  C:776BH         LINE#         172
  C:776FH         LINE#         173
  C:7773H         LINE#         175
  C:7777H         LINE#         176
  C:777BH         LINE#         177
  C:777FH         LINE#         178
  C:7783H         LINE#         179
  C:7787H         LINE#         180
  C:778DH         LINE#         182
  C:7794H         LINE#         183
  C:779AH         LINE#         184
  C:779FH         LINE#         185
  C:77A3H         LINE#         186
  C:77A7H         LINE#         187
  C:77ABH         LINE#         188
  C:77AFH         LINE#         190
  C:77B3H         LINE#         191
  C:77B7H         LINE#         192
  C:77BBH         LINE#         193
  C:77BFH         LINE#         195
  C:77C3H         LINE#         197
  C:77C7H         LINE#         198
  C:77CAH         LINE#         200
  C:77D1H         LINE#         201
  -------         ENDPROC       VARS_INITIALIZE
  -------         ENDMOD        VARS

  -------         MODULE        ?C?COPY
  C:522AH         PUBLIC        ?C?COPY
  -------         ENDMOD        ?C?COPY

  -------         MODULE        ?C?CLDPTR
  C:5250H         PUBLIC        ?C?CLDPTR
  -------         ENDMOD        ?C?CLDPTR

  -------         MODULE        ?C?CLDOPTR
  C:5269H         PUBLIC        ?C?CLDOPTR
  -------         ENDMOD        ?C?CLDOPTR

  -------         MODULE        ?C?CSTPTR
  C:5296H         PUBLIC        ?C?CSTPTR
  -------         ENDMOD        ?C?CSTPTR

  -------         MODULE        ?C?IMUL
  C:52A8H         PUBLIC        ?C?IMUL
  -------         ENDMOD        ?C?IMUL

  -------         MODULE        ?C?UIDIV
BL51 BANKED LINKER/LOCATER V6.22.2.0                                                  12/22/2022  15:38:00  PAGE 130


  C:52BAH         PUBLIC        ?C?UIDIV
  -------         ENDMOD        ?C?UIDIV

  -------         MODULE        ?C?IILDX
  C:530FH         PUBLIC        ?C?IILDX
  -------         ENDMOD        ?C?IILDX

  -------         MODULE        ?C?ILDIX
  C:5325H         PUBLIC        ?C?ILDIX
  -------         ENDMOD        ?C?ILDIX

  -------         MODULE        ?C?ILDPTR
  C:533BH         PUBLIC        ?C?ILDPTR
  -------         ENDMOD        ?C?ILDPTR

  -------         MODULE        ?C?ILDOPTR
  C:5366H         PUBLIC        ?C?ILDOPTR
  -------         ENDMOD        ?C?ILDOPTR

  -------         MODULE        ?C?IILDPTR
  C:539EH         PUBLIC        ?C?IILDPTR
  -------         ENDMOD        ?C?IILDPTR

  -------         MODULE        ?C?ISTPTR
  C:53D6H         PUBLIC        ?C?ISTPTR
  -------         ENDMOD        ?C?ISTPTR

  -------         MODULE        ?C?LMUL
  C:53F5H         PUBLIC        ?C?LMUL
  -------         ENDMOD        ?C?LMUL

  -------         MODULE        ?C?ULDIV
  C:5480H         PUBLIC        ?C?ULDIV
  -------         ENDMOD        ?C?ULDIV

  -------         MODULE        ?C?SLDIV
  C:B04CH         PUBLIC        ?C?SLDIV
  -------         ENDMOD        ?C?SLDIV

  -------         MODULE        ?C?ULCMP
  C:5512H         PUBLIC        ?C?ULCMP
  -------         ENDMOD        ?C?ULCMP

  -------         MODULE        ?C?ULSHR
  C:5523H         PUBLIC        ?C?ULSHR
  -------         ENDMOD        ?C?ULSHR

  -------         MODULE        ?C?LSHL
  C:5536H         PUBLIC        ?C?LSHL
  -------         ENDMOD        ?C?LSHL

  -------         MODULE        ?C?LSTXDATA
  C:5549H         PUBLIC        ?C?LSTXDATA
  -------         ENDMOD        ?C?LSTXDATA

  -------         MODULE        ?C?LSTKXDATA
  C:5555H         PUBLIC        ?C?LSTKXDATA
BL51 BANKED LINKER/LOCATER V6.22.2.0                                                  12/22/2022  15:38:00  PAGE 131


  -------         ENDMOD        ?C?LSTKXDATA

  -------         MODULE        ?C?OFFXADD
  C:5586H         PUBLIC        ?C?OFFXADD
  -------         ENDMOD        ?C?OFFXADD

  -------         MODULE        ?C?PLDPTR
  C:5592H         PUBLIC        ?C?PLDPTR
  -------         ENDMOD        ?C?PLDPTR

  -------         MODULE        ?C?PLDOPTR
  C:55B2H         PUBLIC        ?C?PLDOPTR
  -------         ENDMOD        ?C?PLDOPTR

  -------         MODULE        ?C?ICALL
  C:55E2H         PUBLIC        ?C?ICALL
  C:55E6H         PUBLIC        ?C?ICALL2
  -------         ENDMOD        ?C?ICALL

  -------         MODULE        ?C?STRCMP
  C:5766H         PUBLIC        ?C?STRCMP
  -------         ENDMOD        ?C?STRCMP

  -------         MODULE        ?C?PLDIDATA
  C:5783H         PUBLIC        ?C?PLDIDATA
  -------         ENDMOD        ?C?PLDIDATA

  -------         MODULE        ?C?PLDXDATA
  C:578CH         PUBLIC        ?C?PLDXDATA
  -------         ENDMOD        ?C?PLDXDATA

  -------         MODULE        ?C?PLDPDATA
  C:5795H         PUBLIC        ?C?PLDPDATA
  -------         ENDMOD        ?C?PLDPDATA

  -------         MODULE        ?C?PLDCODE
  C:579EH         PUBLIC        ?C?PLDCODE
  -------         ENDMOD        ?C?PLDCODE

*** WARNING L16: UNCALLED SEGMENT, IGNORED FOR OVERLAY PROCESS
    SEGMENT: ?PR?RESETT5L?SYS

*** WARNING L16: UNCALLED SEGMENT, IGNORED FOR OVERLAY PROCESS
    SEGMENT: ?PR?_TOUCHSWITCH?SYS

*** WARNING L16: UNCALLED SEGMENT, IGNORED FOR OVERLAY PROCESS
    SEGMENT: ?PR?_MUSICPLAY?SYS

*** WARNING L16: UNCALLED SEGMENT, IGNORED FOR OVERLAY PROCESS
    SEGMENT: ?PR?NORFLASH_ACTION?SYS

*** WARNING L16: UNCALLED SEGMENT, IGNORED FOR OVERLAY PROCESS
    SEGMENT: ?PR?SPIFLASH_ACTION?SYS

*** WARNING L16: UNCALLED SEGMENT, IGNORED FOR OVERLAY PROCESS
    SEGMENT: ?PR?GETPAGEID?SYS

BL51 BANKED LINKER/LOCATER V6.22.2.0                                                  12/22/2022  15:38:00  PAGE 132


*** WARNING L16: UNCALLED SEGMENT, IGNORED FOR OVERLAY PROCESS
    SEGMENT: ?PR?_GETPININ?SYS

*** WARNING L16: UNCALLED SEGMENT, IGNORED FOR OVERLAY PROCESS
    SEGMENT: ?PR?_GETTOUCHANCTION?SYS

*** WARNING L16: UNCALLED SEGMENT, IGNORED FOR OVERLAY PROCESS
    SEGMENT: ?PR?_UART4_SENDBYTE32?UART

*** WARNING L16: UNCALLED SEGMENT, IGNORED FOR OVERLAY PROCESS
    SEGMENT: ?PR?CANERRORRESET?CANBUS

*** WARNING L16: UNCALLED SEGMENT, IGNORED FOR OVERLAY PROCESS
    SEGMENT: ?PR?POLLING2?UI

*** WARNING L16: UNCALLED SEGMENT, IGNORED FOR OVERLAY PROCESS
    SEGMENT: ?PR?_SSD2828_READ_MIPI?SSD2828

*** WARNING L16: UNCALLED SEGMENT, IGNORED FOR OVERLAY PROCESS
    SEGMENT: ?PR?W_WRITE?SSD2828

*** WARNING L16: UNCALLED SEGMENT, IGNORED FOR OVERLAY PROCESS
    SEGMENT: ?PR?_WRITE_RTC?RTC

*** WARNING L16: UNCALLED SEGMENT, IGNORED FOR OVERLAY PROCESS
    SEGMENT: ?PR?WRITE_WIFI_RTC?RTC

*** WARNING L16: UNCALLED SEGMENT, IGNORED FOR OVERLAY PROCESS
    SEGMENT: ?PR?RTC_READ_AND_SET?RTC

*** WARNING L16: UNCALLED SEGMENT, IGNORED FOR OVERLAY PROCESS
    SEGMENT: ?PR?_SEND_MODBUS04_10?MYMODBUS

*** WARNING L16: UNCALLED SEGMENT, IGNORED FOR OVERLAY PROCESS
    SEGMENT: ?PR?_SEND_MODBUS08_10?MYMODBUS

Program Size: data=33.2 xdata=16892 code=45940
LINK/LOCATE RUN COMPLETE.  18 WARNING(S),  0 ERROR(S)
