BL51 BANKED LINKER/LOCATER V6.22.2.0                                                    12/09/2022  13:55:10  PAGE 1


BL51 BANKED LINKER/LOCATER V6.22.2.0, INVOKED BY:
C:\KEIL_V5\C51\BIN\BL51.EXE .\Objects\STARTUP_M5.obj, .\Objects\sys.obj, .\Objects\timer.obj, .\Objects\uart.obj, .\Obje
>> cts\canbus.obj, .\Objects\main.obj, .\Objects\const.obj, .\Objects\ui.obj, .\Objects\dwin8283.obj, .\Objects\ssd2828.
>> obj, .\Objects\rtc.obj, .\Objects\MYModBus.obj, .\Objects\ReceiveData.obj, .\Objects\vars.obj TO .\Objects\T5L51 PRIN
>> T (.\Listings\T5L51.m51) RAMSIZE (256) CODE (0X0100-0XFEFF) XDATA (0X8000-0XFFFF)


MEMORY MODEL: LARGE


INPUT MODULES INCLUDED:
  .\Objects\STARTUP_M5.obj (STARTUP_M5)
  .\Objects\sys.obj (SYS)
  .\Objects\timer.obj (TIMER)
  .\Objects\uart.obj (UART)
  .\Objects\canbus.obj (CANBUS)
  .\Objects\main.obj (MAIN)
  .\Objects\const.obj (CONST)
  .\Objects\ui.obj (UI)
  .\Objects\dwin8283.obj (DWIN8283)
  .\Objects\ssd2828.obj (SSD2828)
  .\Objects\rtc.obj (RTC)
  .\Objects\MYModBus.obj (MYMODBUS)
  .\Objects\ReceiveData.obj (RECEIVEDATA)
  .\Objects\vars.obj (VARS)
  C:\KEIL_V5\C51\LIB\C51L.LIB (?C_STARTUP)
  C:\KEIL_V5\C51\LIB\C51L.LIB (?C_INIT)
  C:\KEIL_V5\C51\LIB\C51L.LIB (?C?COPY)
  C:\KEIL_V5\C51\LIB\C51L.LIB (?C?CLDPTR)
  C:\KEIL_V5\C51\LIB\C51L.LIB (?C?CLDOPTR)
  C:\KEIL_V5\C51\LIB\C51L.LIB (?C?CSTPTR)
  C:\KEIL_V5\C51\LIB\C51L.LIB (?C?IMUL)
  C:\KEIL_V5\C51\LIB\C51L.LIB (?C?UIDIV)
  C:\KEIL_V5\C51\LIB\C51L.LIB (?C?IILDX)
  C:\KEIL_V5\C51\LIB\C51L.LIB (?C?ILDIX)
  C:\KEIL_V5\C51\LIB\C51L.LIB (?C?ILDPTR)
  C:\KEIL_V5\C51\LIB\C51L.LIB (?C?ILDOPTR)
  C:\KEIL_V5\C51\LIB\C51L.LIB (?C?IILDPTR)
  C:\KEIL_V5\C51\LIB\C51L.LIB (?C?ISTPTR)
  C:\KEIL_V5\C51\LIB\C51L.LIB (?C?LMUL)
  C:\KEIL_V5\C51\LIB\C51L.LIB (?C?ULDIV)
  C:\KEIL_V5\C51\LIB\C51L.LIB (?C?SLDIV)
  C:\KEIL_V5\C51\LIB\C51L.LIB (?C?ULCMP)
  C:\KEIL_V5\C51\LIB\C51L.LIB (?C?ULSHR)
  C:\KEIL_V5\C51\LIB\C51L.LIB (?C?LSHL)
  C:\KEIL_V5\C51\LIB\C51L.LIB (?C?LSTXDATA)
  C:\KEIL_V5\C51\LIB\C51L.LIB (?C?LSTKXDATA)
  C:\KEIL_V5\C51\LIB\C51L.LIB (?C?OFFXADD)
  C:\KEIL_V5\C51\LIB\C51L.LIB (?C?PLDPTR)
  C:\KEIL_V5\C51\LIB\C51L.LIB (?C?PLDOPTR)
  C:\KEIL_V5\C51\LIB\C51L.LIB (?C?ICALL)
  C:\KEIL_V5\C51\LIB\C51L.LIB (?C?STRCMP)
  C:\KEIL_V5\C51\LIB\C51L.LIB (?C?PLDIDATA)
  C:\KEIL_V5\C51\LIB\C51L.LIB (?C?PLDXDATA)
  C:\KEIL_V5\C51\LIB\C51L.LIB (?C?PLDPDATA)
  C:\KEIL_V5\C51\LIB\C51L.LIB (?C?PLDCODE)


BL51 BANKED LINKER/LOCATER V6.22.2.0                                                  12/09/2022  13:55:10  PAGE 2


LINK MAP OF MODULE:  .\Objects\T5L51 (STARTUP_M5)


            TYPE    BASE      LENGTH    RELOCATION   SEGMENT NAME
            -----------------------------------------------------

            * * * * * * *   D A T A   M E M O R Y   * * * * * * *
            REG     0000H     0008H     ABSOLUTE     "REG BANK 0"
            DATA    0008H     0013H     UNIT         ?DT?TIMER
            DATA    001BH     0003H     UNIT         _DATA_GROUP_
            DATA    001EH     0002H     UNIT         ?DT?SYS
            BIT     0020H.0   0000H.1   UNIT         ?BI?SSD2828
            BIT     0020H.1   0000H.1   UNIT         ?BI?RTC
                    0020H.2   0000H.6                *** GAP ***
            IDATA   0021H     0001H     UNIT         ?STACK

            * * * * * * *  X D A T A   M E M O R Y  * * * * * * *
                    0000H     8000H                  *** GAP ***
            XDATA   8000H     2228H     UNIT         ?XD?UART
            XDATA   A228H     1A05H     UNIT         ?XD?CANBUS
            XDATA   BC2DH     031AH     UNIT         ?XD?DWIN8283
            XDATA   BF47H     012FH     UNIT         ?XD?VARS
            XDATA   C076H     0057H     UNIT         ?XD?SYS
            XDATA   C0CDH     0041H     UNIT         ?XD?TIMER
            XDATA   C10EH     003CH     UNIT         _XDATA_GROUP_
            XDATA   C14AH     0017H     UNIT         ?XD?MYMODBUS
            XDATA   C161H     0012H     UNIT         ?XD?_WRITE_RTC?RTC
            XDATA   C173H     000FH     UNIT         ?XD?WRITE_WIFI_RTC?RTC
            XDATA   C182H     000EH     UNIT         ?XD?_SEND_MODBUS08_10?MYMODBUS
            XDATA   C190H     000DH     UNIT         ?XD?_TOUCHSWITCH?SYS
            XDATA   C19DH     000CH     UNIT         ?XD?SPIFLASH_ACTION?SYS
            XDATA   C1A9H     000BH     UNIT         ?XD?_GETTOUCHANCTION?SYS
            XDATA   C1B4H     000AH     UNIT         ?XD?_SEND_MODBUS04_10?MYMODBUS
            XDATA   C1BEH     0008H     UNIT         ?XD?NORFLASH_ACTION?SYS
            XDATA   C1C6H     0008H     UNIT         ?XD?GETTOUCHSTATUS?SYS
            XDATA   C1CEH     0008H     UNIT         ?XD?RTC
            XDATA   C1D6H     0005H     UNIT         ?XD?_MUSICPLAY?SYS
            XDATA   C1DBH     0005H     UNIT         ?XD?_SSD2828_READREG?SSD2828
            XDATA   C1E0H     0005H     UNIT         ?XD?_SSD2828_READ_MIPI?SSD2828
            XDATA   C1E5H     0005H     UNIT         ?XD?_RTC_GET_WEEK?RTC
            XDATA   C1EAH     0004H     UNIT         ?XD?RESETT5L?SYS
            XDATA   C1EEH     0004H     UNIT         ?XD?_UART4_SENDBYTE32?UART
            XDATA   C1F2H     0003H     UNIT         ?XD?_W_COM?SSD2828
            XDATA   C1F5H     0002H     UNIT         ?XD?GETPAGEID?SYS

            * * * * * * *   C O D E   M E M O R Y   * * * * * * *
            CODE    0000H     0003H     ABSOLUTE     
                    0003H     0008H                  *** GAP ***
            CODE    000BH     0003H     ABSOLUTE     
                    000EH     0015H                  *** GAP ***
            CODE    0023H     0003H     ABSOLUTE     
                    0026H     0005H                  *** GAP ***
            CODE    002BH     0003H     ABSOLUTE     
                    002EH     001DH                  *** GAP ***
            CODE    004BH     0003H     ABSOLUTE     
                    004EH     0005H                  *** GAP ***
            CODE    0053H     0003H     ABSOLUTE     
BL51 BANKED LINKER/LOCATER V6.22.2.0                                                  12/09/2022  13:55:10  PAGE 3


                    0056H     0005H                  *** GAP ***
            CODE    005BH     0003H     ABSOLUTE     
                    005EH     0005H                  *** GAP ***
            CODE    0063H     0003H     ABSOLUTE     
                    0066H     0005H                  *** GAP ***
            CODE    006BH     0003H     ABSOLUTE     
                    006EH     0015H                  *** GAP ***
            CODE    0083H     0003H     ABSOLUTE     
                    0086H     0072H                  *** GAP ***
            CODE    00F8H     000BH     ABSOLUTE     
            CODE    0103H     1F2EH     UNIT         ?PR?RECEIVE_MODBUS?RECEIVEDATA
            CODE    2031H     0BD0H     UNIT         ?PR?TOUCH_SCAN_1_2_6?UI
            CODE    2C01H     0888H     UNIT         ?PR?FILE_CONTROL?UI
            CODE    3489H     0736H     UNIT         ?PR?_ALM_INIT?RECEIVEDATA
            CODE    3BBFH     06EBH     UNIT         ?PR?W_WRITE?SSD2828
            CODE    42AAH     0650H     UNIT         ?C?LIB_CODE
            CODE    48FAH     05DBH     UNIT         ?PR?C055_CODE_DOWNLOAD?SSD2828
            CODE    4ED5H     05C6H     UNIT         ?PR?POLLING1_6?UI
            CODE    549BH     053CH     UNIT         ?PR?_PRO8283RXTREAT?DWIN8283
            CODE    59D7H     041DH     UNIT         ?PR?COORDINATE_CONTROL?UI
            CODE    5DF4H     036DH     UNIT         ?PR?CAN_ISR?CANBUS
            CODE    6161H     02D8H     UNIT         ?PR?POLLING15_17?UI
            CODE    6439H     027FH     UNIT         ?PR?_CANTX?CANBUS
            CODE    66B8H     025CH     UNIT         ?PR?VARS_INITIALIZE?VARS
            CODE    6914H     023DH     UNIT         ?PR?TOUCH_SCAN_10_12?UI
            CODE    6B51H     0217H     UNIT         ?PR?POLLING10_12?UI
            CODE    6D68H     0200H     UNIT         ?CO?MYMODBUS
            CODE    6F68H     01F8H     UNIT         ?PR?_GETTOUCHANCTION?SYS
            CODE    7160H     01DCH     UNIT         ?PR?TOUCH_SCAN_13?UI
            CODE    733CH     01CDH     UNIT         ?PR?_READ_DGUS_VP?SYS
            CODE    7509H     01B3H     UNIT         ?PR?_UATR_SEND_DATA?UART
            CODE    76BCH     019EH     UNIT         ?PR?TOUCH_SCAN_4?UI
            CODE    785AH     0193H     UNIT         ?PR?_WRITE_DGUS_VP?SYS
            CODE    79EDH     0186H     UNIT         ?CO?SSD2828
            CODE    7B73H     017BH     UNIT         ?PR?TOUCH_SCAN_3?UI
            CODE    7CEEH     016CH     UNIT         ?PR?LOADONEFRAME?CANBUS
            CODE    7E5AH     013FH     UNIT         ?PR?PRO8283DEAL?DWIN8283
            CODE    7F99H     012CH     UNIT         ?PR?_SYS_WRITE_VP?SYS
            CODE    80C5H     0120H     UNIT         ?PR?SPIFLASH_ACTION?SYS
            CODE    81E5H     011AH     UNIT         ?PR?TOUCH_SCAN_5?UI
            CODE    82FFH     0112H     UNIT         ?PR?STA_INIT?MAIN
            CODE    8411H     010FH     UNIT         ?PR?SSD2828_INIT?SSD2828
            CODE    8520H     00F6H     UNIT         ?PR?NORFLASH_ACTION?SYS
            CODE    8616H     00F6H     UNIT         ?PR?_SEND_MODBUS?MYMODBUS
            CODE    870CH     00EBH     UNIT         ?PR?TOUCH_SCAN_16?UI
            CODE    87F7H     00EAH     UNIT         ?PR?_SSD2828_REGCONFIG?SSD2828
            CODE    88E1H     00E5H     UNIT         ?PR?_SYS_READ_VP?SYS
            CODE    89C6H     00E5H     UNIT         ?PR?CONTORL?UI
            CODE    8AABH     00E1H     UNIT         ?PR?GETTOUCHSTATUS?SYS
            CODE    8B8CH     00CFH     UNIT         ?PR?RDTIME?RTC
            CODE    8C5BH     00CDH     UNIT         ?PR?_WRITE_RTC?RTC
            CODE    8D28H     00C9H     UNIT         ?PR?SEND_MODBUS_IP?MYMODBUS
            CODE    8DF1H     00C6H     UNIT         ?PR?PRO8283INIT?DWIN8283
            CODE    8EB7H     00C1H     UNIT         ?PR?_SSD2828_READREG?SSD2828
            CODE    8F78H     00BFH     UNIT         ?PR?SSD2828_READID?SSD2828
            CODE    9037H     00BEH     UNIT         ?PR?_W_COM?SSD2828
            CODE    90F5H     00AFH     UNIT         ?PR?WRITE_WIFI_RTC?RTC
BL51 BANKED LINKER/LOCATER V6.22.2.0                                                  12/09/2022  13:55:10  PAGE 4


            CODE    91A4H     00A9H     UNIT         ?PR?_SSD2828_WRITEPACKAGE?SSD2828
            CODE    924DH     009BH     UNIT         ?PR?UART3_ISR?UART
            CODE    92E8H     0094H     UNIT         ?PR?_RTC_GET_WEEK?RTC
            CODE    937CH     0093H     UNIT         ?PR?_PINOUTPUT?SYS
            CODE    940FH     0091H     UNIT         ?PR?_CANBUSINIT?CANBUS
            CODE    94A0H     008FH     UNIT         ?PR?UART2_ISR?UART
            CODE    952FH     008CH     UNIT         ?C_C51STARTUP
            CODE    95BBH     0087H     UNIT         ?PR?AUTOUPLOADVALUE?DWIN8283
            CODE    9642H     0083H     UNIT         ?PR?TOUCH_SCAN_0?UI
            CODE    96C5H     0083H     UNIT         ?PR?_CRC16?MYMODBUS
            CODE    9748H     0081H     UNIT         ?PR?_PAGE_CHANGE?SYS
            CODE    97C9H     0081H     UNIT         ?PR?T0_ISR_PC?TIMER
            CODE    984AH     0081H     UNIT         ?PR?TOUCH_SCAN_14?UI
            CODE    98CBH     007AH     UNIT         ?PR?_SSD2828_READ_MIPI?SSD2828
            CODE    9945H     007AH     UNIT         ?PR?_SEND_MODBUS08_10?MYMODBUS
            CODE    99BFH     0075H     UNIT         ?PR?_I2CBW?RTC
            CODE    9A34H     0072H     UNIT         ?PR?MAIN?MAIN
            CODE    9AA6H     0072H     UNIT         ?PR?INIT_RTC?RTC
            CODE    9B18H     006FH     UNIT         ?PR?_SEND_MODBUS04_10?MYMODBUS
            CODE    9B87H     006BH     UNIT         ?PR?PAGEFUNCTION?UI
            CODE    9BF2H     0067H     UNIT         ?PR?LCD_PA_SET?SSD2828
            CODE    9C59H     0062H     UNIT         ?PR?_TOUCHSWITCH?SYS
            CODE    9CBBH     0060H     UNIT         ?PR?UART4T_ISR?UART
            CODE    9D1BH     0060H     UNIT         ?PR?UART5T_ISR?UART
            CODE    9D7BH     005FH     UNIT         ?PR?_SEND_MODBUS_10?MYMODBUS
            CODE    9DDAH     005EH     UNIT         ?PR?_UART4_SENDBYTE32?UART
            CODE    9E38H     0057H     UNIT         ?PR?_SSD2828_WRITECMD?SSD2828
            CODE    9E8FH     0055H     UNIT         ?PR?_GETPININ?SYS
            CODE    9EE4H     0053H     UNIT         ?PR?_UARTINIT?UART
            CODE    9F37H     004FH     UNIT         ?PR?UART4R_ISR?UART
            CODE    9F86H     004EH     UNIT         ?PR?_UART2_INIT?UART
            CODE    9FD4H     004EH     UNIT         ?PR?_SENDSTRING?MYMODBUS
            CODE    A022H     004CH     UNIT         ?PR?_SETPININ?SYS
            CODE    A06EH     0049H     UNIT         ?PR?_UART3_INIT?UART
            CODE    A0B7H     0048H     UNIT         ?PR?_DELAY_MS?SYS
            CODE    A0FFH     0048H     UNIT         ?PR?_SETPINOUT?SYS
            CODE    A147H     0047H     UNIT         ?PR?UART5R_ISR?UART
            CODE    A18EH     0044H     UNIT         ?C?LDIV
            CODE    A1D2H     003FH     UNIT         ?PR?_MUSICPLAY?SYS
            CODE    A211H     0039H     UNIT         ?CO?UI
            CODE    A24AH     0036H     UNIT         ?PR?I2CBR?RTC
            CODE    A280H     0035H     UNIT         ?PR?_HEX_TO_BCD?RTC
            CODE    A2B5H     0029H     UNIT         ?PR?INIT_CPU?SYS
            CODE    A2DEH     0029H     UNIT         ?C_INITSEG
            CODE    A307H     0028H     UNIT         ?PR?CLEARRAM?SYS
            CODE    A32FH     0028H     UNIT         ?PR?_UART4_INIT?UART
            CODE    A357H     0028H     UNIT         ?PR?_UART5_INIT?UART
            CODE    A37FH     0028H     UNIT         ?PR?_DELAYUS?RTC
            CODE    A3A7H     0027H     UNIT         ?PR?CACK?RTC
            CODE    A3CEH     0022H     UNIT         ?PR?_STARTTIMER?TIMER
            CODE    A3F0H     0020H     UNIT         ?PR?RESETT5L?SYS
            CODE    A410H     001FH     UNIT         ?PR?_DELAY_US?SYS
            CODE    A42FH     001EH     UNIT         ?PR?GETPAGEID?SYS
            CODE    A44DH     001CH     UNIT         ?PR?T0_INIT?TIMER
            CODE    A469H     001BH     UNIT         ?PR?CANERRORRESET?CANBUS
            CODE    A484H     001BH     UNIT         ?PR?I2CSTOP?RTC
            CODE    A49FH     001AH     UNIT         ?PR?I2CSTART?RTC
BL51 BANKED LINKER/LOCATER V6.22.2.0                                                  12/09/2022  13:55:10  PAGE 5


            CODE    A4B9H     0015H     UNIT         ?PR?_KILLTIMER?TIMER
            CODE    A4CEH     0015H     UNIT         ?PR?P9FUNC?UI
            CODE    A4E3H     0013H     UNIT         ?PR?_GETTIMEOUTFLAG?TIMER
            CODE    A4F6H     000FH     UNIT         ?PR?MACK?RTC
            CODE    A505H     000DH     UNIT         ?PR?MNAK?RTC
            CODE    A512H     000CH     UNIT         ?PR?_UART4_SENDBYTE?UART
            CODE    A51EH     000CH     UNIT         ?PR?_UART4_SENDBYTE16?UART
            CODE    A52AH     0009H     UNIT         ?PR?P3FUNC?UI
            CODE    A533H     0009H     UNIT         ?PR?RTC_READ_AND_SET?RTC
            CODE    A53CH     0007H     UNIT         ?PR?TIMER2_ISR?TIMER
            CODE    A543H     0007H     UNIT         ?PR?IO_INIT?MAIN
            CODE    A54AH     0006H     UNIT         ?PR?P0FUNC?UI
            CODE    A550H     0006H     UNIT         ?PR?P1FUNC?UI
            CODE    A556H     0006H     UNIT         ?PR?P2FUNC?UI
            CODE    A55CH     0006H     UNIT         ?PR?P5FUNC?UI
            CODE    A562H     0006H     UNIT         ?PR?P10_12FUNC?UI
            CODE    A568H     0004H     UNIT         ?CO?DWIN8283
            CODE    A56CH     0004H     UNIT         ?PR?SDA_IN?RTC
            CODE    A570H     0004H     UNIT         ?PR?SDA_OUT?RTC
            CODE    A574H     0003H     UNIT         ?PR?P4FUNC?UI
            CODE    A577H     0003H     UNIT         ?PR?P13FUNC?UI
            CODE    A57AH     0003H     UNIT         ?PR?P14FUNC?UI
            CODE    A57DH     0003H     UNIT         ?PR?P16FUNC?UI
            CODE    A580H     0003H     UNIT         ?PR?P15_17FUNC?UI
            CODE    A583H     0001H     UNIT         ?PR?P18FUNC?UI
            CODE    A584H     0001H     UNIT         ?PR?POLLING2?UI



OVERLAY MAP OF MODULE:   .\Objects\T5L51 (STARTUP_M5)


SEGMENT                                     DATA_GROUP          XDATA_GROUP
  +--> CALLED SEGMENT                     START    LENGTH     START    LENGTH
-----------------------------------------------------------------------------
?PR?T0_ISR_PC?TIMER                       001BH    0001H      -----    -----

*** NEW ROOT ***************************************************

?PR?CAN_ISR?CANBUS                        -----    -----      C10EH    0001H
  +--> ?PR?LOADONEFRAME?CANBUS

*** NEW ROOT ***************************************************

?C_C51STARTUP                             -----    -----      -----    -----
  +--> ?PR?MAIN?MAIN
  +--> ?C_INITSEG

?PR?MAIN?MAIN                             -----    -----      -----    -----
  +--> ?PR?INIT_CPU?SYS
  +--> ?PR?T0_INIT?TIMER
  +--> ?PR?PRO8283INIT?DWIN8283
  +--> ?PR?INIT_RTC?RTC
  +--> ?PR?_STARTTIMER?TIMER
  +--> ?PR?IO_INIT?MAIN
  +--> ?PR?_DELAY_MS?SYS
  +--> ?PR?SSD2828_INIT?SSD2828
BL51 BANKED LINKER/LOCATER V6.22.2.0                                                  12/09/2022  13:55:10  PAGE 6


  +--> ?PR?RDTIME?RTC
  +--> ?PR?_UARTINIT?UART
  +--> ?PR?VARS_INITIALIZE?VARS
  +--> ?PR?STA_INIT?MAIN
  +--> ?PR?_GETTIMEOUTFLAG?TIMER
  +--> ?PR?PAGEFUNCTION?UI
  +--> ?PR?PRO8283DEAL?DWIN8283
  +--> ?PR?RECEIVE_MODBUS?RECEIVEDATA

?PR?INIT_CPU?SYS                          -----    -----      -----    -----
  +--> ?PR?CLEARRAM?SYS

?PR?CLEARRAM?SYS                          001CH    0002H      -----    -----

?PR?PRO8283INIT?DWIN8283                  -----    -----      C10FH    000AH
  +--> ?CO?DWIN8283
  +--> ?PR?_READ_DGUS_VP?SYS
  +--> ?PR?_UARTINIT?UART
  +--> ?PR?_CANBUSINIT?CANBUS

?PR?_READ_DGUS_VP?SYS                     -----    -----      C137H    0013H

?PR?_UARTINIT?UART                        -----    -----      C119H    0005H
  +--> ?PR?_UART2_INIT?UART
  +--> ?PR?_UART3_INIT?UART
  +--> ?PR?_UART4_INIT?UART
  +--> ?PR?_UART5_INIT?UART

?PR?_UART2_INIT?UART                      -----    -----      C11EH    0002H
  +--> ?PR?_SETPINOUT?SYS
  +--> ?PR?_SETPININ?SYS

?PR?_UART3_INIT?UART                      -----    -----      C11EH    0002H
  +--> ?PR?_SETPINOUT?SYS
  +--> ?PR?_SETPININ?SYS

?PR?_CANBUSINIT?CANBUS                    -----    -----      C119H    0003H
  +--> ?PR?_SETPINOUT?SYS
  +--> ?PR?_SETPININ?SYS
  +--> ?PR?_PINOUTPUT?SYS

?PR?INIT_RTC?RTC                          -----    -----      -----    -----
  +--> ?PR?_SETPINOUT?SYS
  +--> ?PR?_I2CBW?RTC
  +--> ?PR?I2CSTOP?RTC
  +--> ?PR?I2CSTART?RTC
  +--> ?PR?I2CBR?RTC
  +--> ?PR?MACK?RTC
  +--> ?PR?MNAK?RTC

?PR?_I2CBW?RTC                            -----    -----      -----    -----
  +--> ?PR?I2CSTART?RTC
  +--> ?PR?I2CSTOP?RTC
  +--> ?PR?SDA_OUT?RTC
  +--> ?PR?_DELAYUS?RTC
  +--> ?PR?CACK?RTC

BL51 BANKED LINKER/LOCATER V6.22.2.0                                                  12/09/2022  13:55:10  PAGE 7


?PR?I2CSTART?RTC                          -----    -----      -----    -----
  +--> ?PR?SDA_OUT?RTC
  +--> ?PR?_DELAYUS?RTC

?PR?I2CSTOP?RTC                           -----    -----      -----    -----
  +--> ?PR?SDA_OUT?RTC
  +--> ?PR?_DELAYUS?RTC
  +--> ?PR?SDA_IN?RTC

?PR?CACK?RTC                              -----    -----      -----    -----
  +--> ?PR?SDA_IN?RTC
  +--> ?PR?_DELAYUS?RTC
  +--> ?PR?SDA_OUT?RTC

?PR?I2CBR?RTC                             -----    -----      -----    -----
  +--> ?PR?SDA_IN?RTC
  +--> ?PR?_DELAYUS?RTC

?PR?MACK?RTC                              -----    -----      -----    -----
  +--> ?PR?SDA_OUT?RTC
  +--> ?PR?_DELAYUS?RTC

?PR?MNAK?RTC                              -----    -----      -----    -----
  +--> ?PR?SDA_OUT?RTC
  +--> ?PR?_DELAYUS?RTC

?PR?_DELAY_MS?SYS                         -----    -----      C13FH    0004H
  +--> ?PR?_DELAY_US?SYS

?PR?SSD2828_INIT?SSD2828                  -----    -----      -----    -----
  +--> ?PR?SSD2828_READID?SSD2828
  +--> ?PR?_SSD2828_REGCONFIG?SSD2828
  +--> ?PR?_DELAY_MS?SYS
  +--> ?PR?C055_CODE_DOWNLOAD?SSD2828
  +--> ?PR?LCD_PA_SET?SSD2828
  +--> ?PR?_SSD2828_WRITECMD?SSD2828

?PR?SSD2828_READID?SSD2828                -----    -----      C10FH    0005H
  +--> ?PR?_DELAY_US?SYS

?PR?_SSD2828_REGCONFIG?SSD2828            -----    -----      C116H    0004H
  +--> ?PR?_DELAY_US?SYS

?PR?C055_CODE_DOWNLOAD?SSD2828            -----    -----      -----    -----
  +--> ?CO?SSD2828
  +--> ?PR?_SSD2828_WRITEPACKAGE?SSD2828
  +--> ?PR?_DELAY_MS?SYS

?PR?_SSD2828_WRITEPACKAGE?SSD2828         -----    -----      C10FH    0007H
  +--> ?PR?_SSD2828_REGCONFIG?SSD2828
  +--> ?PR?_SSD2828_WRITECMD?SSD2828
  +--> ?PR?_DELAY_US?SYS

?PR?_SSD2828_WRITECMD?SSD2828             -----    -----      C116H    0002H
  +--> ?PR?_DELAY_US?SYS

?PR?LCD_PA_SET?SSD2828                    -----    -----      C10FH    0007H
BL51 BANKED LINKER/LOCATER V6.22.2.0                                                  12/09/2022  13:55:10  PAGE 8


  +--> ?PR?_SSD2828_REGCONFIG?SSD2828

?PR?RDTIME?RTC                            -----    -----      C10FH    0002H
  +--> ?PR?_I2CBW?RTC
  +--> ?PR?I2CSTOP?RTC
  +--> ?PR?I2CSTART?RTC
  +--> ?PR?I2CBR?RTC
  +--> ?PR?MACK?RTC
  +--> ?PR?MNAK?RTC
  +--> ?PR?_WRITE_DGUS_VP?SYS

?PR?_WRITE_DGUS_VP?SYS                    -----    -----      C137H    000DH

?PR?STA_INIT?MAIN                         -----    -----      C10FH    0002H
  +--> ?PR?_SYS_WRITE_VP?SYS

?PR?_SYS_WRITE_VP?SYS                     -----    -----      C131H    0007H

?PR?PAGEFUNCTION?UI                       -----    -----      C10FH    0002H
  +--> ?CO?UI

?CO?UI                                    -----    -----      -----    -----
  +--> ?PR?P0FUNC?UI
  +--> ?PR?P1FUNC?UI
  +--> ?PR?P2FUNC?UI
  +--> ?PR?P3FUNC?UI
  +--> ?PR?P4FUNC?UI
  +--> ?PR?P5FUNC?UI
  +--> ?PR?P9FUNC?UI
  +--> ?PR?P10_12FUNC?UI
  +--> ?PR?P13FUNC?UI
  +--> ?PR?P14FUNC?UI
  +--> ?PR?P15_17FUNC?UI
  +--> ?PR?P16FUNC?UI
  +--> ?PR?P18FUNC?UI

?PR?P0FUNC?UI                             -----    -----      -----    -----
  +--> ?PR?CONTORL?UI
  +--> ?PR?TOUCH_SCAN_0?UI

?PR?CONTORL?UI                            -----    -----      -----    -----
  +--> ?PR?_SEND_MODBUS?MYMODBUS
  +--> ?PR?_SYS_WRITE_VP?SYS

?PR?_SEND_MODBUS?MYMODBUS                 -----    -----      C131H    0006H
  +--> ?PR?_CRC16?MYMODBUS
  +--> ?PR?_SENDSTRING?MYMODBUS

?PR?_CRC16?MYMODBUS                       -----    -----      C139H    000AH
  +--> ?CO?MYMODBUS

?PR?_SENDSTRING?MYMODBUS                  -----    -----      C139H    0006H
  +--> ?PR?_UART4_SENDBYTE?UART
  +--> ?PR?_DELAY_MS?SYS

?PR?TOUCH_SCAN_0?UI                       -----    -----      C111H    0001H
  +--> ?PR?_SYS_READ_VP?SYS
BL51 BANKED LINKER/LOCATER V6.22.2.0                                                  12/09/2022  13:55:10  PAGE 9


  +--> ?PR?_SEND_MODBUS?MYMODBUS
  +--> ?PR?_SYS_WRITE_VP?SYS

?PR?_SYS_READ_VP?SYS                      -----    -----      C113H    0007H

?PR?P1FUNC?UI                             -----    -----      -----    -----
  +--> ?PR?POLLING1_6?UI
  +--> ?PR?TOUCH_SCAN_1_2_6?UI

?PR?POLLING1_6?UI                         -----    -----      -----    -----
  +--> ?PR?_SEND_MODBUS?MYMODBUS

?PR?TOUCH_SCAN_1_2_6?UI                   -----    -----      C111H    0001H
  +--> ?PR?_SYS_READ_VP?SYS
  +--> ?PR?_SEND_MODBUS?MYMODBUS
  +--> ?PR?_SYS_WRITE_VP?SYS
  +--> ?PR?_PAGE_CHANGE?SYS
  +--> ?PR?_DELAY_MS?SYS
  +--> ?PR?_STARTTIMER?TIMER
  +--> ?PR?_GETTIMEOUTFLAG?TIMER
  +--> ?PR?_KILLTIMER?TIMER

?PR?_PAGE_CHANGE?SYS                      -----    -----      C131H    0006H
  +--> ?PR?_WRITE_DGUS_VP?SYS
  +--> ?PR?_DELAY_US?SYS
  +--> ?PR?_READ_DGUS_VP?SYS

?PR?P2FUNC?UI                             -----    -----      -----    -----
  +--> ?PR?POLLING1_6?UI
  +--> ?PR?TOUCH_SCAN_1_2_6?UI

?PR?P3FUNC?UI                             -----    -----      -----    -----
  +--> ?PR?TOUCH_SCAN_3?UI
  +--> ?PR?COORDINATE_CONTROL?UI
  +--> ?PR?FILE_CONTROL?UI

?PR?TOUCH_SCAN_3?UI                       -----    -----      C111H    0002H
  +--> ?PR?_SYS_READ_VP?SYS
  +--> ?PR?_SYS_WRITE_VP?SYS

?PR?COORDINATE_CONTROL?UI                 -----    -----      -----    -----
  +--> ?PR?_SYS_READ_VP?SYS
  +--> ?PR?_SEND_MODBUS_10?MYMODBUS
  +--> ?PR?_DELAY_MS?SYS
  +--> ?PR?_UART4_SENDBYTE?UART
  +--> ?PR?_PAGE_CHANGE?SYS

?PR?_SEND_MODBUS_10?MYMODBUS              -----    -----      C131H    0008H
  +--> ?PR?_CRC16?MYMODBUS
  +--> ?PR?_SENDSTRING?MYMODBUS

?PR?FILE_CONTROL?UI                       -----    -----      C111H    0001H
  +--> ?PR?_SEND_MODBUS?MYMODBUS
  +--> ?PR?_SYS_WRITE_VP?SYS

?PR?P4FUNC?UI                             -----    -----      -----    -----
  +--> ?PR?TOUCH_SCAN_4?UI
BL51 BANKED LINKER/LOCATER V6.22.2.0                                                  12/09/2022  13:55:10  PAGE 10



?PR?TOUCH_SCAN_4?UI                       -----    -----      C111H    0001H
  +--> ?PR?_SYS_READ_VP?SYS
  +--> ?PR?_PAGE_CHANGE?SYS
  +--> ?PR?_SYS_WRITE_VP?SYS
  +--> ?PR?_SEND_MODBUS?MYMODBUS

?PR?P5FUNC?UI                             -----    -----      -----    -----
  +--> ?PR?TOUCH_SCAN_5?UI
  +--> ?PR?TOUCH_SCAN_1_2_6?UI

?PR?TOUCH_SCAN_5?UI                       -----    -----      C111H    0001H
  +--> ?PR?_SYS_READ_VP?SYS
  +--> ?PR?_SEND_MODBUS?MYMODBUS
  +--> ?PR?_SYS_WRITE_VP?SYS

?PR?P10_12FUNC?UI                         -----    -----      -----    -----
  +--> ?PR?POLLING10_12?UI
  +--> ?PR?TOUCH_SCAN_10_12?UI

?PR?POLLING10_12?UI                       -----    -----      -----    -----
  +--> ?PR?_SEND_MODBUS?MYMODBUS

?PR?TOUCH_SCAN_10_12?UI                   -----    -----      C111H    0001H
  +--> ?PR?_SYS_READ_VP?SYS
  +--> ?PR?_SEND_MODBUS_10?MYMODBUS
  +--> ?PR?_DELAY_MS?SYS
  +--> ?PR?_SEND_MODBUS?MYMODBUS
  +--> ?PR?_SYS_WRITE_VP?SYS

?PR?P13FUNC?UI                            -----    -----      -----    -----
  +--> ?PR?TOUCH_SCAN_13?UI

?PR?TOUCH_SCAN_13?UI                      -----    -----      C111H    0001H
  +--> ?PR?_SYS_READ_VP?SYS
  +--> ?PR?_SYS_WRITE_VP?SYS

?PR?P14FUNC?UI                            -----    -----      -----    -----
  +--> ?PR?TOUCH_SCAN_14?UI

?PR?TOUCH_SCAN_14?UI                      -----    -----      C111H    0001H
  +--> ?PR?_SYS_READ_VP?SYS
  +--> ?PR?SEND_MODBUS_IP?MYMODBUS
  +--> ?PR?_DELAY_MS?SYS
  +--> ?PR?_SYS_WRITE_VP?SYS

?PR?SEND_MODBUS_IP?MYMODBUS               -----    -----      -----    -----
  +--> ?PR?_SYS_READ_VP?SYS
  +--> ?PR?_CRC16?MYMODBUS
  +--> ?PR?_SENDSTRING?MYMODBUS

?PR?P15_17FUNC?UI                         -----    -----      -----    -----
  +--> ?PR?POLLING15_17?UI

?PR?POLLING15_17?UI                       -----    -----      -----    -----
  +--> ?PR?_SEND_MODBUS?MYMODBUS

BL51 BANKED LINKER/LOCATER V6.22.2.0                                                  12/09/2022  13:55:10  PAGE 11


?PR?P16FUNC?UI                            -----    -----      -----    -----
  +--> ?PR?TOUCH_SCAN_16?UI

?PR?TOUCH_SCAN_16?UI                      -----    -----      C111H    0001H
  +--> ?PR?_SYS_READ_VP?SYS
  +--> ?PR?_PAGE_CHANGE?SYS

?PR?PRO8283DEAL?DWIN8283                  -----    -----      -----    -----
  +--> ?PR?AUTOUPLOADVALUE?DWIN8283
  +--> ?PR?_UATR_SEND_DATA?UART
  +--> ?PR?_CANTX?CANBUS
  +--> ?PR?_PRO8283RXTREAT?DWIN8283

?PR?AUTOUPLOADVALUE?DWIN8283              -----    -----      -----    -----
  +--> ?PR?_READ_DGUS_VP?SYS
  +--> ?PR?_WRITE_DGUS_VP?SYS

?PR?_UATR_SEND_DATA?UART                  -----    -----      C10FH    0008H

?PR?_CANTX?CANBUS                         -----    -----      C10FH    0017H
  +--> ?PR?LOADONEFRAME?CANBUS

?PR?_PRO8283RXTREAT?DWIN8283              -----    -----      C10FH    000FH
  +--> ?PR?_WRITE_DGUS_VP?SYS
  +--> ?PR?_READ_DGUS_VP?SYS

?PR?RECEIVE_MODBUS?RECEIVEDATA            -----    -----      C10FH    0022H
  +--> ?PR?_DELAY_MS?SYS
  +--> ?PR?_CRC16?MYMODBUS
  +--> ?PR?_SEND_MODBUS_10?MYMODBUS
  +--> ?PR?_SYS_WRITE_VP?SYS
  +--> ?PR?_PAGE_CHANGE?SYS
  +--> ?PR?_ALM_INIT?RECEIVEDATA
  +--> ?PR?_UART4_SENDBYTE16?UART

?PR?_ALM_INIT?RECEIVEDATA                 -----    -----      -----    -----
  +--> ?PR?_SYS_WRITE_VP?SYS
  +--> ?PR?_PAGE_CHANGE?SYS
  +--> ?PR?_SEND_MODBUS?MYMODBUS

?PR?_UART4_SENDBYTE16?UART                -----    -----      -----    -----
  +--> ?PR?_UART4_SENDBYTE?UART



SYMBOL TABLE OF MODULE:  .\Objects\T5L51 (STARTUP_M5)

  VALUE           TYPE          NAME
  ----------------------------------

  -------         MODULE        STARTUP_M5
  C:0100H         LINE#         30
  -------         ENDMOD        STARTUP_M5

  -------         MODULE        SYS
  C:0000H         SYMBOL        _ICE_DUMMY_
  C:A2B5H         PUBLIC        INIT_CPU
BL51 BANKED LINKER/LOCATER V6.22.2.0                                                  12/09/2022  13:55:10  PAGE 12


  X:C076H         PUBLIC        Spi_Flash
  D:00F1H         PUBLIC        ADR_H
  D:0080H         PUBLIC        P0
  D:0090H         PUBLIC        P1
  X:C086H         PUBLIC        Nor_Flash
  D:00A0H         PUBLIC        P2
  C:9E8FH         PUBLIC        _GetPinIn
  D:00B0H         PUBLIC        P3
  D:00F3H         PUBLIC        ADR_L
  D:0094H         PUBLIC        PAGESEL
  D:00F2H         PUBLIC        ADR_M
  B:00A8H.7       PUBLIC        EA
  D:00F8H         PUBLIC        RAMMODE
  C:785AH         PUBLIC        _write_dgus_vp
  D:00B7H         PUBLIC        P0MDOUT
  D:00BCH         PUBLIC        P1MDOUT
  D:00A8H         PUBLIC        IEN0
  D:00BDH         PUBLIC        P2MDOUT
  D:00B8H         PUBLIC        IEN1
  C:A022H         PUBLIC        _SetPinIn
  X:C092H         PUBLIC        PressPosChange
  D:00BEH         PUBLIC        P3MDOUT
  D:009AH         PUBLIC        IEN2
  C:A0FFH         PUBLIC        _SetPinOut
  B:00F8H.4       PUBLIC        APP_ACK
  X:C093H         PUBLIC        RealPosX
  D:00F4H         PUBLIC        ADR_INC
  X:C095H         PUBLIC        RealPosY
  D:001EH         PUBLIC        SysTick_RTC
  C:A1D2H         PUBLIC        _MusicPlay
  X:C097H         PUBLIC        PressPosX
  X:C099H         PUBLIC        PressPageID
  X:C09BH         PUBLIC        PressPosY
  C:80C5H         PUBLIC        SPIFlash_Action
  X:C09DH         PUBLIC        LastPosX
  X:C09FH         PUBLIC        MusicBuf
  X:C0C2H         PUBLIC        LastPosY
  C:88E1H         PUBLIC        _sys_read_vp
  D:0095H         PUBLIC        D_PAGESEL
  C:9748H         PUBLIC        _Page_Change
  X:C0C4H         PUBLIC        Touchstate
  C:A42FH         PUBLIC        GetPageID
  C:8AABH         PUBLIC        GetTouchStatus
  D:00F9H         PUBLIC        PORTDRV
  C:7F99H         PUBLIC        _sys_write_vp
  C:937CH         PUBLIC        _PinOutput
  D:00C9H         PUBLIC        MUX_SEL
  X:C0C5H         PUBLIC        xdistance
  D:00A9H         PUBLIC        IP0
  X:C0C7H         PUBLIC        ydistance
  D:00B9H         PUBLIC        IP1
  C:A307H         PUBLIC        ClearRAM
  X:C0C9H         PUBLIC        PosXChangeSpeed
  D:00FDH         PUBLIC        DATA0
  X:C0CBH         PUBLIC        PosYChangeSpeed
  D:00FCH         PUBLIC        DATA1
  D:00FBH         PUBLIC        DATA2
BL51 BANKED LINKER/LOCATER V6.22.2.0                                                  12/09/2022  13:55:10  PAGE 13


  D:00FAH         PUBLIC        DATA3
  C:A0B7H         PUBLIC        _delay_ms
  B:00F8H.6       PUBLIC        APP_EN
  B:00D0H.3       PUBLIC        RS0
  B:00D0H.4       PUBLIC        RS1
  D:0093H         PUBLIC        DPC
  C:A414H         PUBLIC        _delay_us
  C:A3F0H         PUBLIC        ResetT5L
  C:8520H         PUBLIC        NorFlash_Action
  D:00C8H         PUBLIC        T2CON
  D:008EH         PUBLIC        CKCON
  C:6F68H         PUBLIC        _GetTouchAnction
  C:7349H         PUBLIC        _read_dgus_vp
  C:9C59H         PUBLIC        _TouchSwitch
  -------         PROC          L?0219
  -------         ENDPROC       L?0219
  -------         PROC          _READ_DGUS_VP
  X:C137H         SYMBOL        addr
  X:C139H         SYMBOL        buf
  X:C13CH         SYMBOL        len
  -------         DO            
  X:C13EH         SYMBOL        OS_addr
  X:C140H         SYMBOL        OS_addr_offset
  X:C142H         SYMBOL        OS_len
  X:C144H         SYMBOL        OS_len_offset
  X:C146H         SYMBOL        LenLimit
  -------         ENDDO         
  C:7349H         LINE#         39
  C:735AH         LINE#         40
  C:735AH         LINE#         41
  C:7361H         LINE#         42
  C:7365H         LINE#         43
  C:736DH         LINE#         46
  C:737BH         LINE#         48
  C:7393H         LINE#         49
  C:73AEH         LINE#         50
  C:73AEH         LINE#         51
  C:73BFH         LINE#         52
  C:73BFH         LINE#         53
  C:73D5H         LINE#         54
  C:73DFH         LINE#         56
  C:73E1H         LINE#         58
  C:73E4H         LINE#         59
  C:73EFH         LINE#         60
  C:73F1H         LINE#         61
  C:73F4H         LINE#         62
  C:73F7H         LINE#         63
  C:73FAH         LINE#         64
  C:7404H         LINE#         65
  C:7404H         LINE#         66
  C:7406H         LINE#         67
  C:7409H         LINE#         68
  C:741EH         LINE#         69
  C:7433H         LINE#         70
  C:7441H         LINE#         71
  C:7441H         LINE#         72
  C:7457H         LINE#         73
BL51 BANKED LINKER/LOCATER V6.22.2.0                                                  12/09/2022  13:55:10  PAGE 14


  C:7461H         LINE#         74
  C:746FH         LINE#         75
  C:746FH         LINE#         76
  C:7471H         LINE#         77
  C:7474H         LINE#         78
  C:7489H         LINE#         79
  C:749EH         LINE#         80
  C:74B3H         LINE#         81
  C:74C8H         LINE#         82
  C:74CAH         LINE#         83
  C:74D4H         LINE#         84
  C:74D4H         LINE#         85
  C:74D6H         LINE#         86
  C:74D9H         LINE#         87
  C:74EEH         LINE#         88
  C:7503H         LINE#         89
  C:7503H         LINE#         90
  C:7506H         LINE#         92
  C:7508H         LINE#         94
  -------         ENDPROC       _READ_DGUS_VP
  -------         PROC          _WRITE_DGUS_VP
  X:C137H         SYMBOL        addr
  X:C139H         SYMBOL        buf
  X:C13CH         SYMBOL        len
  -------         DO            
  D:0004H         SYMBOL        OS_addr
  X:C13EH         SYMBOL        OS_addr_offset
  X:C140H         SYMBOL        OS_len
  X:C142H         SYMBOL        OS_len_offset
  D:0006H         SYMBOL        LenLimit
  -------         ENDDO         
  C:785AH         LINE#         166
  C:786BH         LINE#         167
  C:786BH         LINE#         168
  C:786CH         LINE#         169
  C:7872H         LINE#         170
  C:787AH         LINE#         173
  C:7887H         LINE#         175
  C:7896H         LINE#         176
  C:78A3H         LINE#         177
  C:78A3H         LINE#         178
  C:78A8H         LINE#         179
  C:78A8H         LINE#         180
  C:78B7H         LINE#         181
  C:78C3H         LINE#         183
  C:78C5H         LINE#         185
  C:78C8H         LINE#         186
  C:78CBH         LINE#         187
  C:78CFH         LINE#         188
  C:78D2H         LINE#         189
  C:78D5H         LINE#         190
  C:78D8H         LINE#         191
  C:78E2H         LINE#         192
  C:78E2H         LINE#         193
  C:78F7H         LINE#         194
  C:790CH         LINE#         195
  C:790EH         LINE#         196
BL51 BANKED LINKER/LOCATER V6.22.2.0                                                  12/09/2022  13:55:10  PAGE 15


  C:7911H         LINE#         197
  C:791FH         LINE#         198
  C:791FH         LINE#         199
  C:7935H         LINE#         200
  C:793FH         LINE#         201
  C:7942H         LINE#         202
  C:7950H         LINE#         203
  C:7950H         LINE#         204
  C:7965H         LINE#         205
  C:797AH         LINE#         206
  C:798FH         LINE#         207
  C:79A4H         LINE#         208
  C:79A6H         LINE#         209
  C:79ABH         LINE#         210
  C:79ABH         LINE#         211
  C:79B5H         LINE#         212
  C:79B5H         LINE#         213
  C:79B8H         LINE#         214
  C:79CDH         LINE#         215
  C:79E2H         LINE#         216
  C:79E4H         LINE#         217
  C:79E7H         LINE#         218
  C:79E7H         LINE#         219
  C:79EAH         LINE#         221
  C:79ECH         LINE#         223
  -------         ENDPROC       _WRITE_DGUS_VP
  -------         PROC          INIT_CPU
  C:A2B5H         LINE#         308
  C:A2B5H         LINE#         309
  C:A2B5H         LINE#         310
  C:A2B7H         LINE#         311
  C:A2B9H         LINE#         312
  C:A2BBH         LINE#         314
  C:A2BEH         LINE#         315
  C:A2C1H         LINE#         316
  C:A2C3H         LINE#         317
  C:A2C6H         LINE#         318
  C:A2C9H         LINE#         319
  C:A2CCH         LINE#         320
  C:A2CEH         LINE#         321
  C:A2D1H         LINE#         322
  C:A2D3H         LINE#         323
  C:A2D5H         LINE#         324
  C:A2D7H         LINE#         325
  C:A2D9H         LINE#         326
  C:A2DBH         LINE#         330
  -------         ENDPROC       INIT_CPU
  -------         PROC          CLEARRAM
  -------         DO            
  D:0006H         SYMBOL        ptr
  D:001CH         SYMBOL        i
  -------         ENDDO         
  C:A307H         LINE#         333
  C:A307H         LINE#         334
  C:A307H         LINE#         338
  C:A30BH         LINE#         340
  C:A310H         LINE#         341
BL51 BANKED LINKER/LOCATER V6.22.2.0                                                  12/09/2022  13:55:10  PAGE 16


  C:A32EH         LINE#         342
  -------         ENDPROC       CLEARRAM
  -------         PROC          RESETT5L
  -------         DO            
  X:C1EAH         SYMBOL        tmp
  -------         ENDDO         
  C:A3F0H         LINE#         344
  C:A3F0H         LINE#         345
  C:A3F0H         LINE#         348
  C:A3FAH         LINE#         349
  -------         ENDPROC       RESETT5L
  C:A410H         SYMBOL        L?0221
  -------         PROC          L?0220
  -------         ENDPROC       L?0220
  C:A410H         SYMBOL        L?0221
  -------         PROC          _DELAY_US
  D:0006H         SYMBOL        t
  -------         DO            
  D:0005H         SYMBOL        i
  -------         ENDDO         
  C:A414H         LINE#         352
  C:A414H         LINE#         353
  C:A414H         LINE#         356
  C:A418H         LINE#         357
  C:A418H         LINE#         358
  C:A424H         LINE#         359
  C:A427H         LINE#         360
  C:A42CH         LINE#         361
  C:A42EH         LINE#         362
  -------         ENDPROC       _DELAY_US
  -------         PROC          _TOUCHSWITCH
  D:0006H         SYMBOL        PageID
  D:0005H         SYMBOL        TouchType
  D:0003H         SYMBOL        TouchID
  X:C194H         SYMBOL        Status
  -------         DO            
  X:C195H         SYMBOL        k_data
  -------         ENDDO         
  C:9C59H         LINE#         364
  C:9C59H         LINE#         365
  C:9C59H         LINE#         368
  C:9C63H         LINE#         369
  C:9C69H         LINE#         370
  C:9C6CH         LINE#         371
  C:9C6FH         LINE#         372
  C:9C75H         LINE#         373
  C:9C7FH         LINE#         375
  C:9C86H         LINE#         376
  C:9C9CH         LINE#         378
  C:9C9CH         LINE#         379
  C:9C9FH         LINE#         380
  C:9CB4H         LINE#         381
  C:9CBAH         LINE#         382
  -------         ENDPROC       _TOUCHSWITCH
  -------         PROC          _MUSICPLAY
  X:C1D6H         SYMBOL        MusicId
  -------         DO            
BL51 BANKED LINKER/LOCATER V6.22.2.0                                                  12/09/2022  13:55:10  PAGE 17


  X:C1D7H         SYMBOL        k_data
  -------         ENDDO         
  C:A1D2H         LINE#         384
  C:A1D7H         LINE#         385
  C:A1D7H         LINE#         388
  C:A1EDH         LINE#         389
  C:A1F3H         LINE#         390
  C:A1F7H         LINE#         391
  C:A1FCH         LINE#         392
  -------         ENDPROC       _MUSICPLAY
  -------         PROC          NORFLASH_ACTION
  -------         DO            
  X:C1BEH         SYMBOL        buf
  -------         ENDDO         
  C:8520H         LINE#         433
  C:8520H         LINE#         434
  C:8520H         LINE#         437
  C:8529H         LINE#         438
  C:8541H         LINE#         439
  C:8559H         LINE#         440
  C:8564H         LINE#         441
  C:8571H         LINE#         442
  C:8574H         LINE#         443
  C:8581H         LINE#         444
  C:8584H         LINE#         445
  C:8589H         LINE#         446
  C:8589H         LINE#         447
  C:8597H         LINE#         448
  C:85B1H         LINE#         449
  C:85B1H         LINE#         450
  C:85C7H         LINE#         452
  C:85C7H         LINE#         453
  C:85CAH         LINE#         454
  C:85DFH         LINE#         455
  C:85E5H         LINE#         456
  C:85EDH         LINE#         457
  C:85EDH         LINE#         458
  C:85FBH         LINE#         459
  C:860FH         LINE#         460
  C:860FH         LINE#         461
  -------         ENDPROC       NORFLASH_ACTION
  -------         PROC          SPIFLASH_ACTION
  -------         DO            
  X:C19DH         SYMBOL        buf
  -------         ENDDO         
  C:80C5H         LINE#         464
  C:80C5H         LINE#         465
  C:80C5H         LINE#         468
  C:80CBH         LINE#         469
  C:80D3H         LINE#         470
  C:80DAH         LINE#         471
  C:80DAH         LINE#         472
  C:80E3H         LINE#         473
  C:80FBH         LINE#         474
  C:8113H         LINE#         475
  C:811EH         LINE#         476
  C:812BH         LINE#         477
BL51 BANKED LINKER/LOCATER V6.22.2.0                                                  12/09/2022  13:55:10  PAGE 18


  C:812EH         LINE#         478
  C:813BH         LINE#         479
  C:813EH         LINE#         480
  C:813FH         LINE#         481
  C:813FH         LINE#         482
  C:8141H         LINE#         483
  C:8147H         LINE#         484
  C:8147H         LINE#         485
  C:8154H         LINE#         486
  C:8157H         LINE#         487
  C:8164H         LINE#         488
  C:8167H         LINE#         489
  C:8174H         LINE#         490
  C:8177H         LINE#         491
  C:817AH         LINE#         492
  C:817CH         LINE#         493
  C:817EH         LINE#         494
  C:8180H         LINE#         495
  C:8180H         LINE#         496
  C:8196H         LINE#         498
  C:8196H         LINE#         499
  C:8199H         LINE#         500
  C:81AEH         LINE#         501
  C:81B4H         LINE#         502
  C:81BCH         LINE#         503
  C:81BCH         LINE#         504
  C:81CAH         LINE#         505
  C:81DEH         LINE#         506
  C:81DEH         LINE#         507
  -------         ENDPROC       SPIFLASH_ACTION
  -------         PROC          GETPAGEID
  -------         DO            
  X:C1F5H         SYMBOL        nPage
  -------         ENDDO         
  C:A42FH         LINE#         511
  C:A42FH         LINE#         512
  C:A42FH         LINE#         515
  C:A444H         LINE#         516
  C:A44CH         LINE#         517
  -------         ENDPROC       GETPAGEID
  -------         PROC          _PAGE_CHANGE
  X:C131H         SYMBOL        PageID
  -------         DO            
  X:C133H         SYMBOL        buf
  -------         ENDDO         
  C:9748H         LINE#         519
  C:9750H         LINE#         520
  C:9750H         LINE#         523
  C:9754H         LINE#         524
  C:9758H         LINE#         525
  C:9765H         LINE#         526
  C:9768H         LINE#         527
  C:977EH         LINE#         529
  C:977EH         LINE#         530
  C:9781H         LINE#         531
  C:9797H         LINE#         532
  C:97A9H         LINE#         533
BL51 BANKED LINKER/LOCATER V6.22.2.0                                                  12/09/2022  13:55:10  PAGE 19


  C:97AEH         LINE#         534
  C:97B0H         LINE#         535
  C:97B2H         LINE#         536
  C:97B4H         LINE#         537
  -------         ENDPROC       _PAGE_CHANGE
  -------         PROC          _DELAY_MS
  X:C13FH         SYMBOL        t
  -------         DO            
  X:C141H         SYMBOL        i
  D:0002H         SYMBOL        j
  -------         ENDDO         
  C:A0B7H         LINE#         540
  C:A0BFH         LINE#         541
  C:A0BFH         LINE#         543
  C:A0D9H         LINE#         544
  C:A0D9H         LINE#         545
  C:A0DCH         LINE#         546
  C:A0EEH         LINE#         547
  C:A0FEH         LINE#         548
  -------         ENDPROC       _DELAY_MS
  -------         PROC          _SETPINOUT
  D:0007H         SYMBOL        Port
  D:0005H         SYMBOL        Pin
  C:A0FFH         LINE#         550
  C:A0FFH         LINE#         551
  C:A0FFH         LINE#         552
  C:A10DH         LINE#         553
  C:A10DH         LINE#         554
  C:A11AH         LINE#         555
  C:A11BH         LINE#         556
  C:A128H         LINE#         557
  C:A129H         LINE#         558
  C:A136H         LINE#         559
  C:A137H         LINE#         560
  C:A146H         LINE#         561
  C:A146H         LINE#         562
  C:A146H         LINE#         563
  C:A146H         LINE#         565
  -------         ENDPROC       _SETPINOUT
  -------         PROC          _SETPININ
  D:0007H         SYMBOL        Port
  D:0005H         SYMBOL        Pin
  C:A022H         LINE#         567
  C:A022H         LINE#         568
  C:A022H         LINE#         569
  C:A030H         LINE#         570
  C:A030H         LINE#         571
  C:A03EH         LINE#         572
  C:A03FH         LINE#         573
  C:A04DH         LINE#         574
  C:A04EH         LINE#         575
  C:A05CH         LINE#         576
  C:A05DH         LINE#         577
  C:A06DH         LINE#         578
  C:A06DH         LINE#         579
  C:A06DH         LINE#         580
  C:A06DH         LINE#         582
BL51 BANKED LINKER/LOCATER V6.22.2.0                                                  12/09/2022  13:55:10  PAGE 20


  -------         ENDPROC       _SETPININ
  -------         PROC          _PINOUTPUT
  D:0007H         SYMBOL        Port
  D:0005H         SYMBOL        Pin
  D:0003H         SYMBOL        value
  C:937CH         LINE#         586
  C:937CH         LINE#         587
  C:937CH         LINE#         588
  C:938DH         LINE#         589
  C:938DH         LINE#         590
  C:939EH         LINE#         591
  C:93ACH         LINE#         592
  C:93ADH         LINE#         593
  C:93BEH         LINE#         594
  C:93CCH         LINE#         595
  C:93CDH         LINE#         596
  C:93DEH         LINE#         597
  C:93ECH         LINE#         598
  C:93EDH         LINE#         599
  C:93FEH         LINE#         600
  C:940EH         LINE#         601
  C:940EH         LINE#         602
  C:940EH         LINE#         603
  C:940EH         LINE#         604
  -------         ENDPROC       _PINOUTPUT
  -------         PROC          _GETPININ
  D:0007H         SYMBOL        Port
  D:0005H         SYMBOL        Pin
  -------         DO            
  D:0006H         SYMBOL        value
  -------         ENDDO         
  C:9E8FH         LINE#         608
  C:9E8FH         LINE#         609
  C:9E8FH         LINE#         611
  C:9E9DH         LINE#         612
  C:9E9DH         LINE#         613
  C:9EABH         LINE#         614
  C:9EADH         LINE#         615
  C:9EBBH         LINE#         616
  C:9EBDH         LINE#         617
  C:9ECBH         LINE#         618
  C:9ECDH         LINE#         619
  C:9EDDH         LINE#         620
  C:9EDFH         LINE#         621
  C:9EDFH         LINE#         622
  C:9EE1H         LINE#         623
  C:9EE1H         LINE#         624
  C:9EE1H         LINE#         625
  C:9EE3H         LINE#         626
  -------         ENDPROC       _GETPININ
  -------         PROC          GETTOUCHSTATUS
  -------         DO            
  X:C1C6H         SYMBOL        k_data
  -------         ENDDO         
  C:8AABH         LINE#         628
  C:8AABH         LINE#         629
  C:8AABH         LINE#         632
BL51 BANKED LINKER/LOCATER V6.22.2.0                                                  12/09/2022  13:55:10  PAGE 21


  C:8AC1H         LINE#         633
  C:8ACCH         LINE#         634
  C:8ACCH         LINE#         635
  C:8AD5H         LINE#         636
  C:8AD5H         LINE#         637
  C:8AEBH         LINE#         638
  C:8B03H         LINE#         639
  C:8B07H         LINE#         640
  C:8B09H         LINE#         641
  C:8B0FH         LINE#         642
  C:8B0FH         LINE#         643
  C:8B1EH         LINE#         644
  C:8B2DH         LINE#         645
  C:8B33H         LINE#         646
  C:8B35H         LINE#         648
  C:8B35H         LINE#         649
  C:8B3BH         LINE#         650
  C:8B3BH         LINE#         651
  C:8B4AH         LINE#         652
  C:8B59H         LINE#         653
  C:8B5EH         LINE#         654
  C:8B73H         LINE#         655
  C:8B75H         LINE#         656
  C:8B75H         LINE#         658
  C:8B75H         LINE#         659
  C:8B81H         LINE#         660
  C:8B81H         LINE#         661
  C:8B86H         LINE#         662
  C:8B86H         LINE#         663
  C:8B8BH         LINE#         664
  C:8B8BH         LINE#         665
  -------         ENDPROC       GETTOUCHSTATUS
  -------         PROC          _GETTOUCHANCTION
  X:C1A9H         SYMBOL        PageID
  -------         DO            
  X:C1ABH         SYMBOL        status
  X:C1ACH         SYMBOL        x2distance
  X:C1B0H         SYMBOL        y2distance
  -------         ENDDO         
  C:6F68H         LINE#         667
  C:6F70H         LINE#         668
  C:6F70H         LINE#         672
  C:6F78H         LINE#         673
  C:6F7CH         LINE#         674
  C:6F7CH         LINE#         675
  C:6F80H         LINE#         676
  C:6F82H         LINE#         677
  C:6F82H         LINE#         678
  C:6F88H         LINE#         679
  C:6F88H         LINE#         680
  C:6F9CH         LINE#         681
  C:6FA2H         LINE#         682
  C:6FA4H         LINE#         683
  C:6FA4H         LINE#         685
  C:6FA4H         LINE#         686
  C:6FB8H         LINE#         687
  C:6FB8H         LINE#         688
BL51 BANKED LINKER/LOCATER V6.22.2.0                                                  12/09/2022  13:55:10  PAGE 22


  C:6FBBH         LINE#         689
  C:6FBBH         LINE#         690
  C:6FD6H         LINE#         691
  C:6FF0H         LINE#         692
  C:700BH         LINE#         693
  C:7025H         LINE#         694
  C:702DH         LINE#         695
  C:702DH         LINE#         696
  C:7035H         LINE#         697
  C:7035H         LINE#         698
  C:7068H         LINE#         699
  C:7068H         LINE#         700
  C:7096H         LINE#         701
  C:7096H         LINE#         702
  C:7099H         LINE#         703
  C:709BH         LINE#         704
  C:709BH         LINE#         706
  C:709BH         LINE#         707
  C:709EH         LINE#         708
  C:70A0H         LINE#         709
  C:70A0H         LINE#         710
  C:70A0H         LINE#         711
  C:70A0H         LINE#         712
  C:70A6H         LINE#         713
  C:70A6H         LINE#         715
  C:70A6H         LINE#         716
  C:70AEH         LINE#         717
  C:70AEH         LINE#         718
  C:70E1H         LINE#         719
  C:70E1H         LINE#         720
  C:710FH         LINE#         721
  C:710FH         LINE#         722
  C:7112H         LINE#         723
  C:7114H         LINE#         725
  C:7114H         LINE#         726
  C:7117H         LINE#         727
  C:7117H         LINE#         728
  C:7119H         LINE#         730
  C:7119H         LINE#         731
  C:711CH         LINE#         732
  C:711CH         LINE#         733
  C:711CH         LINE#         734
  C:7124H         LINE#         735
  C:7124H         LINE#         736
  C:713FH         LINE#         737
  C:7142H         LINE#         738
  C:7142H         LINE#         740
  C:7142H         LINE#         741
  C:715DH         LINE#         742
  C:715FH         LINE#         743
  C:715FH         LINE#         744
  C:715FH         LINE#         745
  C:715FH         LINE#         746
  -------         ENDPROC       _GETTOUCHANCTION
  -------         PROC          _SYS_READ_VP
  D:0004H         SYMBOL        addr
  X:C115H         SYMBOL        buf
BL51 BANKED LINKER/LOCATER V6.22.2.0                                                  12/09/2022  13:55:10  PAGE 23


  X:C118H         SYMBOL        len
  -------         DO            
  D:0003H         SYMBOL        i
  -------         ENDDO         
  C:88E1H         LINE#         752
  C:88F0H         LINE#         753
  C:88F0H         LINE#         756
  C:88F4H         LINE#         757
  C:88FBH         LINE#         758
  C:88FEH         LINE#         759
  C:8901H         LINE#         760
  C:8905H         LINE#         761
  C:8908H         LINE#         762
  C:890BH         LINE#         763
  C:890EH         LINE#         764
  C:8920H         LINE#         765
  C:8920H         LINE#         766
  C:8922H         LINE#         767
  C:8925H         LINE#         768
  C:8937H         LINE#         769
  C:8937H         LINE#         770
  C:894CH         LINE#         771
  C:8961H         LINE#         772
  C:8963H         LINE#         773
  C:8971H         LINE#         774
  C:8971H         LINE#         775
  C:8985H         LINE#         776
  C:8985H         LINE#         777
  C:899AH         LINE#         778
  C:89AFH         LINE#         779
  C:89B1H         LINE#         780
  C:89BFH         LINE#         781
  C:89BFH         LINE#         782
  C:89C2H         LINE#         783
  C:89C5H         LINE#         784
  -------         ENDPROC       _SYS_READ_VP
  -------         PROC          _SYS_WRITE_VP
  D:0004H         SYMBOL        addr
  X:C133H         SYMBOL        buf
  X:C136H         SYMBOL        len
  -------         DO            
  D:0003H         SYMBOL        i
  -------         ENDDO         
  C:7F99H         LINE#         791
  C:7FA8H         LINE#         792
  C:7FA8H         LINE#         795
  C:7FACH         LINE#         796
  C:7FB3H         LINE#         797
  C:7FB6H         LINE#         798
  C:7FB9H         LINE#         799
  C:7FBDH         LINE#         800
  C:7FC0H         LINE#         801
  C:7FC3H         LINE#         802
  C:7FC6H         LINE#         803
  C:7FD8H         LINE#         804
  C:7FD8H         LINE#         805
  C:7FDBH         LINE#         806
BL51 BANKED LINKER/LOCATER V6.22.2.0                                                  12/09/2022  13:55:10  PAGE 24


  C:7FF0H         LINE#         807
  C:8005H         LINE#         808
  C:8007H         LINE#         809
  C:8015H         LINE#         810
  C:8015H         LINE#         811
  C:8018H         LINE#         812
  C:8028H         LINE#         813
  C:8028H         LINE#         814
  C:803DH         LINE#         815
  C:8052H         LINE#         816
  C:8067H         LINE#         817
  C:807CH         LINE#         818
  C:807EH         LINE#         819
  C:808CH         LINE#         820
  C:808EH         LINE#         821
  C:8092H         LINE#         822
  C:8092H         LINE#         823
  C:8095H         LINE#         824
  C:80AAH         LINE#         825
  C:80BFH         LINE#         826
  C:80C1H         LINE#         827
  C:80C1H         LINE#         828
  C:80C4H         LINE#         829
  -------         ENDPROC       _SYS_WRITE_VP
  -------         ENDMOD        SYS

  -------         MODULE        TIMER
  C:0000H         SYMBOL        _ICE_DUMMY_
  B:00A8H.7       PUBLIC        EA
  C:A4B9H         PUBLIC        _KillTimer
  D:0008H         PUBLIC        TimerTime
  C:A3CEH         PUBLIC        _StartTimer
  X:C0CDH         PUBLIC        PWMPort
  X:C0D5H         PUBLIC        PWMPin
  X:C0DDH         PUBLIC        PWMLow
  D:0089H         PUBLIC        TMOD
  X:C0EDH         PUBLIC        EnablePWM
  C:97C9H         PUBLIC        T0_ISR_PC
  D:0018H         PUBLIC        OutTimeFlag
  B:00A8H.1       PUBLIC        ET0
  B:00C0H.6       PUBLIC        TF2
  D:008CH         PUBLIC        TH0
  D:0019H         PUBLIC        SysTick
  D:001AH         PUBLIC        EnableTimer
  D:008AH         PUBLIC        TL0
  B:0088H.4       PUBLIC        TR0
  C:A53CH         PUBLIC        timer2_Isr
  C:A4E3H         PUBLIC        _GetTimeOutFlag
  X:C0EEH         PUBLIC        PWMTicks
  C:A44DH         PUBLIC        T0_Init
  X:C0FEH         PUBLIC        PWMTotal
  -------         PROC          T0_INIT
  C:A44DH         LINE#         46
  C:A44DH         LINE#         47
  C:A44DH         LINE#         48
  C:A450H         LINE#         50
  C:A453H         LINE#         51
BL51 BANKED LINKER/LOCATER V6.22.2.0                                                  12/09/2022  13:55:10  PAGE 25


  C:A455H         LINE#         52
  C:A457H         LINE#         54
  C:A459H         LINE#         55
  C:A45BH         LINE#         57
  C:A45EH         LINE#         58
  C:A461H         LINE#         59
  C:A464H         LINE#         60
  C:A466H         LINE#         62
  C:A468H         LINE#         63
  -------         ENDPROC       T0_INIT
  -------         PROC          T0_ISR_PC
  -------         DO            
  D:001BH         SYMBOL        i
  -------         ENDDO         
  C:97C9H         LINE#         74
  C:97D6H         LINE#         78
  C:97D8H         LINE#         79
  C:97DBH         LINE#         80
  C:97DEH         LINE#         81
  C:97E0H         LINE#         82
  C:97E8H         LINE#         83
  C:97F6H         LINE#         84
  C:97F6H         LINE#         85
  C:980CH         LINE#         86
  C:980CH         LINE#         87
  C:981AH         LINE#         88
  C:9828H         LINE#         89
  C:9828H         LINE#         90
  C:9836H         LINE#         91
  C:9839H         LINE#         92
  C:9839H         LINE#         93
  C:9839H         LINE#         94
  C:983DH         LINE#         95
  C:983FH         LINE#         96
  -------         ENDPROC       T0_ISR_PC
  -------         PROC          TIMER2_ISR
  C:A53CH         LINE#         98
  C:A53CH         LINE#         100
  C:A53EH         LINE#         101
  C:A540H         LINE#         102
  C:A542H         LINE#         103
  -------         ENDPROC       TIMER2_ISR
  -------         PROC          _STARTTIMER
  D:0007H         SYMBOL        ID
  D:0004H         SYMBOL        nTime
  C:A3CEH         LINE#         118
  C:A3CEH         LINE#         119
  C:A3CEH         LINE#         120
  C:A3D0H         LINE#         121
  C:A3DEH         LINE#         122
  C:A3E9H         LINE#         123
  C:A3EDH         LINE#         124
  C:A3EFH         LINE#         125
  -------         ENDPROC       _STARTTIMER
  -------         PROC          _KILLTIMER
  D:0007H         SYMBOL        ID
  C:A4B9H         LINE#         138
BL51 BANKED LINKER/LOCATER V6.22.2.0                                                  12/09/2022  13:55:10  PAGE 26


  C:A4B9H         LINE#         139
  C:A4B9H         LINE#         140
  C:A4BBH         LINE#         141
  C:A4C9H         LINE#         142
  C:A4CBH         LINE#         143
  C:A4CDH         LINE#         144
  -------         ENDPROC       _KILLTIMER
  -------         PROC          _GETTIMEOUTFLAG
  D:0007H         SYMBOL        ID
  -------         DO            
  D:0007H         SYMBOL        flag
  -------         ENDDO         
  C:A4E3H         LINE#         156
  C:A4E3H         LINE#         157
  C:A4E3H         LINE#         159
  C:A4E5H         LINE#         160
  C:A4F3H         LINE#         161
  C:A4F5H         LINE#         162
  C:A4F5H         LINE#         164
  -------         ENDPROC       _GETTIMEOUTFLAG
  -------         ENDMOD        TIMER

  -------         MODULE        UART
  C:0000H         SYMBOL        _ICE_DUMMY_
  D:0080H         PUBLIC        P0
  C:94A0H         PUBLIC        uart2_Isr
  C:924DH         PUBLIC        uart3_Isr
  B:00A8H.7       PUBLIC        EA
  X:8000H         PUBLIC        Uart_Struct
  D:00A8H         PUBLIC        IEN0
  D:00B8H         PUBLIC        IEN1
  X:A024H         PUBLIC        RxReadPt
  D:009AH         PUBLIC        IEN2
  C:A512H         PUBLIC        _UART4_Sendbyte
  X:A026H         PUBLIC        RxWritePt
  D:00BAH         PUBLIC        SREL0H
  D:00BBH         PUBLIC        SREL1H
  D:00AAH         PUBLIC        SREL0L
  C:9EE4H         PUBLIC        _UartInit
  D:009DH         PUBLIC        SREL1L
  D:0097H         PUBLIC        SCON2R
  D:00D9H         PUBLIC        BODE2_DIV_H
  D:00ABH         PUBLIC        SCON3R
  D:00AEH         PUBLIC        BODE3_DIV_H
  D:0096H         PUBLIC        SCON2T
  D:00A7H         PUBLIC        SCON3T
  D:00E7H         PUBLIC        BODE2_DIV_L
  D:00AFH         PUBLIC        BODE3_DIV_L
  D:00C9H         PUBLIC        MUX_SEL
  B:00A8H.4       PUBLIC        ES0
  B:0098H.0       PUBLIC        RI0
  B:0098H.1       PUBLIC        TI0
  D:0099H         PUBLIC        SBUF0
  D:009CH         PUBLIC        SBUF1
  D:0098H         PUBLIC        SCON0
  D:009BH         PUBLIC        SCON1
  C:9F86H         PUBLIC        _UART2_Init
BL51 BANKED LINKER/LOCATER V6.22.2.0                                                  12/09/2022  13:55:10  PAGE 27


  D:00D8H         PUBLIC        ADCON
  C:A06EH         PUBLIC        _UART3_Init
  C:7509H         PUBLIC        _Uatr_Send_Data
  C:A32FH         PUBLIC        _UART4_Init
  C:A357H         PUBLIC        _UART5_Init
  X:A028H         PUBLIC        RxBuf
  D:009FH         PUBLIC        SBUF2_RX
  D:00ADH         PUBLIC        SBUF3_RX
  D:009EH         PUBLIC        SBUF2_TX
  D:00ACH         PUBLIC        SBUF3_TX
  C:9F37H         PUBLIC        uart4r_Isr
  C:A147H         PUBLIC        uart5r_Isr
  C:9CBBH         PUBLIC        uart4t_Isr
  C:9D1BH         PUBLIC        uart5t_Isr
  C:9DDAH         PUBLIC        _UART4_Sendbyte32
  C:A51EH         PUBLIC        _UART4_Sendbyte16
  -------         PROC          _UART2_INIT
  D:0004H         SYMBOL        bdt
  -------         DO            
  X:C11EH         SYMBOL        tmp
  -------         ENDDO         
  C:9F86H         LINE#         42
  C:9F86H         LINE#         43
  C:9F86H         LINE#         45
  C:9FA7H         LINE#         46
  C:9FAAH         LINE#         47
  C:9FB1H         LINE#         48
  C:9FB8H         LINE#         49
  C:9FBBH         LINE#         50
  C:9FBEH         LINE#         51
  C:9FC1H         LINE#         52
  C:9FCCH         LINE#         53
  C:9FCEH         LINE#         54
  C:9FD1H         LINE#         55
  C:9FD3H         LINE#         66
  -------         ENDPROC       _UART2_INIT
  -------         PROC          _UART3_INIT
  D:0004H         SYMBOL        bdt
  -------         DO            
  X:C11EH         SYMBOL        tmp
  -------         ENDDO         
  C:A06EH         LINE#         81
  C:A06EH         LINE#         82
  C:A06EH         LINE#         84
  C:A08FH         LINE#         86
  C:A092H         LINE#         88
  C:A099H         LINE#         89
  C:A0A0H         LINE#         90
  C:A0A3H         LINE#         92
  C:A0A6H         LINE#         93
  C:A0B1H         LINE#         94
  C:A0B3H         LINE#         95
  C:A0B6H         LINE#         105
  -------         ENDPROC       _UART3_INIT
  -------         PROC          _UART4_INIT
  D:0004H         SYMBOL        bdt
  -------         DO            
BL51 BANKED LINKER/LOCATER V6.22.2.0                                                  12/09/2022  13:55:10  PAGE 28


  D:0004H         SYMBOL        tmp
  -------         ENDDO         
  C:A32FH         LINE#         120
  C:A32FH         LINE#         121
  C:A32FH         LINE#         123
  C:A332H         LINE#         124
  C:A335H         LINE#         125
  C:A34CH         LINE#         126
  C:A34FH         LINE#         127
  C:A353H         LINE#         129
  C:A356H         LINE#         139
  -------         ENDPROC       _UART4_INIT
  -------         PROC          _UART5_INIT
  D:0004H         SYMBOL        bdt
  -------         DO            
  D:0004H         SYMBOL        tmp
  -------         ENDDO         
  C:A357H         LINE#         154
  C:A357H         LINE#         155
  C:A357H         LINE#         157
  C:A35AH         LINE#         158
  C:A35DH         LINE#         160
  C:A374H         LINE#         161
  C:A377H         LINE#         162
  C:A37BH         LINE#         163
  C:A37EH         LINE#         173
  -------         ENDPROC       _UART5_INIT
  -------         PROC          _UARTINIT
  D:0007H         SYMBOL        UartPort
  X:C11AH         SYMBOL        bdt
  C:9EE4H         LINE#         175
  C:9EE4H         LINE#         176
  C:9EE4H         LINE#         177
  C:9EF2H         LINE#         178
  C:9EF2H         LINE#         179
  C:9F03H         LINE#         180
  C:9F14H         LINE#         181
  C:9F25H         LINE#         182
  C:9F36H         LINE#         183
  C:9F36H         LINE#         184
  C:9F36H         LINE#         185
  -------         ENDPROC       _UARTINIT
  -------         PROC          _UATR_SEND_DATA
  X:C10FH         SYMBOL        str
  X:C110H         SYMBOL        len
  X:C112H         SYMBOL        buf
  -------         DO            
  X:C115H         SYMBOL        i
  -------         ENDDO         
  C:7509H         LINE#         197
  C:751DH         LINE#         198
  C:751DH         LINE#         201
  C:751FH         LINE#         202
  C:753CH         LINE#         203
  C:753CH         LINE#         204
  C:7595H         LINE#         205
  C:75B4H         LINE#         206
BL51 BANKED LINKER/LOCATER V6.22.2.0                                                  12/09/2022  13:55:10  PAGE 29


  C:75D0H         LINE#         207
  C:75E1H         LINE#         208
  C:75F8H         LINE#         209
  C:75F8H         LINE#         210
  C:75F8H         LINE#         211
  C:7601H         LINE#         212
  C:7601H         LINE#         216
  C:7603H         LINE#         217
  C:7616H         LINE#         218
  C:7624H         LINE#         219
  C:7627H         LINE#         220
  C:7627H         LINE#         221
  C:762AH         LINE#         222
  C:762AH         LINE#         223
  C:7633H         LINE#         224
  C:7633H         LINE#         228
  C:7635H         LINE#         229
  C:7648H         LINE#         230
  C:7656H         LINE#         231
  C:7659H         LINE#         232
  C:7659H         LINE#         233
  C:765BH         LINE#         234
  C:765BH         LINE#         235
  C:7661H         LINE#         236
  C:7661H         LINE#         240
  C:7663H         LINE#         241
  C:7676H         LINE#         242
  C:7684H         LINE#         243
  C:7687H         LINE#         244
  C:7687H         LINE#         245
  C:7689H         LINE#         246
  C:7689H         LINE#         247
  C:768FH         LINE#         248
  C:768FH         LINE#         252
  C:7691H         LINE#         253
  C:76A4H         LINE#         254
  C:76B2H         LINE#         255
  C:76B9H         LINE#         256
  C:76B9H         LINE#         257
  C:76B9H         LINE#         258
  C:76B9H         LINE#         259
  C:76B9H         LINE#         260
  C:76B9H         LINE#         261
  C:76BBH         LINE#         262
  -------         ENDPROC       _UATR_SEND_DATA
  -------         PROC          UART2_ISR
  C:94A0H         LINE#         264
  C:94AFH         LINE#         266
  C:94B1H         LINE#         267
  C:94B4H         LINE#         268
  C:94B4H         LINE#         269
  C:94B6H         LINE#         270
  C:94C9H         LINE#         271
  C:94D7H         LINE#         272
  C:94DEH         LINE#         273
  C:94DEH         LINE#         274
  C:94E1H         LINE#         275
BL51 BANKED LINKER/LOCATER V6.22.2.0                                                  12/09/2022  13:55:10  PAGE 30


  C:94E1H         LINE#         276
  C:94E3H         LINE#         277
  C:94F7H         LINE#         278
  C:94F7H         LINE#         279
  C:9504H         LINE#         280
  C:9512H         LINE#         281
  C:9519H         LINE#         282
  C:951BH         LINE#         284
  C:951BH         LINE#         285
  C:9520H         LINE#         289
  C:9520H         LINE#         290
  C:9520H         LINE#         291
  C:9522H         LINE#         292
  -------         ENDPROC       UART2_ISR
  -------         PROC          UART4T_ISR
  C:9CBBH         LINE#         294
  C:9CCAH         LINE#         296
  C:9CCCH         LINE#         297
  C:9CCFH         LINE#         298
  C:9CE3H         LINE#         299
  C:9CE3H         LINE#         300
  C:9CF0H         LINE#         301
  C:9CFEH         LINE#         302
  C:9D05H         LINE#         303
  C:9D07H         LINE#         305
  C:9D07H         LINE#         306
  C:9D0CH         LINE#         310
  C:9D0CH         LINE#         311
  C:9D0EH         LINE#         312
  -------         ENDPROC       UART4T_ISR
  -------         PROC          UART4R_ISR
  -------         DO            
  D:0007H         SYMBOL        res
  -------         ENDDO         
  C:9F37H         LINE#         314
  C:9F46H         LINE#         323
  C:9F46H         LINE#         324
  C:9F48H         LINE#         325
  C:9F50H         LINE#         326
  C:9F50H         LINE#         327
  C:9F52H         LINE#         328
  C:9F66H         LINE#         329
  C:9F74H         LINE#         330
  C:9F74H         LINE#         331
  C:9F77H         LINE#         332
  C:9F79H         LINE#         333
  -------         ENDPROC       UART4R_ISR
  -------         PROC          _UART4_SENDBYTE
  D:0007H         SYMBOL        dat
  C:A512H         LINE#         336
  C:A512H         LINE#         337
  C:A512H         LINE#         338
  C:A514H         LINE#         339
  C:A51AH         LINE#         340
  C:A51DH         LINE#         341
  -------         ENDPROC       _UART4_SENDBYTE
  -------         PROC          _UART4_SENDBYTE16
BL51 BANKED LINKER/LOCATER V6.22.2.0                                                  12/09/2022  13:55:10  PAGE 31


  D:0006H         SYMBOL        dat
  -------         DO            
  D:0005H         SYMBOL        data_L
  D:0007H         SYMBOL        data_H
  -------         ENDDO         
  C:A51EH         LINE#         343
  C:A51EH         LINE#         344
  C:A51EH         LINE#         346
  C:A520H         LINE#         347
  C:A522H         LINE#         348
  C:A525H         LINE#         349
  -------         ENDPROC       _UART4_SENDBYTE16
  -------         PROC          _UART4_SENDBYTE32
  X:C1EEH         SYMBOL        dat
  -------         DO            
  D:0001H         SYMBOL        data_8
  D:0003H         SYMBOL        data_16
  D:0002H         SYMBOL        data_24
  D:0007H         SYMBOL        data_32
  -------         ENDDO         
  C:9DDAH         LINE#         353
  C:9DE0H         LINE#         354
  C:9DE0H         LINE#         356
  C:9DF0H         LINE#         357
  C:9DFEH         LINE#         358
  C:9E13H         LINE#         359
  C:9E26H         LINE#         360
  C:9E29H         LINE#         361
  C:9E2EH         LINE#         362
  C:9E33H         LINE#         363
  -------         ENDPROC       _UART4_SENDBYTE32
  -------         PROC          UART5T_ISR
  C:9D1BH         LINE#         368
  C:9D2AH         LINE#         370
  C:9D2CH         LINE#         371
  C:9D2FH         LINE#         372
  C:9D43H         LINE#         373
  C:9D43H         LINE#         374
  C:9D50H         LINE#         375
  C:9D5EH         LINE#         376
  C:9D65H         LINE#         377
  C:9D67H         LINE#         379
  C:9D67H         LINE#         380
  C:9D6CH         LINE#         384
  C:9D6CH         LINE#         385
  C:9D6EH         LINE#         386
  -------         ENDPROC       UART5T_ISR
  -------         PROC          UART5R_ISR
  C:A147H         LINE#         388
  C:A154H         LINE#         390
  C:A156H         LINE#         391
  C:A159H         LINE#         392
  C:A16CH         LINE#         393
  C:A17AH         LINE#         394
  C:A181H         LINE#         395
  C:A183H         LINE#         396
  -------         ENDPROC       UART5R_ISR
BL51 BANKED LINKER/LOCATER V6.22.2.0                                                  12/09/2022  13:55:10  PAGE 32


  -------         PROC          UART3_ISR
  C:924DH         LINE#         398
  C:925CH         LINE#         400
  C:925EH         LINE#         401
  C:9263H         LINE#         402
  C:9263H         LINE#         403
  C:9266H         LINE#         404
  C:9269H         LINE#         405
  C:927CH         LINE#         406
  C:928AH         LINE#         407
  C:9291H         LINE#         408
  C:9291H         LINE#         409
  C:9296H         LINE#         410
  C:9296H         LINE#         411
  C:9299H         LINE#         412
  C:929CH         LINE#         413
  C:92B0H         LINE#         414
  C:92B0H         LINE#         415
  C:92BDH         LINE#         416
  C:92CBH         LINE#         417
  C:92D2H         LINE#         418
  C:92D4H         LINE#         420
  C:92D4H         LINE#         421
  C:92D9H         LINE#         425
  C:92D9H         LINE#         426
  C:92D9H         LINE#         427
  C:92DBH         LINE#         428
  -------         ENDPROC       UART3_ISR
  -------         ENDMOD        UART

  -------         MODULE        CANBUS
  C:0000H         SYMBOL        _ICE_DUMMY_
  D:00F1H         PUBLIC        ADR_H
  D:00F3H         PUBLIC        ADR_L
  D:00F2H         PUBLIC        ADR_M
  B:00A8H.7       PUBLIC        EA
  D:00F8H         PUBLIC        RAMMODE
  X:A228H         PUBLIC        CanData
  B:00F8H.4       PUBLIC        APP_ACK
  D:00F4H         PUBLIC        ADR_INC
  C:7CEEH         PUBLIC        LoadOneFrame
  B:00B8H.1       PUBLIC        ECAN
  C:5DF4H         PUBLIC        Can_Isr
  C:A469H         PUBLIC        CanErrorReset
  D:00C9H         PUBLIC        MUX_SEL
  D:008FH         PUBLIC        CAN_CR
  D:00FDH         PUBLIC        DATA0
  D:00FCH         PUBLIC        DATA1
  D:00E8H         PUBLIC        CAN_ET
  D:00FBH         PUBLIC        DATA2
  D:00FAH         PUBLIC        DATA3
  D:0091H         PUBLIC        CAN_IR
  B:00F8H.6       PUBLIC        APP_EN
  C:940FH         PUBLIC        _CanBusInit
  C:6439H         PUBLIC        _CanTx
  -------         PROC          _CANBUSINIT
  X:C119H         SYMBOL        RegCfg
BL51 BANKED LINKER/LOCATER V6.22.2.0                                                  12/09/2022  13:55:10  PAGE 33


  C:940FH         LINE#         26
  C:941AH         LINE#         27
  C:941AH         LINE#         28
  C:9421H         LINE#         29
  C:9428H         LINE#         30
  C:9431H         LINE#         31
  C:9434H         LINE#         32
  C:9437H         LINE#         33
  C:943AH         LINE#         34
  C:943DH         LINE#         35
  C:9440H         LINE#         36
  C:9443H         LINE#         37
  C:9446H         LINE#         44
  C:9456H         LINE#         45
  C:945EH         LINE#         46
  C:9466H         LINE#         47
  C:946EH         LINE#         49
  C:9470H         LINE#         50
  C:9473H         LINE#         51
  C:9476H         LINE#         52
  C:9478H         LINE#         53
  C:947AH         LINE#         54
  C:947CH         LINE#         55
  C:947EH         LINE#         56
  C:9481H         LINE#         57
  C:9484H         LINE#         58
  C:9487H         LINE#         59
  C:948AH         LINE#         60
  C:948DH         LINE#         61
  C:948FH         LINE#         62
  C:9492H         LINE#         63
  C:9495H         LINE#         64
  C:9498H         LINE#         65
  C:949DH         LINE#         66
  C:949FH         LINE#         67
  -------         ENDPROC       _CANBUSINIT
  -------         PROC          CANERRORRESET
  C:A469H         LINE#         84
  C:A469H         LINE#         85
  C:A469H         LINE#         87
  C:A46EH         LINE#         88
  C:A46EH         LINE#         89
  C:A471H         LINE#         90
  C:A474H         LINE#         91
  C:A47BH         LINE#         92
  C:A47EH         LINE#         93
  C:A483H         LINE#         94
  C:A483H         LINE#         96
  -------         ENDPROC       CANERRORRESET
  -------         PROC          LOADONEFRAME
  C:7CEEH         LINE#         99
  C:7CEEH         LINE#         100
  C:7CEEH         LINE#         101
  C:7CF1H         LINE#         102
  C:7CF4H         LINE#         103
  C:7CF7H         LINE#         104
  C:7CFAH         LINE#         105
BL51 BANKED LINKER/LOCATER V6.22.2.0                                                  12/09/2022  13:55:10  PAGE 34


  C:7CFDH         LINE#         106
  C:7D00H         LINE#         107
  C:7D15H         LINE#         108
  C:7D18H         LINE#         109
  C:7D1AH         LINE#         110
  C:7D1CH         LINE#         111
  C:7D1EH         LINE#         112
  C:7D21H         LINE#         113
  C:7D46H         LINE#         114
  C:7D67H         LINE#         115
  C:7D8CH         LINE#         116
  C:7DA1H         LINE#         117
  C:7DA3H         LINE#         118
  C:7DA6H         LINE#         119
  C:7DBCH         LINE#         120
  C:7DCEH         LINE#         121
  C:7DE4H         LINE#         122
  C:7DF6H         LINE#         123
  C:7DF8H         LINE#         124
  C:7DFBH         LINE#         125
  C:7E11H         LINE#         126
  C:7E23H         LINE#         127
  C:7E39H         LINE#         128
  C:7E4BH         LINE#         129
  C:7E4DH         LINE#         130
  C:7E50H         LINE#         131
  C:7E56H         LINE#         132
  C:7E59H         LINE#         133
  -------         ENDPROC       LOADONEFRAME
  -------         PROC          _CANTX
  X:C10FH         SYMBOL        ID
  X:C113H         SYMBOL        status
  X:C114H         SYMBOL        len
  X:C116H         SYMBOL        pData
  -------         DO            
  X:C119H         SYMBOL        i
  X:C11AH         SYMBOL        j
  X:C11BH         SYMBOL        k
  X:C11CH         SYMBOL        framnum
  X:C11DH         SYMBOL        framoffset
  X:C11EH         SYMBOL        idtmp
  X:C122H         SYMBOL        statustmp
  -------         ENDDO         
  C:6439H         LINE#         136
  C:643FH         LINE#         137
  C:643FH         LINE#         141
  C:6451H         LINE#         143
  C:645CH         LINE#         144
  C:645CH         LINE#         145
  C:6469H         LINE#         146
  C:646BH         LINE#         148
  C:646BH         LINE#         149
  C:6481H         LINE#         150
  C:6481H         LINE#         151
  C:6498H         LINE#         152
  C:6498H         LINE#         153
  C:64B8H         LINE#         154
BL51 BANKED LINKER/LOCATER V6.22.2.0                                                  12/09/2022  13:55:10  PAGE 35


  C:64CDH         LINE#         155
  C:64CDH         LINE#         156
  C:64D0H         LINE#         158
  C:64D0H         LINE#         159
  C:64E7H         LINE#         160
  C:64ECH         LINE#         161
  C:64F1H         LINE#         162
  C:6502H         LINE#         163
  C:6517H         LINE#         164
  C:6517H         LINE#         165
  C:653BH         LINE#         166
  C:655CH         LINE#         167
  C:656FH         LINE#         168
  C:656FH         LINE#         169
  C:65A5H         LINE#         170
  C:65ABH         LINE#         171
  C:65B3H         LINE#         172
  C:65B9H         LINE#         173
  C:65C2H         LINE#         174
  C:65CCH         LINE#         175
  C:65CCH         LINE#         176
  C:65EDH         LINE#         177
  C:6610H         LINE#         178
  C:6623H         LINE#         179
  C:6623H         LINE#         180
  C:6659H         LINE#         181
  C:665FH         LINE#         182
  C:6667H         LINE#         183
  C:6675H         LINE#         184
  C:669BH         LINE#         185
  C:66A1H         LINE#         186
  C:66A1H         LINE#         187
  C:66A1H         LINE#         188
  C:66A7H         LINE#         189
  C:66A7H         LINE#         190
  C:66A9H         LINE#         191
  C:66ACH         LINE#         192
  C:66AEH         LINE#         193
  C:66B4H         LINE#         194
  C:66B7H         LINE#         195
  C:66B7H         LINE#         196
  -------         ENDPROC       _CANTX
  -------         PROC          CAN_ISR
  -------         DO            
  X:C10EH         SYMBOL        status
  -------         ENDDO         
  C:5DF4H         LINE#         198
  C:5E11H         LINE#         202
  C:5E13H         LINE#         203
  C:5E1BH         LINE#         204
  C:5E1BH         LINE#         205
  C:5E1EH         LINE#         206
  C:5E1EH         LINE#         207
  C:5E29H         LINE#         208
  C:5E29H         LINE#         209
  C:5E2CH         LINE#         210
  C:5E2FH         LINE#         211
BL51 BANKED LINKER/LOCATER V6.22.2.0                                                  12/09/2022  13:55:10  PAGE 36


  C:5E31H         LINE#         212
  C:5E34H         LINE#         213
  C:5E37H         LINE#         214
  C:5E3AH         LINE#         215
  C:5E3DH         LINE#         216
  C:5E3FH         LINE#         217
  C:5E42H         LINE#         218
  C:5E48H         LINE#         219
  C:5E5EH         LINE#         220
  C:5E60H         LINE#         221
  C:5E63H         LINE#         222
  C:5E90H         LINE#         223
  C:5EC3H         LINE#         224
  C:5EF0H         LINE#         225
  C:5F23H         LINE#         226
  C:5F50H         LINE#         227
  C:5F83H         LINE#         228
  C:5FB0H         LINE#         229
  C:5FE3H         LINE#         230
  C:6010H         LINE#         231
  C:6018H         LINE#         232
  C:6018H         LINE#         233
  C:6045H         LINE#         234
  C:6045H         LINE#         235
  C:6050H         LINE#         236
  C:6050H         LINE#         237
  C:6052H         LINE#         238
  C:6055H         LINE#         239
  C:606BH         LINE#         240
  C:607DH         LINE#         241
  C:608FH         LINE#         242
  C:60A1H         LINE#         243
  C:60A3H         LINE#         244
  C:60A6H         LINE#         245
  C:60BCH         LINE#         246
  C:60CEH         LINE#         247
  C:60E0H         LINE#         248
  C:60F2H         LINE#         249
  C:60F2H         LINE#         250
  C:60F5H         LINE#         251
  C:60FBH         LINE#         252
  C:60FBH         LINE#         253
  C:6103H         LINE#         254
  C:6103H         LINE#         255
  C:6106H         LINE#         256
  C:6110H         LINE#         257
  C:6110H         LINE#         258
  C:6113H         LINE#         259
  C:6116H         LINE#         260
  C:6118H         LINE#         262
  C:6118H         LINE#         263
  C:611DH         LINE#         264
  C:611DH         LINE#         265
  C:611DH         LINE#         266
  C:6125H         LINE#         267
  C:6125H         LINE#         268
  C:6128H         LINE#         269
BL51 BANKED LINKER/LOCATER V6.22.2.0                                                  12/09/2022  13:55:10  PAGE 37


  C:6128H         LINE#         270
  C:6130H         LINE#         271
  C:6130H         LINE#         272
  C:6133H         LINE#         273
  C:6133H         LINE#         274
  C:613BH         LINE#         275
  C:613BH         LINE#         276
  C:613EH         LINE#         277
  C:6141H         LINE#         278
  C:6141H         LINE#         279
  C:6144H         LINE#         280
  C:6146H         LINE#         281
  -------         ENDPROC       CAN_ISR
  -------         ENDMOD        CANBUS

  -------         MODULE        MAIN
  C:0000H         SYMBOL        _ICE_DUMMY_
  D:00B0H         PUBLIC        P3
  B:00A8H.7       PUBLIC        EA
  D:00BCH         PUBLIC        P1MDOUT
  C:82FFH         PUBLIC        Sta_Init
  C:9A34H         PUBLIC        main
  D:00F9H         PUBLIC        PORTDRV
  C:A543H         PUBLIC        io_init
  -------         PROC          IO_INIT
  C:A543H         LINE#         15
  C:A543H         LINE#         16
  C:A543H         LINE#         17
  C:A546H         LINE#         27
  C:A549H         LINE#         28
  -------         ENDPROC       IO_INIT
  -------         PROC          MAIN
  C:9A34H         LINE#         30
  C:9A34H         LINE#         31
  C:9A34H         LINE#         34
  C:9A37H         LINE#         35
  C:9A3AH         LINE#         36
  C:9A3DH         LINE#         37
  C:9A40H         LINE#         38
  C:9A42H         LINE#         39
  C:9A4BH         LINE#         40
  C:9A54H         LINE#         43
  C:9A57H         LINE#         44
  C:9A5EH         LINE#         45
  C:9A61H         LINE#         47
  C:9A64H         LINE#         49
  C:9A73H         LINE#         50
  C:9A76H         LINE#         51
  C:9A79H         LINE#         53
  C:9A79H         LINE#         54
  C:9A79H         LINE#         71
  C:9A81H         LINE#         72
  C:9A81H         LINE#         73
  C:9A84H         LINE#         74
  C:9A8DH         LINE#         75
  C:9A8DH         LINE#         76
  C:9A95H         LINE#         77
BL51 BANKED LINKER/LOCATER V6.22.2.0                                                  12/09/2022  13:55:10  PAGE 38


  C:9A95H         LINE#         78
  C:9A98H         LINE#         79
  C:9AA1H         LINE#         80
  C:9AA1H         LINE#         83
  C:9AA4H         LINE#         85
  -------         ENDPROC       MAIN
  -------         PROC          STA_INIT
  -------         DO            
  X:C10FH         SYMBOL        Dat
  -------         ENDDO         
  C:82FFH         LINE#         89
  C:82FFH         LINE#         90
  C:82FFH         LINE#         94
  C:8306H         LINE#         95
  C:831AH         LINE#         96
  C:8323H         LINE#         97
  C:8337H         LINE#         98
  C:8340H         LINE#         99
  C:8354H         LINE#         100
  C:835CH         LINE#         101
  C:8370H         LINE#         103
  C:8378H         LINE#         105
  C:838CH         LINE#         109
  C:8394H         LINE#         110
  C:83A8H         LINE#         111
  C:83BDH         LINE#         112
  C:83D2H         LINE#         113
  C:83E7H         LINE#         114
  C:83FCH         LINE#         115
  -------         ENDPROC       STA_INIT
  -------         ENDMOD        MAIN

  -------         MODULE        CONST
  C:0000H         SYMBOL        _ICE_DUMMY_
  -------         ENDMOD        CONST

  -------         MODULE        UI
  C:0000H         SYMBOL        _ICE_DUMMY_
  C:6B51H         PUBLIC        Polling10_12
  D:00F1H         PUBLIC        ADR_H
  C:7B73H         PUBLIC        Touch_Scan_3
  C:76BCH         PUBLIC        Touch_Scan_4
  C:81E5H         PUBLIC        Touch_Scan_5
  C:A562H         PUBLIC        P10_12Func
  D:00F3H         PUBLIC        ADR_L
  D:00F2H         PUBLIC        ADR_M
  B:00A8H.7       PUBLIC        EA
  D:00F8H         PUBLIC        RAMMODE
  C:6161H         PUBLIC        Polling15_17
  C:A584H         PUBLIC        Polling2
  C:A580H         PUBLIC        P15_17Func
  C:A54AH         PUBLIC        P0Func
  C:A550H         PUBLIC        P1Func
  C:A556H         PUBLIC        P2Func
  C:A52AH         PUBLIC        P3Func
  B:00F8H.4       PUBLIC        APP_ACK
  C:A574H         PUBLIC        P4Func
BL51 BANKED LINKER/LOCATER V6.22.2.0                                                  12/09/2022  13:55:10  PAGE 39


  D:00F4H         PUBLIC        ADR_INC
  C:A55CH         PUBLIC        P5Func
  C:A4CEH         PUBLIC        P9Func
  C:4ED5H         PUBLIC        Polling1_6
  C:2031H         PUBLIC        Touch_Scan_1_2_6
  C:7160H         PUBLIC        Touch_Scan_13
  C:984AH         PUBLIC        Touch_Scan_14
  C:870CH         PUBLIC        Touch_Scan_16
  C:A577H         PUBLIC        P13Func
  C:A57AH         PUBLIC        P14Func
  C:A57DH         PUBLIC        P16Func
  C:A583H         PUBLIC        P18Func
  C:2C01H         PUBLIC        File_Control
  C:9B87H         PUBLIC        PageFunction
  D:00FBH         PUBLIC        DATA2
  D:00FAH         PUBLIC        DATA3
  C:59D7H         PUBLIC        Coordinate_Control
  B:00F8H.6       PUBLIC        APP_EN
  C:A211H         PUBLIC        _PagePointer
  C:89C6H         PUBLIC        Contorl
  C:6914H         PUBLIC        Touch_Scan_10_12
  C:9642H         PUBLIC        Touch_Scan_0
  -------         PROC          P0FUNC
  C:A54AH         LINE#         9
  C:A54AH         LINE#         10
  C:A54AH         LINE#         11
  C:A54DH         LINE#         12
  -------         ENDPROC       P0FUNC
  -------         PROC          P1FUNC
  C:A550H         LINE#         16
  C:A550H         LINE#         17
  C:A550H         LINE#         18
  C:A553H         LINE#         19
  -------         ENDPROC       P1FUNC
  -------         PROC          P2FUNC
  C:A556H         LINE#         21
  C:A556H         LINE#         22
  C:A556H         LINE#         23
  C:A559H         LINE#         24
  -------         ENDPROC       P2FUNC
  -------         PROC          P3FUNC
  C:A52AH         LINE#         27
  C:A52AH         LINE#         28
  C:A52AH         LINE#         29
  C:A52DH         LINE#         30
  C:A530H         LINE#         32
  -------         ENDPROC       P3FUNC
  -------         PROC          P4FUNC
  C:A574H         LINE#         34
  C:A574H         LINE#         35
  C:A574H         LINE#         36
  -------         ENDPROC       P4FUNC
  -------         PROC          P5FUNC
  C:A55CH         LINE#         39
  C:A55CH         LINE#         40
  C:A55CH         LINE#         41
  C:A55FH         LINE#         42
BL51 BANKED LINKER/LOCATER V6.22.2.0                                                  12/09/2022  13:55:10  PAGE 40


  -------         ENDPROC       P5FUNC
  -------         PROC          P9FUNC
  C:A4CEH         LINE#         44
  C:A4CEH         LINE#         45
  C:A4CEH         LINE#         46
  C:A4D5H         LINE#         48
  C:A4DBH         LINE#         50
  C:A4E2H         LINE#         51
  -------         ENDPROC       P9FUNC
  -------         PROC          P10_12FUNC
  C:A562H         LINE#         53
  C:A562H         LINE#         54
  C:A562H         LINE#         55
  C:A565H         LINE#         56
  -------         ENDPROC       P10_12FUNC
  -------         PROC          P13FUNC
  C:A577H         LINE#         59
  C:A577H         LINE#         60
  C:A577H         LINE#         61
  -------         ENDPROC       P13FUNC
  -------         PROC          P14FUNC
  C:A57AH         LINE#         64
  C:A57AH         LINE#         65
  C:A57AH         LINE#         66
  -------         ENDPROC       P14FUNC
  -------         PROC          P16FUNC
  C:A57DH         LINE#         70
  C:A57DH         LINE#         71
  C:A57DH         LINE#         72
  -------         ENDPROC       P16FUNC
  -------         PROC          P18FUNC
  C:A583H         LINE#         76
  C:A583H         LINE#         77
  C:A583H         LINE#         79
  -------         ENDPROC       P18FUNC
  -------         PROC          P15_17FUNC
  C:A580H         LINE#         81
  C:A580H         LINE#         82
  C:A580H         LINE#         83
  -------         ENDPROC       P15_17FUNC
  -------         PROC          PAGEFUNCTION
  -------         DO            
  X:C10FH         SYMBOL        pageid
  -------         ENDDO         
  C:9B87H         LINE#         91
  C:9B87H         LINE#         92
  C:9B87H         LINE#         95
  C:9B89H         LINE#         96
  C:9B8CH         LINE#         97
  C:9B8EH         LINE#         98
  C:9B91H         LINE#         99
  C:9B94H         LINE#         100
  C:9B97H         LINE#         101
  C:9B9AH         LINE#         102
  C:9B9CH         LINE#         103
  C:9B9FH         LINE#         104
  C:9BA9H         LINE#         105
BL51 BANKED LINKER/LOCATER V6.22.2.0                                                  12/09/2022  13:55:10  PAGE 41


  C:9BB4H         LINE#         106
  C:9BC0H         LINE#         107
  C:9BC3H         LINE#         108
  C:9BC5H         LINE#         109
  C:9BEAH         LINE#         110
  C:9BEAH         LINE#         111
  C:9BF1H         LINE#         112
  C:9BF1H         LINE#         113
  -------         ENDPROC       PAGEFUNCTION
  -------         PROC          CONTORL
  C:89C6H         LINE#         116
  C:89C6H         LINE#         117
  C:89C6H         LINE#         118
  C:89CFH         LINE#         119
  C:89CFH         LINE#         120
  C:89DDH         LINE#         121
  C:89EFH         LINE#         122
  C:89EFH         LINE#         123
  C:89F3H         LINE#         124
  C:89FBH         LINE#         125
  C:8A0CH         LINE#         127
  C:8A13H         LINE#         128
  C:8A27H         LINE#         130
  C:8A2FH         LINE#         131
  C:8A43H         LINE#         132
  C:8A4DH         LINE#         133
  C:8A4DH         LINE#         134
  C:8A4FH         LINE#         136
  C:8A4FH         LINE#         137
  C:8A55H         LINE#         138
  C:8A55H         LINE#         139
  C:8A63H         LINE#         140
  C:8A72H         LINE#         141
  C:8A72H         LINE#         142
  C:8A76H         LINE#         143
  C:8A7EH         LINE#         144
  C:8A8FH         LINE#         146
  C:8A96H         LINE#         147
  C:8AAAH         LINE#         149
  C:8AAAH         LINE#         150
  C:8AAAH         LINE#         151
  C:8AAAH         LINE#         153
  -------         ENDPROC       CONTORL
  -------         PROC          POLLING1_6
  C:4ED5H         LINE#         156
  C:4ED5H         LINE#         157
  C:4ED5H         LINE#         158
  C:4EE0H         LINE#         159
  C:4EE0H         LINE#         160
  C:4EEBH         LINE#         161
  C:4EEBH         LINE#         162
  C:4F2AH         LINE#         163
  C:4F2AH         LINE#         164
  C:4F2AH         LINE#         165
  C:4F34H         LINE#         167
  C:4F45H         LINE#         168
  C:4F53H         LINE#         169
BL51 BANKED LINKER/LOCATER V6.22.2.0                                                  12/09/2022  13:55:10  PAGE 42


  C:4F65H         LINE#         170
  C:4F65H         LINE#         171
  C:4F68H         LINE#         172
  C:4F68H         LINE#         173
  C:4F68H         LINE#         174
  C:4F6BH         LINE#         175
  C:4F6BH         LINE#         176
  C:4F75H         LINE#         177
  C:4F86H         LINE#         178
  C:4F94H         LINE#         179
  C:4FA6H         LINE#         180
  C:4FA6H         LINE#         181
  C:4FAEH         LINE#         182
  C:4FAEH         LINE#         183
  C:4FAEH         LINE#         184
  C:4FB1H         LINE#         185
  C:4FB1H         LINE#         186
  C:4FBBH         LINE#         187
  C:4FCCH         LINE#         188
  C:4FDAH         LINE#         189
  C:4FECH         LINE#         190
  C:4FECH         LINE#         191
  C:4FF4H         LINE#         192
  C:4FF4H         LINE#         193
  C:4FF4H         LINE#         194
  C:4FF7H         LINE#         195
  C:4FF7H         LINE#         196
  C:5001H         LINE#         197
  C:5012H         LINE#         198
  C:5020H         LINE#         199
  C:5032H         LINE#         200
  C:5032H         LINE#         201
  C:503AH         LINE#         202
  C:503AH         LINE#         203
  C:503AH         LINE#         204
  C:503DH         LINE#         205
  C:503DH         LINE#         206
  C:5046H         LINE#         207
  C:5057H         LINE#         208
  C:5065H         LINE#         209
  C:5077H         LINE#         210
  C:5077H         LINE#         211
  C:507FH         LINE#         212
  C:507FH         LINE#         213
  C:507FH         LINE#         214
  C:5082H         LINE#         215
  C:5082H         LINE#         216
  C:508CH         LINE#         217
  C:509DH         LINE#         218
  C:50ABH         LINE#         219
  C:50BDH         LINE#         220
  C:50BDH         LINE#         221
  C:50C5H         LINE#         222
  C:50C5H         LINE#         223
  C:50C5H         LINE#         224
  C:50C8H         LINE#         225
  C:50C8H         LINE#         226
BL51 BANKED LINKER/LOCATER V6.22.2.0                                                  12/09/2022  13:55:10  PAGE 43


  C:50D2H         LINE#         227
  C:50E3H         LINE#         228
  C:50F1H         LINE#         229
  C:5103H         LINE#         230
  C:5103H         LINE#         231
  C:510BH         LINE#         232
  C:510BH         LINE#         233
  C:510BH         LINE#         234
  C:510EH         LINE#         235
  C:510EH         LINE#         236
  C:5118H         LINE#         237
  C:5129H         LINE#         238
  C:5137H         LINE#         239
  C:5149H         LINE#         240
  C:5149H         LINE#         241
  C:5151H         LINE#         242
  C:5151H         LINE#         243
  C:5151H         LINE#         244
  C:5154H         LINE#         245
  C:5154H         LINE#         246
  C:515EH         LINE#         247
  C:516FH         LINE#         248
  C:517DH         LINE#         249
  C:518FH         LINE#         250
  C:518FH         LINE#         251
  C:5197H         LINE#         252
  C:5197H         LINE#         253
  C:5197H         LINE#         254
  C:519AH         LINE#         255
  C:519AH         LINE#         258
  C:51A8H         LINE#         259
  C:51BAH         LINE#         260
  C:51BAH         LINE#         261
  C:51C2H         LINE#         262
  C:51C2H         LINE#         263
  C:51C2H         LINE#         265
  C:51C5H         LINE#         266
  C:51C5H         LINE#         267
  C:51C9H         LINE#         268
  C:51CCH         LINE#         269
  C:51CCH         LINE#         270
  C:51CCH         LINE#         272
  C:51E2H         LINE#         273
  C:51E2H         LINE#         274
  C:521EH         LINE#         275
  C:521EH         LINE#         276
  C:521EH         LINE#         277
  C:522AH         LINE#         278
  C:522AH         LINE#         279
  C:5231H         LINE#         280
  C:5232H         LINE#         282
  C:5232H         LINE#         283
  C:523CH         LINE#         284
  C:524DH         LINE#         285
  C:525BH         LINE#         286
  C:526DH         LINE#         287
  C:526DH         LINE#         288
BL51 BANKED LINKER/LOCATER V6.22.2.0                                                  12/09/2022  13:55:10  PAGE 44


  C:5275H         LINE#         289
  C:5279H         LINE#         290
  C:5279H         LINE#         291
  C:5279H         LINE#         292
  C:527CH         LINE#         293
  C:527CH         LINE#         294
  C:5285H         LINE#         295
  C:5286H         LINE#         296
  C:5286H         LINE#         297
  C:5290H         LINE#         298
  C:52A1H         LINE#         299
  C:52AFH         LINE#         300
  C:52C1H         LINE#         301
  C:52C1H         LINE#         302
  C:52CAH         LINE#         303
  C:52CEH         LINE#         304
  C:52CEH         LINE#         305
  C:52D1H         LINE#         306
  C:52D1H         LINE#         307
  C:52DBH         LINE#         308
  C:52ECH         LINE#         309
  C:52FAH         LINE#         310
  C:530CH         LINE#         311
  C:530CH         LINE#         312
  C:5315H         LINE#         313
  C:5319H         LINE#         314
  C:5319H         LINE#         315
  C:531CH         LINE#         316
  C:531CH         LINE#         317
  C:5326H         LINE#         318
  C:5337H         LINE#         319
  C:5345H         LINE#         320
  C:5357H         LINE#         321
  C:5357H         LINE#         322
  C:5360H         LINE#         323
  C:5364H         LINE#         324
  C:5364H         LINE#         325
  C:5367H         LINE#         326
  C:5367H         LINE#         327
  C:5373H         LINE#         328
  C:5373H         LINE#         329
  C:537BH         LINE#         330
  C:537CH         LINE#         332
  C:537CH         LINE#         333
  C:5386H         LINE#         334
  C:5397H         LINE#         335
  C:53A5H         LINE#         336
  C:53B7H         LINE#         337
  C:53B7H         LINE#         338
  C:53C0H         LINE#         339
  C:53C4H         LINE#         340
  C:53C4H         LINE#         341
  C:53C4H         LINE#         342
  C:53C7H         LINE#         343
  C:53C7H         LINE#         344
  C:53D3H         LINE#         345
  C:53D3H         LINE#         346
BL51 BANKED LINKER/LOCATER V6.22.2.0                                                  12/09/2022  13:55:10  PAGE 45


  C:53DDH         LINE#         347
  C:53EEH         LINE#         348
  C:53EEH         LINE#         350
  C:53EEH         LINE#         351
  C:53F7H         LINE#         352
  C:53F7H         LINE#         353
  C:53F8H         LINE#         354
  C:53F8H         LINE#         357
  C:5406H         LINE#         358
  C:5418H         LINE#         359
  C:5418H         LINE#         360
  C:5421H         LINE#         361
  C:5425H         LINE#         362
  C:5425H         LINE#         364
  C:5427H         LINE#         366
  C:5427H         LINE#         367
  C:5430H         LINE#         368
  C:5441H         LINE#         369
  C:544FH         LINE#         370
  C:545EH         LINE#         371
  C:545EH         LINE#         372
  C:5467H         LINE#         373
  C:546EH         LINE#         374
  C:546EH         LINE#         375
  C:546FH         LINE#         376
  C:546FH         LINE#         377
  C:5476H         LINE#         378
  C:547CH         LINE#         379
  C:547DH         LINE#         380
  C:547DH         LINE#         381
  C:547DH         LINE#         382
  C:548AH         LINE#         383
  C:548AH         LINE#         384
  C:548DH         LINE#         385
  C:5497H         LINE#         386
  C:5497H         LINE#         387
  C:549AH         LINE#         388
  C:549AH         LINE#         389
  C:549AH         LINE#         391
  C:549AH         LINE#         392
  -------         ENDPROC       POLLING1_6
  -------         PROC          POLLING2
  C:A584H         LINE#         395
  C:A584H         LINE#         396
  C:A584H         LINE#         397
  C:A584H         LINE#         398
  C:A584H         LINE#         400
  C:A584H         LINE#         401
  -------         ENDPROC       POLLING2
  -------         PROC          POLLING10_12
  C:6B51H         LINE#         404
  C:6B51H         LINE#         405
  C:6B51H         LINE#         406
  C:6B5CH         LINE#         407
  C:6B5CH         LINE#         408
  C:6B6EH         LINE#         409
  C:6B6EH         LINE#         410
BL51 BANKED LINKER/LOCATER V6.22.2.0                                                  12/09/2022  13:55:10  PAGE 46


  C:6BA1H         LINE#         411
  C:6BA1H         LINE#         412
  C:6BA1H         LINE#         413
  C:6BAAH         LINE#         414
  C:6BBBH         LINE#         415
  C:6BC9H         LINE#         416
  C:6BDBH         LINE#         417
  C:6BDBH         LINE#         418
  C:6BE2H         LINE#         419
  C:6BE2H         LINE#         420
  C:6BE2H         LINE#         421
  C:6BE5H         LINE#         423
  C:6BE5H         LINE#         424
  C:6BEEH         LINE#         425
  C:6BFFH         LINE#         426
  C:6C0DH         LINE#         427
  C:6C1FH         LINE#         428
  C:6C1FH         LINE#         429
  C:6C27H         LINE#         430
  C:6C27H         LINE#         431
  C:6C27H         LINE#         432
  C:6C2AH         LINE#         434
  C:6C2AH         LINE#         435
  C:6C33H         LINE#         436
  C:6C44H         LINE#         437
  C:6C52H         LINE#         438
  C:6C64H         LINE#         439
  C:6C64H         LINE#         440
  C:6C6CH         LINE#         441
  C:6C6CH         LINE#         442
  C:6C6CH         LINE#         443
  C:6C6FH         LINE#         445
  C:6C6FH         LINE#         446
  C:6C78H         LINE#         447
  C:6C89H         LINE#         448
  C:6C97H         LINE#         449
  C:6CA9H         LINE#         450
  C:6CA9H         LINE#         451
  C:6CB1H         LINE#         452
  C:6CB1H         LINE#         453
  C:6CB1H         LINE#         454
  C:6CB4H         LINE#         456
  C:6CB4H         LINE#         457
  C:6CBDH         LINE#         458
  C:6CCEH         LINE#         459
  C:6CDCH         LINE#         460
  C:6CEBH         LINE#         461
  C:6CEBH         LINE#         462
  C:6CF3H         LINE#         463
  C:6CF3H         LINE#         464
  C:6CF3H         LINE#         465
  C:6CF5H         LINE#         467
  C:6CF5H         LINE#         468
  C:6CFEH         LINE#         469
  C:6D0FH         LINE#         470
  C:6D1DH         LINE#         471
  C:6D2CH         LINE#         472
BL51 BANKED LINKER/LOCATER V6.22.2.0                                                  12/09/2022  13:55:10  PAGE 47


  C:6D2CH         LINE#         473
  C:6D35H         LINE#         474
  C:6D3CH         LINE#         475
  C:6D3CH         LINE#         476
  C:6D3DH         LINE#         478
  C:6D3DH         LINE#         479
  C:6D44H         LINE#         480
  C:6D52H         LINE#         481
  C:6D61H         LINE#         482
  C:6D61H         LINE#         483
  C:6D67H         LINE#         484
  C:6D67H         LINE#         485
  C:6D67H         LINE#         486
  C:6D67H         LINE#         487
  C:6D67H         LINE#         488
  C:6D67H         LINE#         489
  -------         ENDPROC       POLLING10_12
  -------         PROC          POLLING15_17
  C:6161H         LINE#         492
  C:6161H         LINE#         493
  C:6161H         LINE#         495
  C:616CH         LINE#         496
  C:616CH         LINE#         497
  C:617EH         LINE#         498
  C:617EH         LINE#         499
  C:61B7H         LINE#         500
  C:61B7H         LINE#         501
  C:61B7H         LINE#         502
  C:61C0H         LINE#         503
  C:61D1H         LINE#         504
  C:61DFH         LINE#         505
  C:61F1H         LINE#         506
  C:61F1H         LINE#         507
  C:61F8H         LINE#         508
  C:61F8H         LINE#         509
  C:61F8H         LINE#         510
  C:61FBH         LINE#         512
  C:61FBH         LINE#         513
  C:6205H         LINE#         514
  C:6217H         LINE#         515
  C:6225H         LINE#         516
  C:6237H         LINE#         517
  C:6237H         LINE#         518
  C:623FH         LINE#         519
  C:623FH         LINE#         520
  C:623FH         LINE#         521
  C:6242H         LINE#         523
  C:6242H         LINE#         524
  C:624CH         LINE#         525
  C:625EH         LINE#         526
  C:626CH         LINE#         527
  C:627EH         LINE#         528
  C:627EH         LINE#         529
  C:6286H         LINE#         530
  C:6286H         LINE#         531
  C:6286H         LINE#         532
  C:6289H         LINE#         534
BL51 BANKED LINKER/LOCATER V6.22.2.0                                                  12/09/2022  13:55:10  PAGE 48


  C:6289H         LINE#         535
  C:6293H         LINE#         536
  C:62A5H         LINE#         537
  C:62B3H         LINE#         538
  C:62C5H         LINE#         539
  C:62C5H         LINE#         540
  C:62CDH         LINE#         541
  C:62CDH         LINE#         542
  C:62CDH         LINE#         543
  C:62D0H         LINE#         545
  C:62D0H         LINE#         546
  C:62DAH         LINE#         547
  C:62ECH         LINE#         548
  C:62FAH         LINE#         549
  C:630CH         LINE#         550
  C:630CH         LINE#         551
  C:6314H         LINE#         552
  C:6314H         LINE#         553
  C:6314H         LINE#         554
  C:6317H         LINE#         556
  C:6317H         LINE#         557
  C:6321H         LINE#         558
  C:6333H         LINE#         559
  C:6341H         LINE#         560
  C:6353H         LINE#         561
  C:6353H         LINE#         562
  C:635BH         LINE#         563
  C:635BH         LINE#         564
  C:635BH         LINE#         565
  C:635EH         LINE#         568
  C:635EH         LINE#         569
  C:6368H         LINE#         570
  C:637AH         LINE#         571
  C:6388H         LINE#         572
  C:639AH         LINE#         573
  C:639AH         LINE#         574
  C:63A2H         LINE#         575
  C:63A2H         LINE#         576
  C:63A2H         LINE#         577
  C:63A4H         LINE#         580
  C:63A4H         LINE#         581
  C:63AEH         LINE#         582
  C:63C0H         LINE#         583
  C:63CEH         LINE#         584
  C:63DDH         LINE#         585
  C:63DDH         LINE#         586
  C:63E6H         LINE#         587
  C:63EAH         LINE#         588
  C:63EAH         LINE#         589
  C:63ECH         LINE#         603
  C:63ECH         LINE#         605
  C:63F3H         LINE#         606
  C:6401H         LINE#         607
  C:6410H         LINE#         608
  C:6410H         LINE#         609
  C:6416H         LINE#         610
  C:6416H         LINE#         611
BL51 BANKED LINKER/LOCATER V6.22.2.0                                                  12/09/2022  13:55:10  PAGE 49


  C:6417H         LINE#         612
  C:6417H         LINE#         613
  C:6417H         LINE#         615
  C:6417H         LINE#         616
  C:6425H         LINE#         617
  C:6434H         LINE#         618
  C:6434H         LINE#         619
  C:6438H         LINE#         620
  C:6438H         LINE#         622
  C:6438H         LINE#         623
  C:6438H         LINE#         624
  -------         ENDPROC       POLLING15_17
  -------         PROC          TOUCH_SCAN_0
  -------         DO            
  X:C111H         SYMBOL        i
  -------         ENDDO         
  C:9642H         LINE#         626
  C:9642H         LINE#         627
  C:9642H         LINE#         630
  C:9654H         LINE#         631
  C:9654H         LINE#         632
  C:9668H         LINE#         633
  C:9670H         LINE#         634
  C:967CH         LINE#         635
  C:967CH         LINE#         636
  C:968FH         LINE#         637
  C:969BH         LINE#         638
  C:969BH         LINE#         639
  C:96AAH         LINE#         640
  C:96B1H         LINE#         641
  C:96C4H         LINE#         642
  C:96C4H         LINE#         643
  C:96C4H         LINE#         644
  -------         ENDPROC       TOUCH_SCAN_0
  -------         PROC          TOUCH_SCAN_3
  -------         DO            
  X:C111H         SYMBOL        i
  X:C112H         SYMBOL        j
  -------         ENDDO         
  C:7B73H         LINE#         647
  C:7B73H         LINE#         648
  C:7B73H         LINE#         652
  C:7B89H         LINE#         653
  C:7B89H         LINE#         654
  C:7BA2H         LINE#         656
  C:7BB1H         LINE#         657
  C:7BB1H         LINE#         658
  C:7BC3H         LINE#         659
  C:7BC3H         LINE#         660
  C:7BDCH         LINE#         661
  C:7BE4H         LINE#         663
  C:7C00H         LINE#         664
  C:7C11H         LINE#         665
  C:7C32H         LINE#         668
  C:7C4BH         LINE#         669
  C:7C4BH         LINE#         670
  C:7C54H         LINE#         673
BL51 BANKED LINKER/LOCATER V6.22.2.0                                                  12/09/2022  13:55:10  PAGE 50


  C:7C66H         LINE#         674
  C:7C66H         LINE#         675
  C:7C7BH         LINE#         676
  C:7C83H         LINE#         677
  C:7C9AH         LINE#         678
  C:7C9AH         LINE#         679
  C:7CA9H         LINE#         681
  C:7CB6H         LINE#         682
  C:7CB6H         LINE#         683
  C:7CBDH         LINE#         684
  C:7CBFH         LINE#         686
  C:7CBFH         LINE#         687
  C:7CCCH         LINE#         688
  C:7CCCH         LINE#         690
  C:7CEDH         LINE#         693
  C:7CEDH         LINE#         696
  -------         ENDPROC       TOUCH_SCAN_3
  -------         PROC          TOUCH_SCAN_4
  -------         DO            
  X:C111H         SYMBOL        i
  -------         ENDDO         
  C:76BCH         LINE#         698
  C:76BCH         LINE#         699
  C:76BCH         LINE#         702
  C:76C3H         LINE#         703
  C:76C9H         LINE#         704
  C:76CFH         LINE#         707
  C:76E0H         LINE#         708
  C:76E0H         LINE#         709
  C:76F5H         LINE#         710
  C:76FDH         LINE#         711
  C:7709H         LINE#         712
  C:7709H         LINE#         713
  C:771DH         LINE#         714
  C:7729H         LINE#         715
  C:7729H         LINE#         716
  C:772DH         LINE#         717
  C:772FH         LINE#         718
  C:7734H         LINE#         720
  C:773BH         LINE#         721
  C:774FH         LINE#         722
  C:774FH         LINE#         723
  C:774FH         LINE#         726
  C:7761H         LINE#         727
  C:7761H         LINE#         728
  C:7775H         LINE#         729
  C:777DH         LINE#         730
  C:7789H         LINE#         731
  C:7789H         LINE#         732
  C:779CH         LINE#         733
  C:77A8H         LINE#         734
  C:77A8H         LINE#         735
  C:77AEH         LINE#         737
  C:77B5H         LINE#         738
  C:77C8H         LINE#         739
  C:77C8H         LINE#         740
  C:77C8H         LINE#         743
BL51 BANKED LINKER/LOCATER V6.22.2.0                                                  12/09/2022  13:55:10  PAGE 51


  C:77DAH         LINE#         744
  C:77DAH         LINE#         745
  C:77EFH         LINE#         746
  C:77F7H         LINE#         747
  C:7803H         LINE#         748
  C:7803H         LINE#         750
  C:7817H         LINE#         751
  C:7823H         LINE#         752
  C:7823H         LINE#         753
  C:782DH         LINE#         755
  C:783EH         LINE#         756
  C:7845H         LINE#         757
  C:7859H         LINE#         758
  C:7859H         LINE#         759
  C:7859H         LINE#         761
  -------         ENDPROC       TOUCH_SCAN_4
  -------         PROC          TOUCH_SCAN_5
  -------         DO            
  X:C111H         SYMBOL        i
  -------         ENDDO         
  C:81E5H         LINE#         763
  C:81E5H         LINE#         764
  C:81E5H         LINE#         767
  C:81F7H         LINE#         768
  C:81F7H         LINE#         769
  C:820CH         LINE#         770
  C:8214H         LINE#         771
  C:8220H         LINE#         772
  C:8220H         LINE#         773
  C:8234H         LINE#         774
  C:8240H         LINE#         775
  C:8240H         LINE#         776
  C:8247H         LINE#         777
  C:8257H         LINE#         778
  C:825EH         LINE#         779
  C:8272H         LINE#         780
  C:8272H         LINE#         781
  C:8272H         LINE#         784
  C:8284H         LINE#         785
  C:8284H         LINE#         786
  C:8299H         LINE#         787
  C:82A1H         LINE#         788
  C:82ADH         LINE#         789
  C:82ADH         LINE#         790
  C:82C1H         LINE#         791
  C:82CDH         LINE#         792
  C:82CDH         LINE#         793
  C:82D4H         LINE#         794
  C:82E3H         LINE#         795
  C:82EAH         LINE#         796
  C:82FEH         LINE#         797
  C:82FEH         LINE#         798
  C:82FEH         LINE#         800
  -------         ENDPROC       TOUCH_SCAN_5
  -------         PROC          TOUCH_SCAN_1_2_6
  -------         DO            
  X:C111H         SYMBOL        i
BL51 BANKED LINKER/LOCATER V6.22.2.0                                                  12/09/2022  13:55:10  PAGE 52


  -------         ENDDO         
  C:2031H         LINE#         802
  C:2031H         LINE#         803
  C:2031H         LINE#         806
  C:2038H         LINE#         810
  C:2049H         LINE#         811
  C:2049H         LINE#         812
  C:205EH         LINE#         813
  C:2066H         LINE#         814
  C:2072H         LINE#         815
  C:2072H         LINE#         816
  C:2086H         LINE#         817
  C:2092H         LINE#         818
  C:2092H         LINE#         819
  C:2099H         LINE#         820
  C:20A3H         LINE#         821
  C:20ABH         LINE#         823
  C:20BBH         LINE#         824
  C:20C2H         LINE#         825
  C:20D6H         LINE#         826
  C:20D6H         LINE#         827
  C:20D6H         LINE#         830
  C:20E8H         LINE#         831
  C:20E8H         LINE#         832
  C:20FDH         LINE#         833
  C:2105H         LINE#         834
  C:2111H         LINE#         835
  C:2111H         LINE#         836
  C:2125H         LINE#         837
  C:2131H         LINE#         838
  C:2131H         LINE#         839
  C:2140H         LINE#         840
  C:2147H         LINE#         841
  C:215BH         LINE#         842
  C:215BH         LINE#         843
  C:215BH         LINE#         846
  C:216DH         LINE#         847
  C:216DH         LINE#         848
  C:2182H         LINE#         849
  C:218AH         LINE#         850
  C:2199H         LINE#         851
  C:2199H         LINE#         852
  C:21ADH         LINE#         853
  C:21B9H         LINE#         854
  C:21B9H         LINE#         855
  C:21C7H         LINE#         856
  C:21CEH         LINE#         857
  C:21E2H         LINE#         859
  C:21E8H         LINE#         860
  C:21F7H         LINE#         861
  C:21F7H         LINE#         863
  C:21FFH         LINE#         864
  C:2208H         LINE#         865
  C:220AH         LINE#         867
  C:220AH         LINE#         869
  C:2211H         LINE#         870
  C:2225H         LINE#         871
BL51 BANKED LINKER/LOCATER V6.22.2.0                                                  12/09/2022  13:55:10  PAGE 53


  C:2225H         LINE#         873
  C:2225H         LINE#         874
  C:2225H         LINE#         878
  C:2237H         LINE#         879
  C:2237H         LINE#         880
  C:224CH         LINE#         881
  C:2254H         LINE#         882
  C:2263H         LINE#         883
  C:2263H         LINE#         884
  C:2277H         LINE#         885
  C:2286H         LINE#         886
  C:2286H         LINE#         887
  C:2295H         LINE#         888
  C:229CH         LINE#         889
  C:22B0H         LINE#         890
  C:22B6H         LINE#         892
  C:22BDH         LINE#         893
  C:22D1H         LINE#         895
  C:22D8H         LINE#         896
  C:22ECH         LINE#         897
  C:22F3H         LINE#         898
  C:2307H         LINE#         899
  C:230EH         LINE#         900
  C:2322H         LINE#         902
  C:2329H         LINE#         903
  C:233DH         LINE#         905
  C:2344H         LINE#         910
  C:234BH         LINE#         911
  C:234BH         LINE#         912
  C:234BH         LINE#         915
  C:235DH         LINE#         916
  C:235DH         LINE#         917
  C:2372H         LINE#         918
  C:237AH         LINE#         919
  C:2386H         LINE#         920
  C:2386H         LINE#         921
  C:239AH         LINE#         922
  C:23A6H         LINE#         923
  C:23A6H         LINE#         924
  C:23B5H         LINE#         925
  C:23BCH         LINE#         926
  C:23CBH         LINE#         927
  C:23D2H         LINE#         928
  C:23E6H         LINE#         930
  C:23EFH         LINE#         931
  C:23F5H         LINE#         932
  C:23F5H         LINE#         933
  C:23F5H         LINE#         935
  C:23FDH         LINE#         936
  C:23FDH         LINE#         937
  C:240DH         LINE#         940
  C:240DH         LINE#         943
  C:241FH         LINE#         944
  C:241FH         LINE#         945
  C:2434H         LINE#         946
  C:243CH         LINE#         947
  C:2448H         LINE#         948
BL51 BANKED LINKER/LOCATER V6.22.2.0                                                  12/09/2022  13:55:10  PAGE 54


  C:2448H         LINE#         949
  C:245CH         LINE#         950
  C:2468H         LINE#         951
  C:2468H         LINE#         952
  C:246DH         LINE#         953
  C:247CH         LINE#         954
  C:2483H         LINE#         955
  C:2497H         LINE#         956
  C:2497H         LINE#         957
  C:2497H         LINE#         960
  C:24A9H         LINE#         961
  C:24A9H         LINE#         962
  C:24BEH         LINE#         963
  C:24C6H         LINE#         964
  C:24D2H         LINE#         965
  C:24D2H         LINE#         966
  C:24E6H         LINE#         967
  C:24F2H         LINE#         968
  C:24F2H         LINE#         969
  C:2501H         LINE#         970
  C:2508H         LINE#         971
  C:251CH         LINE#         973
  C:2522H         LINE#         974
  C:2522H         LINE#         975
  C:2522H         LINE#         978
  C:2534H         LINE#         979
  C:2534H         LINE#         980
  C:2549H         LINE#         981
  C:2551H         LINE#         982
  C:255DH         LINE#         983
  C:255DH         LINE#         984
  C:2571H         LINE#         985
  C:257DH         LINE#         986
  C:257DH         LINE#         987
  C:258BH         LINE#         988
  C:2592H         LINE#         989
  C:25A6H         LINE#         990
  C:25A6H         LINE#         991
  C:25A6H         LINE#         994
  C:25B8H         LINE#         995
  C:25B8H         LINE#         996
  C:25CDH         LINE#         997
  C:25D5H         LINE#         998
  C:25E1H         LINE#         999
  C:25E1H         LINE#         1000
  C:25F5H         LINE#         1001
  C:2601H         LINE#         1002
  C:2601H         LINE#         1003
  C:2610H         LINE#         1004
  C:2617H         LINE#         1005
  C:262BH         LINE#         1007
  C:2631H         LINE#         1008
  C:2631H         LINE#         1009
  C:2631H         LINE#         1013
  C:2643H         LINE#         1014
  C:2643H         LINE#         1015
  C:2658H         LINE#         1016
BL51 BANKED LINKER/LOCATER V6.22.2.0                                                  12/09/2022  13:55:10  PAGE 55


  C:2660H         LINE#         1017
  C:266CH         LINE#         1018
  C:266CH         LINE#         1019
  C:2680H         LINE#         1020
  C:268CH         LINE#         1021
  C:268CH         LINE#         1022
  C:269AH         LINE#         1023
  C:26A1H         LINE#         1024
  C:26B5H         LINE#         1025
  C:26B5H         LINE#         1026
  C:26B5H         LINE#         1029
  C:26C7H         LINE#         1030
  C:26C7H         LINE#         1031
  C:26DCH         LINE#         1032
  C:26E4H         LINE#         1033
  C:26F0H         LINE#         1034
  C:26F0H         LINE#         1035
  C:2704H         LINE#         1036
  C:2710H         LINE#         1037
  C:2710H         LINE#         1038
  C:271FH         LINE#         1039
  C:2726H         LINE#         1040
  C:273AH         LINE#         1042
  C:2740H         LINE#         1043
  C:2740H         LINE#         1044
  C:2740H         LINE#         1048
  C:2752H         LINE#         1049
  C:2752H         LINE#         1050
  C:2767H         LINE#         1051
  C:276FH         LINE#         1052
  C:277BH         LINE#         1053
  C:277BH         LINE#         1054
  C:278FH         LINE#         1055
  C:279BH         LINE#         1056
  C:279BH         LINE#         1057
  C:27A9H         LINE#         1058
  C:27B0H         LINE#         1059
  C:27C4H         LINE#         1060
  C:27C4H         LINE#         1061
  C:27C4H         LINE#         1064
  C:27D6H         LINE#         1065
  C:27D6H         LINE#         1066
  C:27EBH         LINE#         1067
  C:27F3H         LINE#         1068
  C:27FFH         LINE#         1069
  C:27FFH         LINE#         1070
  C:2813H         LINE#         1071
  C:281FH         LINE#         1072
  C:281FH         LINE#         1073
  C:282EH         LINE#         1074
  C:2835H         LINE#         1075
  C:2849H         LINE#         1077
  C:284FH         LINE#         1078
  C:284FH         LINE#         1079
  C:284FH         LINE#         1082
  C:2861H         LINE#         1083
  C:2861H         LINE#         1084
BL51 BANKED LINKER/LOCATER V6.22.2.0                                                  12/09/2022  13:55:10  PAGE 56


  C:2876H         LINE#         1085
  C:287EH         LINE#         1086
  C:288AH         LINE#         1087
  C:288AH         LINE#         1088
  C:289EH         LINE#         1089
  C:28AAH         LINE#         1090
  C:28AAH         LINE#         1091
  C:28B8H         LINE#         1092
  C:28BFH         LINE#         1093
  C:28D3H         LINE#         1094
  C:28D3H         LINE#         1095
  C:28D3H         LINE#         1098
  C:28E5H         LINE#         1099
  C:28E5H         LINE#         1100
  C:28FAH         LINE#         1101
  C:2902H         LINE#         1102
  C:290EH         LINE#         1103
  C:290EH         LINE#         1104
  C:2922H         LINE#         1105
  C:292EH         LINE#         1106
  C:292EH         LINE#         1107
  C:293DH         LINE#         1108
  C:2944H         LINE#         1109
  C:2958H         LINE#         1111
  C:295EH         LINE#         1112
  C:295EH         LINE#         1113
  C:295EH         LINE#         1116
  C:2970H         LINE#         1117
  C:2970H         LINE#         1118
  C:2985H         LINE#         1119
  C:298DH         LINE#         1120
  C:2999H         LINE#         1121
  C:2999H         LINE#         1122
  C:29ADH         LINE#         1123
  C:29B9H         LINE#         1124
  C:29B9H         LINE#         1125
  C:29C7H         LINE#         1126
  C:29CEH         LINE#         1127
  C:29E2H         LINE#         1128
  C:29E2H         LINE#         1129
  C:29E2H         LINE#         1132
  C:29F4H         LINE#         1133
  C:29F4H         LINE#         1134
  C:2A09H         LINE#         1135
  C:2A11H         LINE#         1136
  C:2A1DH         LINE#         1137
  C:2A1DH         LINE#         1138
  C:2A31H         LINE#         1139
  C:2A3DH         LINE#         1140
  C:2A3DH         LINE#         1141
  C:2A4CH         LINE#         1142
  C:2A53H         LINE#         1143
  C:2A67H         LINE#         1145
  C:2A6DH         LINE#         1146
  C:2A6DH         LINE#         1147
  C:2A6DH         LINE#         1150
  C:2A7FH         LINE#         1151
BL51 BANKED LINKER/LOCATER V6.22.2.0                                                  12/09/2022  13:55:10  PAGE 57


  C:2A7FH         LINE#         1152
  C:2A94H         LINE#         1153
  C:2A9CH         LINE#         1154
  C:2AA8H         LINE#         1155
  C:2AA8H         LINE#         1157
  C:2ABCH         LINE#         1158
  C:2AC8H         LINE#         1159
  C:2AC8H         LINE#         1160
  C:2AD6H         LINE#         1161
  C:2ADDH         LINE#         1162
  C:2AF1H         LINE#         1164
  C:2AF1H         LINE#         1165
  C:2AF1H         LINE#         1168
  C:2B03H         LINE#         1169
  C:2B03H         LINE#         1170
  C:2B18H         LINE#         1171
  C:2B20H         LINE#         1172
  C:2B2CH         LINE#         1173
  C:2B2CH         LINE#         1174
  C:2B40H         LINE#         1175
  C:2B4CH         LINE#         1176
  C:2B4CH         LINE#         1177
  C:2B5BH         LINE#         1178
  C:2B62H         LINE#         1179
  C:2B76H         LINE#         1181
  C:2B7CH         LINE#         1182
  C:2B7CH         LINE#         1183
  C:2B7CH         LINE#         1186
  C:2B8EH         LINE#         1187
  C:2B8EH         LINE#         1188
  C:2BA3H         LINE#         1189
  C:2BABH         LINE#         1190
  C:2BB7H         LINE#         1191
  C:2BB7H         LINE#         1192
  C:2BCBH         LINE#         1193
  C:2BD7H         LINE#         1194
  C:2BD7H         LINE#         1195
  C:2BE5H         LINE#         1196
  C:2BECH         LINE#         1197
  C:2C00H         LINE#         1198
  C:2C00H         LINE#         1199
  C:2C00H         LINE#         1200
  -------         ENDPROC       TOUCH_SCAN_1_2_6
  -------         PROC          TOUCH_SCAN_10_12
  -------         DO            
  X:C111H         SYMBOL        i
  -------         ENDDO         
  C:6914H         LINE#         1201
  C:6914H         LINE#         1202
  C:6914H         LINE#         1205
  C:6926H         LINE#         1206
  C:6926H         LINE#         1207
  C:693BH         LINE#         1208
  C:6943H         LINE#         1209
  C:695AH         LINE#         1210
  C:695AH         LINE#         1211
  C:696FH         LINE#         1212
BL51 BANKED LINKER/LOCATER V6.22.2.0                                                  12/09/2022  13:55:10  PAGE 58


  C:6989H         LINE#         1213
  C:6989H         LINE#         1215
  C:698FH         LINE#         1216
  C:698FH         LINE#         1217
  C:6997H         LINE#         1218
  C:69B7H         LINE#         1219
  C:69BEH         LINE#         1220
  C:69C9H         LINE#         1222
  C:69CCH         LINE#         1223
  C:69D8H         LINE#         1224
  C:69D8H         LINE#         1225
  C:69E0H         LINE#         1226
  C:6A00H         LINE#         1228
  C:6A07H         LINE#         1229
  C:6A12H         LINE#         1230
  C:6A15H         LINE#         1231
  C:6A21H         LINE#         1232
  C:6A21H         LINE#         1233
  C:6A29H         LINE#         1234
  C:6A49H         LINE#         1236
  C:6A50H         LINE#         1237
  C:6A5BH         LINE#         1238
  C:6A5EH         LINE#         1239
  C:6A6AH         LINE#         1240
  C:6A6AH         LINE#         1241
  C:6A72H         LINE#         1242
  C:6A92H         LINE#         1244
  C:6A99H         LINE#         1245
  C:6AA4H         LINE#         1246
  C:6AA7H         LINE#         1247
  C:6AB3H         LINE#         1248
  C:6AB3H         LINE#         1249
  C:6ABBH         LINE#         1250
  C:6ADBH         LINE#         1252
  C:6AE2H         LINE#         1253
  C:6AEDH         LINE#         1254
  C:6AEFH         LINE#         1255
  C:6AFBH         LINE#         1256
  C:6AFBH         LINE#         1257
  C:6B03H         LINE#         1258
  C:6B23H         LINE#         1260
  C:6B2AH         LINE#         1261
  C:6B3BH         LINE#         1262
  C:6B3BH         LINE#         1264
  C:6B50H         LINE#         1265
  C:6B50H         LINE#         1266
  C:6B50H         LINE#         1267
  -------         ENDPROC       TOUCH_SCAN_10_12
  -------         PROC          TOUCH_SCAN_13
  -------         DO            
  X:C111H         SYMBOL        i
  -------         ENDDO         
  C:7160H         LINE#         1296
  C:7160H         LINE#         1297
  C:7160H         LINE#         1299
  C:716FH         LINE#         1300
  C:716FH         LINE#         1301
BL51 BANKED LINKER/LOCATER V6.22.2.0                                                  12/09/2022  13:55:10  PAGE 59


  C:7180H         LINE#         1302
  C:7180H         LINE#         1303
  C:7195H         LINE#         1304
  C:719DH         LINE#         1305
  C:71A2H         LINE#         1307
  C:71B8H         LINE#         1308
  C:71B8H         LINE#         1309
  C:71BEH         LINE#         1310
  C:71BFH         LINE#         1311
  C:71C1H         LINE#         1312
  C:71DAH         LINE#         1313
  C:71DAH         LINE#         1314
  C:71E1H         LINE#         1315
  C:71E3H         LINE#         1316
  C:71E5H         LINE#         1317
  C:71FEH         LINE#         1318
  C:71FEH         LINE#         1319
  C:7205H         LINE#         1320
  C:721AH         LINE#         1321
  C:721AH         LINE#         1323
  C:7221H         LINE#         1324
  C:7221H         LINE#         1326
  C:7233H         LINE#         1327
  C:7233H         LINE#         1328
  C:7248H         LINE#         1329
  C:7250H         LINE#         1330
  C:725FH         LINE#         1331
  C:725FH         LINE#         1332
  C:7273H         LINE#         1333
  C:7282H         LINE#         1334
  C:7282H         LINE#         1336
  C:7296H         LINE#         1337
  C:72A0H         LINE#         1338
  C:72A0H         LINE#         1339
  C:72A0H         LINE#         1340
  C:72A2H         LINE#         1341
  C:72AEH         LINE#         1342
  C:72AEH         LINE#         1343
  C:72C2H         LINE#         1344
  C:72C2H         LINE#         1346
  C:72D7H         LINE#         1347
  C:72E3H         LINE#         1348
  C:72E3H         LINE#         1349
  C:72E5H         LINE#         1350
  C:72E5H         LINE#         1352
  C:72E7H         LINE#         1353
  C:72F3H         LINE#         1354
  C:72F3H         LINE#         1355
  C:72F5H         LINE#         1356
  C:72F5H         LINE#         1358
  C:72F7H         LINE#         1359
  C:7303H         LINE#         1360
  C:7303H         LINE#         1361
  C:730BH         LINE#         1362
  C:7320H         LINE#         1364
  C:7320H         LINE#         1366
  C:7327H         LINE#         1367
BL51 BANKED LINKER/LOCATER V6.22.2.0                                                  12/09/2022  13:55:10  PAGE 60


  C:733BH         LINE#         1368
  C:733BH         LINE#         1369
  C:733BH         LINE#         1371
  -------         ENDPROC       TOUCH_SCAN_13
  -------         PROC          TOUCH_SCAN_14
  -------         DO            
  X:C111H         SYMBOL        i
  -------         ENDDO         
  C:984AH         LINE#         1373
  C:984AH         LINE#         1374
  C:984AH         LINE#         1377
  C:985CH         LINE#         1378
  C:985CH         LINE#         1379
  C:9871H         LINE#         1380
  C:9879H         LINE#         1381
  C:9885H         LINE#         1382
  C:9885H         LINE#         1383
  C:9899H         LINE#         1384
  C:98A5H         LINE#         1385
  C:98A5H         LINE#         1386
  C:98A8H         LINE#         1387
  C:98AFH         LINE#         1388
  C:98B6H         LINE#         1389
  C:98CAH         LINE#         1390
  C:98CAH         LINE#         1391
  C:98CAH         LINE#         1392
  -------         ENDPROC       TOUCH_SCAN_14
  -------         PROC          TOUCH_SCAN_16
  -------         DO            
  X:C111H         SYMBOL        i
  -------         ENDDO         
  C:870CH         LINE#         1395
  C:870CH         LINE#         1396
  C:870CH         LINE#         1399
  C:871EH         LINE#         1400
  C:871EH         LINE#         1401
  C:8733H         LINE#         1402
  C:873BH         LINE#         1403
  C:874AH         LINE#         1404
  C:874AH         LINE#         1405
  C:875EH         LINE#         1406
  C:876DH         LINE#         1407
  C:876DH         LINE#         1408
  C:8781H         LINE#         1409
  C:8796H         LINE#         1410
  C:87ABH         LINE#         1411
  C:87C0H         LINE#         1413
  C:87F0H         LINE#         1414
  C:87F0H         LINE#         1415
  C:87F6H         LINE#         1416
  C:87F6H         LINE#         1417
  C:87F6H         LINE#         1418
  C:87F6H         LINE#         1419
  -------         ENDPROC       TOUCH_SCAN_16
  -------         PROC          COORDINATE_CONTROL
  C:59D7H         LINE#         1448
  C:59D7H         LINE#         1449
BL51 BANKED LINKER/LOCATER V6.22.2.0                                                  12/09/2022  13:55:10  PAGE 61


  C:59D7H         LINE#         1450
  C:59EDH         LINE#         1451
  C:5A08H         LINE#         1452
  C:5A0EH         LINE#         1453
  C:5A0EH         LINE#         1454
  C:5A19H         LINE#         1455
  C:5A19H         LINE#         1456
  C:5A2CH         LINE#         1457
  C:5A3FH         LINE#         1460
  C:5A5EH         LINE#         1461
  C:5A5EH         LINE#         1463
  C:5A80H         LINE#         1464
  C:5A80H         LINE#         1465
  C:5A80H         LINE#         1466
  C:5A80H         LINE#         1468
  C:5A80H         LINE#         1469
  C:5A80H         LINE#         1471
  C:5A83H         LINE#         1473
  C:5AA8H         LINE#         1474
  C:5AA8H         LINE#         1475
  C:5AA8H         LINE#         1476
  C:5AA8H         LINE#         1478
  C:5AA8H         LINE#         1479
  C:5AA8H         LINE#         1480
  C:5AABH         LINE#         1481
  C:5AD0H         LINE#         1482
  C:5AD0H         LINE#         1483
  C:5AD0H         LINE#         1484
  C:5AD0H         LINE#         1486
  C:5AD0H         LINE#         1487
  C:5AD0H         LINE#         1488
  C:5AD3H         LINE#         1489
  C:5AF8H         LINE#         1490
  C:5AF8H         LINE#         1491
  C:5AF8H         LINE#         1492
  C:5AF8H         LINE#         1494
  C:5AF8H         LINE#         1495
  C:5AF8H         LINE#         1496
  C:5AFAH         LINE#         1497
  C:5B1FH         LINE#         1498
  C:5B1FH         LINE#         1499
  C:5B1FH         LINE#         1500
  C:5B1FH         LINE#         1502
  C:5B1FH         LINE#         1503
  C:5B1FH         LINE#         1504
  C:5B21H         LINE#         1505
  C:5B46H         LINE#         1506
  C:5B46H         LINE#         1507
  C:5B46H         LINE#         1508
  C:5B46H         LINE#         1510
  C:5B46H         LINE#         1511
  C:5B46H         LINE#         1512
  C:5B48H         LINE#         1513
  C:5B76H         LINE#         1514
  C:5B76H         LINE#         1515
  C:5B80H         LINE#         1516
  C:5BA0H         LINE#         1518
BL51 BANKED LINKER/LOCATER V6.22.2.0                                                  12/09/2022  13:55:10  PAGE 62


  C:5BA7H         LINE#         1519
  C:5BAEH         LINE#         1520
  C:5BAEH         LINE#         1522
  C:5BB1H         LINE#         1523
  C:5BCFH         LINE#         1524
  C:5BCFH         LINE#         1526
  C:5BF1H         LINE#         1527
  C:5BF1H         LINE#         1528
  C:5BF1H         LINE#         1529
  C:5BF1H         LINE#         1530
  C:5BF1H         LINE#         1531
  C:5BF1H         LINE#         1532
  C:5BF4H         LINE#         1534
  C:5C19H         LINE#         1535
  C:5C19H         LINE#         1536
  C:5C21H         LINE#         1537
  C:5C40H         LINE#         1539
  C:5C42H         LINE#         1540
  C:5C42H         LINE#         1541
  C:5C45H         LINE#         1542
  C:5C6AH         LINE#         1543
  C:5C6AH         LINE#         1544
  C:5C72H         LINE#         1545
  C:5C91H         LINE#         1546
  C:5C93H         LINE#         1547
  C:5C93H         LINE#         1548
  C:5C96H         LINE#         1549
  C:5CBBH         LINE#         1550
  C:5CBBH         LINE#         1551
  C:5CC3H         LINE#         1552
  C:5CE2H         LINE#         1553
  C:5CE4H         LINE#         1554
  C:5CE4H         LINE#         1555
  C:5CE7H         LINE#         1556
  C:5D0CH         LINE#         1557
  C:5D0CH         LINE#         1558
  C:5D14H         LINE#         1559
  C:5D33H         LINE#         1560
  C:5D35H         LINE#         1561
  C:5D35H         LINE#         1562
  C:5D38H         LINE#         1563
  C:5D5DH         LINE#         1564
  C:5D5DH         LINE#         1565
  C:5D65H         LINE#         1566
  C:5D84H         LINE#         1567
  C:5D86H         LINE#         1568
  C:5D86H         LINE#         1569
  C:5D88H         LINE#         1570
  C:5DADH         LINE#         1571
  C:5DADH         LINE#         1572
  C:5DB5H         LINE#         1573
  C:5DD4H         LINE#         1574
  C:5DD9H         LINE#         1575
  C:5DE0H         LINE#         1576
  C:5DE0H         LINE#         1577
  C:5DE0H         LINE#         1586
  C:5DE0H         LINE#         1587
BL51 BANKED LINKER/LOCATER V6.22.2.0                                                  12/09/2022  13:55:10  PAGE 63


  C:5DF3H         LINE#         1588
  C:5DF3H         LINE#         1590
  C:5DF3H         LINE#         1592
  C:5DF3H         LINE#         1595
  -------         ENDPROC       COORDINATE_CONTROL
  -------         PROC          FILE_CONTROL
  -------         DO            
  X:C111H         SYMBOL        i
  -------         ENDDO         
  C:2C01H         LINE#         1598
  C:2C01H         LINE#         1599
  C:2C01H         LINE#         1603
  C:2C10H         LINE#         1604
  C:2C10H         LINE#         1606
  C:2C38H         LINE#         1607
  C:2C38H         LINE#         1613
  C:2C42H         LINE#         1614
  C:2C42H         LINE#         1616
  C:2C4CH         LINE#         1617
  C:2C5DH         LINE#         1618
  C:2C5DH         LINE#         1620
  C:2C6FH         LINE#         1621
  C:2C6FH         LINE#         1622
  C:2C93H         LINE#         1623
  C:2C93H         LINE#         1624
  C:2CCFH         LINE#         1625
  C:2CCFH         LINE#         1626
  C:2CCFH         LINE#         1627
  C:2CCFH         LINE#         1629
  C:2CDDH         LINE#         1630
  C:2CE7H         LINE#         1631
  C:2D0BH         LINE#         1632
  C:2D19H         LINE#         1633
  C:2D2BH         LINE#         1634
  C:2D2BH         LINE#         1635
  C:2D2BH         LINE#         1636
  C:2D2BH         LINE#         1637
  C:2D2BH         LINE#         1638
  C:2D2BH         LINE#         1639
  C:2D2EH         LINE#         1640
  C:2D2EH         LINE#         1641
  C:2D2EH         LINE#         1643
  C:2D3CH         LINE#         1644
  C:2D45H         LINE#         1645
  C:2D69H         LINE#         1646
  C:2D77H         LINE#         1647
  C:2D89H         LINE#         1648
  C:2D89H         LINE#         1649
  C:2D89H         LINE#         1650
  C:2D89H         LINE#         1651
  C:2D89H         LINE#         1652
  C:2D89H         LINE#         1653
  C:2D8CH         LINE#         1655
  C:2D8CH         LINE#         1656
  C:2D8CH         LINE#         1658
  C:2D9AH         LINE#         1659
  C:2DA4H         LINE#         1660
BL51 BANKED LINKER/LOCATER V6.22.2.0                                                  12/09/2022  13:55:10  PAGE 64


  C:2DC8H         LINE#         1661
  C:2DD6H         LINE#         1662
  C:2DE8H         LINE#         1663
  C:2DE8H         LINE#         1664
  C:2DE8H         LINE#         1665
  C:2DE8H         LINE#         1666
  C:2DE8H         LINE#         1667
  C:2DE8H         LINE#         1668
  C:2DEBH         LINE#         1669
  C:2DEBH         LINE#         1670
  C:2DEBH         LINE#         1672
  C:2DF9H         LINE#         1673
  C:2E03H         LINE#         1674
  C:2E27H         LINE#         1675
  C:2E35H         LINE#         1676
  C:2E47H         LINE#         1677
  C:2E47H         LINE#         1678
  C:2E47H         LINE#         1679
  C:2E47H         LINE#         1680
  C:2E47H         LINE#         1681
  C:2E47H         LINE#         1682
  C:2E4AH         LINE#         1683
  C:2E4AH         LINE#         1684
  C:2E4AH         LINE#         1686
  C:2E58H         LINE#         1687
  C:2E62H         LINE#         1688
  C:2E86H         LINE#         1689
  C:2E94H         LINE#         1690
  C:2EA6H         LINE#         1691
  C:2EA6H         LINE#         1692
  C:2EA6H         LINE#         1693
  C:2EA6H         LINE#         1694
  C:2EA6H         LINE#         1695
  C:2EA6H         LINE#         1696
  C:2EA9H         LINE#         1697
  C:2EA9H         LINE#         1698
  C:2EA9H         LINE#         1700
  C:2EB7H         LINE#         1701
  C:2EC1H         LINE#         1702
  C:2EE5H         LINE#         1703
  C:2EF3H         LINE#         1704
  C:2F05H         LINE#         1705
  C:2F05H         LINE#         1706
  C:2F05H         LINE#         1707
  C:2F05H         LINE#         1708
  C:2F05H         LINE#         1709
  C:2F05H         LINE#         1710
  C:2F08H         LINE#         1711
  C:2F08H         LINE#         1712
  C:2F08H         LINE#         1714
  C:2F16H         LINE#         1715
  C:2F20H         LINE#         1716
  C:2F44H         LINE#         1717
  C:2F52H         LINE#         1718
  C:2F64H         LINE#         1719
  C:2F64H         LINE#         1720
  C:2F64H         LINE#         1721
BL51 BANKED LINKER/LOCATER V6.22.2.0                                                  12/09/2022  13:55:10  PAGE 65


  C:2F64H         LINE#         1722
  C:2F64H         LINE#         1723
  C:2F64H         LINE#         1724
  C:2F67H         LINE#         1725
  C:2F67H         LINE#         1726
  C:2F67H         LINE#         1727
  C:2F74H         LINE#         1729
  C:2F82H         LINE#         1730
  C:2F91H         LINE#         1731
  C:2F91H         LINE#         1732
  C:2F97H         LINE#         1734
  C:2F97H         LINE#         1736
  C:2F9EH         LINE#         1737
  C:2FA2H         LINE#         1739
  C:2FA8H         LINE#         1740
  C:2FA8H         LINE#         1741
  C:2FABH         LINE#         1742
  C:2FABH         LINE#         1743
  C:2FABH         LINE#         1744
  C:2FDBH         LINE#         1745
  C:2FDBH         LINE#         1746
  C:2FF0H         LINE#         1747
  C:2FF0H         LINE#         1748
  C:2FFDH         LINE#         1750
  C:300BH         LINE#         1751
  C:301AH         LINE#         1752
  C:301AH         LINE#         1753
  C:3020H         LINE#         1755
  C:3020H         LINE#         1757
  C:3027H         LINE#         1758
  C:302BH         LINE#         1761
  C:3031H         LINE#         1762
  C:3031H         LINE#         1764
  C:306CH         LINE#         1765
  C:306CH         LINE#         1766
  C:306CH         LINE#         1767
  C:306CH         LINE#         1769
  C:307AH         LINE#         1770
  C:3084H         LINE#         1771
  C:30A8H         LINE#         1772
  C:30B6H         LINE#         1773
  C:30C8H         LINE#         1774
  C:30C8H         LINE#         1775
  C:30CCH         LINE#         1776
  C:30D4H         LINE#         1777
  C:30D4H         LINE#         1778
  C:30D4H         LINE#         1779
  C:30D7H         LINE#         1780
  C:30D7H         LINE#         1781
  C:30D7H         LINE#         1783
  C:30E5H         LINE#         1784
  C:30EEH         LINE#         1785
  C:3112H         LINE#         1786
  C:3120H         LINE#         1787
  C:3132H         LINE#         1788
  C:3132H         LINE#         1789
  C:3136H         LINE#         1790
BL51 BANKED LINKER/LOCATER V6.22.2.0                                                  12/09/2022  13:55:10  PAGE 66


  C:313EH         LINE#         1791
  C:313EH         LINE#         1792
  C:313EH         LINE#         1793
  C:3141H         LINE#         1794
  C:3141H         LINE#         1795
  C:3141H         LINE#         1797
  C:314FH         LINE#         1798
  C:3159H         LINE#         1799
  C:317DH         LINE#         1800
  C:318BH         LINE#         1801
  C:319DH         LINE#         1802
  C:319DH         LINE#         1803
  C:31A1H         LINE#         1804
  C:31A9H         LINE#         1805
  C:31A9H         LINE#         1806
  C:31A9H         LINE#         1807
  C:31ACH         LINE#         1808
  C:31ACH         LINE#         1809
  C:31ACH         LINE#         1811
  C:31BAH         LINE#         1812
  C:31C4H         LINE#         1813
  C:31E8H         LINE#         1814
  C:31F6H         LINE#         1815
  C:3208H         LINE#         1816
  C:3208H         LINE#         1817
  C:320CH         LINE#         1818
  C:3214H         LINE#         1819
  C:3214H         LINE#         1820
  C:3214H         LINE#         1821
  C:3217H         LINE#         1822
  C:3217H         LINE#         1823
  C:3217H         LINE#         1825
  C:3225H         LINE#         1826
  C:322FH         LINE#         1827
  C:3253H         LINE#         1828
  C:3261H         LINE#         1829
  C:3273H         LINE#         1830
  C:3273H         LINE#         1831
  C:3277H         LINE#         1832
  C:327FH         LINE#         1833
  C:327FH         LINE#         1834
  C:327FH         LINE#         1835
  C:3282H         LINE#         1836
  C:3282H         LINE#         1837
  C:3282H         LINE#         1839
  C:3290H         LINE#         1840
  C:329AH         LINE#         1841
  C:32BEH         LINE#         1842
  C:32CCH         LINE#         1843
  C:32DBH         LINE#         1844
  C:32DBH         LINE#         1845
  C:32DFH         LINE#         1846
  C:32E7H         LINE#         1847
  C:32E7H         LINE#         1848
  C:32E7H         LINE#         1849
  C:32E9H         LINE#         1850
  C:32E9H         LINE#         1851
BL51 BANKED LINKER/LOCATER V6.22.2.0                                                  12/09/2022  13:55:10  PAGE 67


  C:32E9H         LINE#         1853
  C:32F7H         LINE#         1854
  C:3301H         LINE#         1855
  C:3325H         LINE#         1856
  C:3333H         LINE#         1857
  C:3342H         LINE#         1858
  C:3342H         LINE#         1859
  C:3346H         LINE#         1860
  C:334EH         LINE#         1861
  C:334EH         LINE#         1862
  C:334EH         LINE#         1863
  C:334EH         LINE#         1864
  C:334EH         LINE#         1865
  C:334EH         LINE#         1867
  C:335BH         LINE#         1868
  C:335BH         LINE#         1869
  C:3370H         LINE#         1870
  C:3370H         LINE#         1871
  C:3389H         LINE#         1872
  C:3389H         LINE#         1873
  C:3390H         LINE#         1874
  C:33A9H         LINE#         1876
  C:33C5H         LINE#         1877
  C:33CDH         LINE#         1878
  C:33E7H         LINE#         1879
  C:33E7H         LINE#         1880
  C:33EFH         LINE#         1881
  C:3408H         LINE#         1882
  C:3410H         LINE#         1883
  C:341DH         LINE#         1884
  C:341DH         LINE#         1885
  C:341DH         LINE#         1886
  C:341EH         LINE#         1888
  C:341EH         LINE#         1889
  C:342AH         LINE#         1890
  C:342AH         LINE#         1892
  C:343CH         LINE#         1893
  C:343CH         LINE#         1894
  C:3444H         LINE#         1895
  C:345DH         LINE#         1897
  C:3479H         LINE#         1898
  C:3481H         LINE#         1900
  C:3488H         LINE#         1901
  C:3488H         LINE#         1902
  C:3488H         LINE#         1906
  C:3488H         LINE#         1907
  C:3488H         LINE#         1908
  -------         ENDPROC       FILE_CONTROL
  -------         ENDMOD        UI

  -------         MODULE        DWIN8283
  C:0000H         SYMBOL        _ICE_DUMMY_
  C:7E5AH         PUBLIC        Pro8283Deal
  X:BC2DH         PUBLIC        DwinFrame
  C:95BBH         PUBLIC        AutoUploadValue
  B:00A8H.7       PUBLIC        EA
  X:BC43H         PUBLIC        DataBuf
BL51 BANKED LINKER/LOCATER V6.22.2.0                                                  12/09/2022  13:55:10  PAGE 68


  C:8DF1H         PUBLIC        Pro8283Init
  X:BD47H         PUBLIC        SendTmp
  C:A568H         SYMBOL        _?ix1000
  C:549BH         PUBLIC        _Pro8283RxTreat
  -------         PROC          PRO8283INIT
  -------         DO            
  X:C10FH         SYMBOL        buf
  X:C111H         SYMBOL        baud
  X:C115H         SYMBOL        CanReg
  -------         ENDDO         
  C:8DF1H         LINE#         20
  C:8DF1H         LINE#         21
  C:8DF1H         LINE#         24
  C:8E04H         LINE#         26
  C:8E1AH         LINE#         27
  C:8E3DH         LINE#         30
  C:8E56H         LINE#         31
  C:8E5FH         LINE#         33
  C:8E6DH         LINE#         34
  C:8E79H         LINE#         35
  C:8E85H         LINE#         36
  C:8E8CH         LINE#         38
  C:8E99H         LINE#         39
  C:8EA4H         LINE#         40
  C:8EAFH         LINE#         41
  C:8EB6H         LINE#         42
  -------         ENDPROC       PRO8283INIT
  -------         PROC          AUTOUPLOADVALUE
  -------         DO            
  D:0002H         SYMBOL        address
  D:0005H         SYMBOL        len
  -------         ENDDO         
  C:95BBH         LINE#         76
  C:95BBH         LINE#         77
  C:95BBH         LINE#         82
  C:95D1H         LINE#         83
  C:95D9H         LINE#         84
  C:95D9H         LINE#         85
  C:95DAH         LINE#         86
  C:95EFH         LINE#         87
  C:95F4H         LINE#         88
  C:95FDH         LINE#         89
  C:95FFH         LINE#         90
  C:9609H         LINE#         91
  C:960FH         LINE#         92
  C:9613H         LINE#         93
  C:961AH         LINE#         94
  C:961EH         LINE#         95
  C:9621H         LINE#         96
  C:9624H         LINE#         97
  C:9627H         LINE#         98
  C:963CH         LINE#         104
  C:963FH         LINE#         105
  C:963FH         LINE#         106
  C:9641H         LINE#         107
  -------         ENDPROC       AUTOUPLOADVALUE
  -------         PROC          _PRO8283RXTREAT
BL51 BANKED LINKER/LOCATER V6.22.2.0                                                  12/09/2022  13:55:10  PAGE 69


  X:C10FH         SYMBOL        pBuf
  -------         DO            
  X:C112H         SYMBOL        len
  X:C114H         SYMBOL        len1
  X:C116H         SYMBOL        i
  X:C118H         SYMBOL        tmp16
  X:C11AH         SYMBOL        headtmp
  X:C11CH         SYMBOL        tailtmp
  -------         ENDDO         
  C:549BH         LINE#         110
  C:54A6H         LINE#         111
  C:54A6H         LINE#         116
  C:54A8H         LINE#         117
  C:54BCH         LINE#         118
  C:54BEH         LINE#         119
  C:54DFH         LINE#         120
  C:54DFH         LINE#         121
  C:54F7H         LINE#         122
  C:54F7H         LINE#         123
  C:5516H         LINE#         124
  C:5518H         LINE#         126
  C:5518H         LINE#         127
  C:5536H         LINE#         128
  C:5536H         LINE#         129
  C:5545H         LINE#         130
  C:5548H         LINE#         131
  C:557DH         LINE#         132
  C:5586H         LINE#         133
  C:5594H         LINE#         134
  C:55AEH         LINE#         135
  C:55AEH         LINE#         136
  C:55B5H         LINE#         137
  C:55B5H         LINE#         138
  C:55D9H         LINE#         139
  C:55E5H         LINE#         140
  C:55E5H         LINE#         141
  C:5607H         LINE#         142
  C:5621H         LINE#         143
  C:5621H         LINE#         144
  C:5628H         LINE#         145
  C:5628H         LINE#         146
  C:5640H         LINE#         147
  C:5640H         LINE#         148
  C:5662H         LINE#         149
  C:567CH         LINE#         150
  C:567CH         LINE#         151
  C:5683H         LINE#         152
  C:5683H         LINE#         153
  C:56ACH         LINE#         154
  C:56BCH         LINE#         155
  C:56BCH         LINE#         156
  C:56DAH         LINE#         157
  C:56DAH         LINE#         158
  C:5713H         LINE#         159
  C:572BH         LINE#         160
  C:575CH         LINE#         161
  C:575CH         LINE#         162
BL51 BANKED LINKER/LOCATER V6.22.2.0                                                  12/09/2022  13:55:10  PAGE 70


  C:5768H         LINE#         163
  C:5768H         LINE#         164
  C:5779H         LINE#         170
  C:579BH         LINE#         171
  C:57A1H         LINE#         172
  C:57AAH         LINE#         178
  C:57ADH         LINE#         182
  C:57ADH         LINE#         183
  C:57ADH         LINE#         184
  C:57D0H         LINE#         185
  C:57D0H         LINE#         186
  C:57F2H         LINE#         187
  C:580CH         LINE#         188
  C:580CH         LINE#         189
  C:5813H         LINE#         190
  C:5813H         LINE#         191
  C:583CH         LINE#         192
  C:584CH         LINE#         193
  C:584CH         LINE#         194
  C:586AH         LINE#         195
  C:586AH         LINE#         196
  C:58A3H         LINE#         197
  C:58BBH         LINE#         198
  C:58ECH         LINE#         199
  C:58ECH         LINE#         200
  C:58F8H         LINE#         201
  C:58F8H         LINE#         202
  C:5909H         LINE#         207
  C:5925H         LINE#         208
  C:5931H         LINE#         214
  C:5934H         LINE#         218
  C:5934H         LINE#         219
  C:5934H         LINE#         221
  C:5934H         LINE#         222
  C:594CH         LINE#         223
  C:597DH         LINE#         224
  C:597DH         LINE#         225
  C:597DH         LINE#         226
  C:597DH         LINE#         227
  C:597DH         LINE#         228
  C:597FH         LINE#         230
  C:597FH         LINE#         231
  C:5997H         LINE#         232
  C:59C8H         LINE#         233
  C:59C8H         LINE#         234
  C:59D4H         LINE#         235
  C:59D4H         LINE#         236
  C:59D4H         LINE#         237
  C:59D4H         LINE#         238
  C:59D6H         LINE#         239
  -------         ENDPROC       _PRO8283RXTREAT
  -------         PROC          PRO8283DEAL
  -------         DO            
  D:0006H         SYMBOL        i
  D:0007H         SYMBOL        len
  -------         ENDDO         
  C:7E5AH         LINE#         243
BL51 BANKED LINKER/LOCATER V6.22.2.0                                                  12/09/2022  13:55:10  PAGE 71


  C:7E5AH         LINE#         244
  C:7E5AH         LINE#         248
  C:7E69H         LINE#         249
  C:7E69H         LINE#         250
  C:7E8FH         LINE#         251
  C:7E8FH         LINE#         252
  C:7EA5H         LINE#         253
  C:7EACH         LINE#         254
  C:7EACH         LINE#         255
  C:7EDCH         LINE#         256
  C:7EEAH         LINE#         257
  C:7EEDH         LINE#         258
  C:7EEDH         LINE#         259
  C:7EF3H         LINE#         260
  C:7EF3H         LINE#         262
  C:7EFBH         LINE#         263
  C:7EFBH         LINE#         264
  C:7F10H         LINE#         265
  C:7F3CH         LINE#         266
  C:7F3CH         LINE#         268
  C:7F4AH         LINE#         269
  C:7F4AH         LINE#         270
  C:7F5FH         LINE#         271
  C:7F5FH         LINE#         272
  C:7F6DH         LINE#         273
  C:7F6DH         LINE#         274
  C:7F98H         LINE#         275
  C:7F98H         LINE#         276
  -------         ENDPROC       PRO8283DEAL
  -------         ENDMOD        DWIN8283

  -------         MODULE        SSD2828
  C:0000H         SYMBOL        _ICE_DUMMY_
  C:7ADFH         PUBLIC        pa_tab120
  C:7ACBH         PUBLIC        pa_tab111
  C:7AB9H         PUBLIC        pa_tab102
  C:7AF5H         PUBLIC        pa_tab130
  C:7AE1H         PUBLIC        pa_tab121
  C:7ACDH         PUBLIC        pa_tab112
  C:7ABBH         PUBLIC        pa_tab103
  C:7B0BH         PUBLIC        pa_tab140
  C:7AF7H         PUBLIC        pa_tab131
  C:7AE3H         PUBLIC        pa_tab122
  C:7ACFH         PUBLIC        pa_tab113
  C:7ABDH         PUBLIC        pa_tab104
  D:0090H         PUBLIC        P1
  C:91AAH         PUBLIC        _ssd2828_writepackage
  C:7B57H         PUBLIC        pa_tab150
  C:7B0DH         PUBLIC        pa_tab141
  C:7AF9H         PUBLIC        pa_tab132
  C:7AE5H         PUBLIC        pa_tab123
  C:7AD1H         PUBLIC        pa_tab114
  C:7ABFH         PUBLIC        pa_tab105
  C:7B6FH         PUBLIC        pa_tab160
  C:7B59H         PUBLIC        pa_tab151
  C:7B0FH         PUBLIC        pa_tab142
  C:7AFBH         PUBLIC        pa_tab133
BL51 BANKED LINKER/LOCATER V6.22.2.0                                                  12/09/2022  13:55:10  PAGE 72


  C:7AE7H         PUBLIC        pa_tab124
  C:7AD3H         PUBLIC        pa_tab115
  C:7AC1H         PUBLIC        pa_tab106
  C:7B71H         PUBLIC        pa_tab161
  C:7B5BH         PUBLIC        pa_tab152
  C:7B11H         PUBLIC        pa_tab143
  C:7AFDH         PUBLIC        pa_tab134
  C:7AE9H         PUBLIC        pa_tab125
  C:7AD5H         PUBLIC        pa_tab116
  C:7AC3H         PUBLIC        pa_tab107
  C:7B5DH         PUBLIC        pa_tab153
  C:7B15H         PUBLIC        pa_tab144
  C:7AFFH         PUBLIC        pa_tab135
  C:7AEBH         PUBLIC        pa_tab126
  C:7AD7H         PUBLIC        pa_tab117
  C:7AC5H         PUBLIC        pa_tab108
  C:7B5FH         PUBLIC        pa_tab154
  C:7B31H         PUBLIC        pa_tab145
  C:7B01H         PUBLIC        pa_tab136
  C:7AEDH         PUBLIC        pa_tab127
  C:7ADBH         PUBLIC        pa_tab118
  C:7AC7H         PUBLIC        pa_tab109
  C:7B63H         PUBLIC        pa_tab155
  C:7B4DH         PUBLIC        pa_tab146
  C:7B03H         PUBLIC        pa_tab137
  C:7AEFH         PUBLIC        pa_tab128
  C:7ADDH         PUBLIC        pa_tab119
  C:7B65H         PUBLIC        pa_tab156
  C:7B51H         PUBLIC        pa_tab147
  C:7B05H         PUBLIC        pa_tab138
  C:7AF3H         PUBLIC        pa_tab129
  C:7B67H         PUBLIC        pa_tab157
  C:7B53H         PUBLIC        pa_tab148
  C:7B07H         PUBLIC        pa_tab139
  C:7B69H         PUBLIC        pa_tab158
  C:7B55H         PUBLIC        pa_tab149
  C:7B6DH         PUBLIC        pa_tab159
  C:9BF2H         PUBLIC        lcd_pa_set
  C:9037H         PUBLIC        _W_COM
  C:48FAH         PUBLIC        C055_code_download
  C:79EDH         PUBLIC        pa_tab1
  C:79F1H         PUBLIC        pa_tab2
  C:79F3H         PUBLIC        pa_tab3
  C:79F5H         PUBLIC        pa_tab4
  C:79F7H         PUBLIC        pa_tab5
  C:79F9H         PUBLIC        pa_tab6
  C:79FBH         PUBLIC        pa_tab7
  C:79FDH         PUBLIC        pa_tab8
  C:79FFH         PUBLIC        pa_tab9
  C:8F78H         PUBLIC        ssd2828_readID
  C:98CBH         PUBLIC        _ssd2828_read_mipi
  C:8411H         PUBLIC        ssd2828_init
  B:0090H.4       PUBLIC        sdc
  C:87FBH         PUBLIC        _ssd2828_regconfig
  C:8EB7H         PUBLIC        _ssd2828_readReg
  B:0090H.2       PUBLIC        sdi
  B:0090H.3       PUBLIC        sck
BL51 BANKED LINKER/LOCATER V6.22.2.0                                                  12/09/2022  13:55:10  PAGE 73


  B:0090H.1       PUBLIC        sdo
  C:7A01H         PUBLIC        pa_tab10
  C:7A15H         PUBLIC        pa_tab20
  C:7A03H         PUBLIC        pa_tab11
  C:7A29H         PUBLIC        pa_tab30
  C:7A17H         PUBLIC        pa_tab21
  C:7A05H         PUBLIC        pa_tab12
  C:7A3DH         PUBLIC        pa_tab40
  C:7A2BH         PUBLIC        pa_tab31
  C:7A19H         PUBLIC        pa_tab22
  C:7A07H         PUBLIC        pa_tab13
  B:0090H.0       PUBLIC        csx
  C:7A51H         PUBLIC        pa_tab50
  C:7A3FH         PUBLIC        pa_tab41
  C:7A2DH         PUBLIC        pa_tab32
  C:7A1BH         PUBLIC        pa_tab23
  C:7A09H         PUBLIC        pa_tab14
  C:7A65H         PUBLIC        pa_tab60
  C:7A53H         PUBLIC        pa_tab51
  C:7A41H         PUBLIC        pa_tab42
  C:7A2FH         PUBLIC        pa_tab33
  C:7A1DH         PUBLIC        pa_tab24
  C:7A0BH         PUBLIC        pa_tab15
  C:7A79H         PUBLIC        pa_tab70
  C:7A67H         PUBLIC        pa_tab61
  C:7A55H         PUBLIC        pa_tab52
  C:7A43H         PUBLIC        pa_tab43
  C:7A31H         PUBLIC        pa_tab34
  C:7A1FH         PUBLIC        pa_tab25
  C:7A0DH         PUBLIC        pa_tab16
  C:7A8DH         PUBLIC        pa_tab80
  C:7A7BH         PUBLIC        pa_tab71
  C:7A69H         PUBLIC        pa_tab62
  C:7A57H         PUBLIC        pa_tab53
  C:7A45H         PUBLIC        pa_tab44
  C:7A33H         PUBLIC        pa_tab35
  C:7A21H         PUBLIC        pa_tab26
  C:7A0FH         PUBLIC        pa_tab17
  C:7AA1H         PUBLIC        pa_tab90
  C:7A8FH         PUBLIC        pa_tab81
  C:7A7DH         PUBLIC        pa_tab72
  C:7A6BH         PUBLIC        pa_tab63
  C:7A59H         PUBLIC        pa_tab54
  C:7A47H         PUBLIC        pa_tab45
  C:7A35H         PUBLIC        pa_tab36
  C:7A23H         PUBLIC        pa_tab27
  C:7A11H         PUBLIC        pa_tab18
  C:7AA3H         PUBLIC        pa_tab91
  C:7A91H         PUBLIC        pa_tab82
  C:7A7FH         PUBLIC        pa_tab73
  C:7A6DH         PUBLIC        pa_tab64
  C:7A5BH         PUBLIC        pa_tab55
  C:7A49H         PUBLIC        pa_tab46
  C:7A37H         PUBLIC        pa_tab37
  C:7A25H         PUBLIC        pa_tab28
  C:7A13H         PUBLIC        pa_tab19
  C:7AA5H         PUBLIC        pa_tab92
BL51 BANKED LINKER/LOCATER V6.22.2.0                                                  12/09/2022  13:55:10  PAGE 74


  C:7A93H         PUBLIC        pa_tab83
  C:7A81H         PUBLIC        pa_tab74
  C:7A6FH         PUBLIC        pa_tab65
  C:7A5DH         PUBLIC        pa_tab56
  C:7A4BH         PUBLIC        pa_tab47
  C:7A39H         PUBLIC        pa_tab38
  C:7A27H         PUBLIC        pa_tab29
  C:7AA7H         PUBLIC        pa_tab93
  C:7A95H         PUBLIC        pa_tab84
  C:7A83H         PUBLIC        pa_tab75
  C:7A71H         PUBLIC        pa_tab66
  C:7A5FH         PUBLIC        pa_tab57
  C:7A4DH         PUBLIC        pa_tab48
  C:7A3BH         PUBLIC        pa_tab39
  C:7AA9H         PUBLIC        pa_tab94
  C:7A97H         PUBLIC        pa_tab85
  C:7A85H         PUBLIC        pa_tab76
  C:7A73H         PUBLIC        pa_tab67
  C:7A61H         PUBLIC        pa_tab58
  C:7A4FH         PUBLIC        pa_tab49
  C:7AABH         PUBLIC        pa_tab95
  C:7A99H         PUBLIC        pa_tab86
  C:7A87H         PUBLIC        pa_tab77
  C:7A75H         PUBLIC        pa_tab68
  C:7A63H         PUBLIC        pa_tab59
  C:7AADH         PUBLIC        pa_tab96
  C:7A9BH         PUBLIC        pa_tab87
  C:7A89H         PUBLIC        pa_tab78
  C:7A77H         PUBLIC        pa_tab69
  C:7AAFH         PUBLIC        pa_tab97
  C:7A9DH         PUBLIC        pa_tab88
  C:7A8BH         PUBLIC        pa_tab79
  C:7AB1H         PUBLIC        pa_tab98
  C:7A9FH         PUBLIC        pa_tab89
  C:7AB3H         PUBLIC        pa_tab99
  C:3BBFH         PUBLIC        W_write
  C:9E38H         PUBLIC        _ssd2828_writecmd
  B:0020H.0       PUBLIC        ssd2828_cfg_ok
  C:7AB5H         PUBLIC        pa_tab100
  C:7AC9H         PUBLIC        pa_tab110
  C:7AB7H         PUBLIC        pa_tab101
  -------         PROC          SSD2828_READID
  -------         DO            
  X:C10FH         SYMBOL        ssd2828_id
  X:C111H         SYMBOL        reg_temp
  X:C113H         SYMBOL        i
  -------         ENDDO         
  C:8F78H         LINE#         205
  C:8F78H         LINE#         206
  C:8F87H         LINE#         208
  C:8F89H         LINE#         209
  C:8F8BH         LINE#         210
  C:8F92H         LINE#         211
  C:8FA4H         LINE#         213
  C:8FACH         LINE#         214
  C:8FB0H         LINE#         216
  C:8FB2H         LINE#         217
BL51 BANKED LINKER/LOCATER V6.22.2.0                                                  12/09/2022  13:55:10  PAGE 75


  C:8FB4H         LINE#         218
  C:8FBBH         LINE#         219
  C:8FBDH         LINE#         220
  C:8FC4H         LINE#         221
  C:8FD1H         LINE#         222
  C:8FD9H         LINE#         223
  C:8FDBH         LINE#         224
  C:8FE2H         LINE#         225
  C:8FF4H         LINE#         226
  C:8FF6H         LINE#         227
  C:8FFDH         LINE#         228
  C:8FFFH         LINE#         229
  C:9006H         LINE#         230
  C:9013H         LINE#         231
  C:9016H         LINE#         232
  C:901DH         LINE#         233
  C:9025H         LINE#         234
  C:9027H         LINE#         235
  C:902EH         LINE#         236
  C:9036H         LINE#         237
  -------         ENDPROC       SSD2828_READID
  -------         PROC          _SSD2828_READREG
  D:0007H         SYMBOL        addr_reg
  -------         DO            
  X:C1DBH         SYMBOL        reg_value
  X:C1DDH         SYMBOL        reg_temp
  X:C1DFH         SYMBOL        i
  -------         ENDDO         
  C:8EB7H         LINE#         239
  C:8EB7H         LINE#         240
  C:8EBEH         LINE#         242
  C:8EC8H         LINE#         243
  C:8ECAH         LINE#         244
  C:8ECCH         LINE#         245
  C:8ED3H         LINE#         246
  C:8EE5H         LINE#         248
  C:8EEDH         LINE#         249
  C:8EF1H         LINE#         251
  C:8EF3H         LINE#         252
  C:8EF5H         LINE#         253
  C:8EFCH         LINE#         254
  C:8EFEH         LINE#         255
  C:8F05H         LINE#         256
  C:8F12H         LINE#         257
  C:8F1AH         LINE#         258
  C:8F1CH         LINE#         259
  C:8F23H         LINE#         260
  C:8F35H         LINE#         261
  C:8F37H         LINE#         262
  C:8F3EH         LINE#         263
  C:8F40H         LINE#         264
  C:8F47H         LINE#         265
  C:8F54H         LINE#         266
  C:8F57H         LINE#         267
  C:8F5EH         LINE#         268
  C:8F66H         LINE#         269
  C:8F68H         LINE#         270
BL51 BANKED LINKER/LOCATER V6.22.2.0                                                  12/09/2022  13:55:10  PAGE 76


  C:8F6FH         LINE#         271
  C:8F77H         LINE#         272
  -------         ENDPROC       _SSD2828_READREG
  -------         PROC          _SSD2828_WRITECMD
  D:0007H         SYMBOL        cmd
  -------         DO            
  X:C116H         SYMBOL        i
  X:C117H         SYMBOL        ssd2828_cmd
  -------         ENDDO         
  C:9E38H         LINE#         274
  C:9E38H         LINE#         276
  C:9E3DH         LINE#         277
  C:9E3FH         LINE#         278
  C:9E41H         LINE#         279
  C:9E48H         LINE#         280
  C:9E5AH         LINE#         281
  C:9E5FH         LINE#         282
  C:9E63H         LINE#         284
  C:9E65H         LINE#         285
  C:9E67H         LINE#         286
  C:9E6EH         LINE#         287
  C:9E70H         LINE#         288
  C:9E77H         LINE#         289
  C:9E7EH         LINE#         290
  C:9E86H         LINE#         291
  C:9E88H         LINE#         292
  -------         ENDPROC       _SSD2828_WRITECMD
  -------         PROC          L?0075
  -------         ENDPROC       L?0075
  -------         PROC          _SSD2828_REGCONFIG
  D:0007H         SYMBOL        reg_addr
  D:0004H         SYMBOL        reg_data
  -------         DO            
  X:C116H         SYMBOL        i
  X:C117H         SYMBOL        addr_temp
  X:C118H         SYMBOL        data_H
  X:C119H         SYMBOL        data_L
  -------         ENDDO         
  C:87FBH         LINE#         295
  C:87FBH         LINE#         297
  C:8800H         LINE#         298
  C:8803H         LINE#         299
  C:8806H         LINE#         300
  C:8808H         LINE#         301
  C:880AH         LINE#         302
  C:8811H         LINE#         303
  C:8823H         LINE#         304
  C:8828H         LINE#         305
  C:882CH         LINE#         307
  C:882EH         LINE#         308
  C:8830H         LINE#         309
  C:8837H         LINE#         310
  C:8839H         LINE#         311
  C:8840H         LINE#         312
  C:8847H         LINE#         313
  C:884FH         LINE#         314
  C:8851H         LINE#         315
BL51 BANKED LINKER/LOCATER V6.22.2.0                                                  12/09/2022  13:55:10  PAGE 77


  C:8858H         LINE#         316
  C:886AH         LINE#         317
  C:8871H         LINE#         318
  C:8875H         LINE#         320
  C:8877H         LINE#         321
  C:8879H         LINE#         322
  C:8880H         LINE#         323
  C:8882H         LINE#         324
  C:8889H         LINE#         325
  C:8890H         LINE#         326
  C:8898H         LINE#         327
  C:88AAH         LINE#         328
  C:88B1H         LINE#         329
  C:88B5H         LINE#         331
  C:88B7H         LINE#         332
  C:88B9H         LINE#         333
  C:88C0H         LINE#         334
  C:88C2H         LINE#         335
  C:88C9H         LINE#         336
  C:88D0H         LINE#         337
  C:88D8H         LINE#         338
  C:88DAH         LINE#         339
  -------         ENDPROC       _SSD2828_REGCONFIG
  C:91A6H         SYMBOL        L?0074
  -------         PROC          L?0073
  -------         ENDPROC       L?0073
  C:91A6H         SYMBOL        L?0074
  -------         PROC          _SSD2828_WRITEPACKAGE
  X:C10FH         SYMBOL        pbuf
  D:0004H         SYMBOL        len
  -------         DO            
  X:C112H         SYMBOL        lenth
  X:C114H         SYMBOL        i
  X:C115H         SYMBOL        temp
  -------         ENDDO         
  C:91AAH         LINE#         342
  C:91B5H         LINE#         345
  C:91BFH         LINE#         346
  C:91C4H         LINE#         347
  C:91D1H         LINE#         348
  C:91D6H         LINE#         349
  C:91D8H         LINE#         350
  C:91DAH         LINE#         351
  C:91E1H         LINE#         352
  C:91EFH         LINE#         353
  C:9206H         LINE#         354
  C:9218H         LINE#         355
  C:921DH         LINE#         356
  C:9221H         LINE#         358
  C:9223H         LINE#         359
  C:9225H         LINE#         360
  C:922CH         LINE#         361
  C:922EH         LINE#         362
  C:9235H         LINE#         363
  C:923CH         LINE#         364
  C:9244H         LINE#         365
  C:9244H         LINE#         366
BL51 BANKED LINKER/LOCATER V6.22.2.0                                                  12/09/2022  13:55:10  PAGE 78


  C:9246H         LINE#         367
  -------         ENDPROC       _SSD2828_WRITEPACKAGE
  -------         PROC          _W_COM
  X:C1F2H         SYMBOL        cmd
  X:C1F3H         SYMBOL        val
  -------         DO            
  X:C1F4H         SYMBOL        i
  -------         ENDDO         
  C:9037H         LINE#         451
  C:903FH         LINE#         452
  C:903FH         LINE#         454
  C:9048H         LINE#         455
  C:904DH         LINE#         456
  C:9055H         LINE#         457
  C:905AH         LINE#         458
  C:905CH         LINE#         459
  C:905EH         LINE#         460
  C:9070H         LINE#         461
  C:9070H         LINE#         462
  C:9077H         LINE#         463
  C:907BH         LINE#         465
  C:907DH         LINE#         466
  C:907FH         LINE#         467
  C:9086H         LINE#         468
  C:9088H         LINE#         469
  C:908FH         LINE#         470
  C:9096H         LINE#         471
  C:909EH         LINE#         472
  C:90A0H         LINE#         473
  C:90A7H         LINE#         474
  C:90B9H         LINE#         475
  C:90B9H         LINE#         476
  C:90C0H         LINE#         477
  C:90C4H         LINE#         479
  C:90C6H         LINE#         480
  C:90C8H         LINE#         481
  C:90CFH         LINE#         482
  C:90D1H         LINE#         483
  C:90D8H         LINE#         484
  C:90DFH         LINE#         485
  C:90E5H         LINE#         486
  C:90E7H         LINE#         487
  C:90EEH         LINE#         489
  -------         ENDPROC       _W_COM
  -------         PROC          _SSD2828_READ_MIPI
  X:C1E0H         SYMBOL        mipi_reg
  -------         DO            
  D:0006H         SYMBOL        reg_value
  X:C1E2H         SYMBOL        mipi_reg_value
  X:C1E4H         SYMBOL        mipi_read_cnt
  -------         ENDDO         
  C:98CBH         LINE#         496
  C:98D3H         LINE#         497
  C:98D9H         LINE#         498
  C:98DBH         LINE#         499
  C:98DBH         LINE#         500
  C:98E4H         LINE#         502
BL51 BANKED LINKER/LOCATER V6.22.2.0                                                  12/09/2022  13:55:10  PAGE 79


  C:98EDH         LINE#         504
  C:98F2H         LINE#         505
  C:98FFH         LINE#         506
  C:9908H         LINE#         507
  C:990DH         LINE#         508
  C:9913H         LINE#         509
  C:9919H         LINE#         510
  C:9926H         LINE#         512
  C:9933H         LINE#         513
  C:993CH         LINE#         514
  C:9944H         LINE#         515
  -------         ENDPROC       _SSD2828_READ_MIPI
  -------         PROC          W_WRITE
  C:3BBFH         LINE#         517
  C:3BBFH         LINE#         518
  C:3BBFH         LINE#         519
  C:3BC6H         LINE#         521
  C:3BCDH         LINE#         522
  C:3BD4H         LINE#         523
  C:3BDBH         LINE#         524
  C:3BE2H         LINE#         525
  C:3BE9H         LINE#         527
  C:3BF0H         LINE#         528
  C:3BF7H         LINE#         529
  C:3BFEH         LINE#         530
  C:3C05H         LINE#         531
  C:3C0CH         LINE#         532
  C:3C13H         LINE#         533
  C:3C1AH         LINE#         534
  C:3C21H         LINE#         535
  C:3C28H         LINE#         536
  C:3C2FH         LINE#         537
  C:3C36H         LINE#         538
  C:3C3DH         LINE#         539
  C:3C44H         LINE#         540
  C:3C4BH         LINE#         541
  C:3C52H         LINE#         542
  C:3C59H         LINE#         543
  C:3C60H         LINE#         544
  C:3C67H         LINE#         545
  C:3C6EH         LINE#         546
  C:3C75H         LINE#         547
  C:3C7CH         LINE#         548
  C:3C83H         LINE#         549
  C:3C8AH         LINE#         550
  C:3C91H         LINE#         551
  C:3C98H         LINE#         552
  C:3C9FH         LINE#         553
  C:3CA6H         LINE#         554
  C:3CADH         LINE#         555
  C:3CB4H         LINE#         556
  C:3CBBH         LINE#         557
  C:3CC2H         LINE#         558
  C:3CC9H         LINE#         559
  C:3CD0H         LINE#         560
  C:3CD7H         LINE#         561
  C:3CDEH         LINE#         562
BL51 BANKED LINKER/LOCATER V6.22.2.0                                                  12/09/2022  13:55:10  PAGE 80


  C:3CE5H         LINE#         563
  C:3CECH         LINE#         564
  C:3CF3H         LINE#         565
  C:3CFAH         LINE#         566
  C:3D01H         LINE#         567
  C:3D08H         LINE#         568
  C:3D0FH         LINE#         569
  C:3D16H         LINE#         570
  C:3D1DH         LINE#         571
  C:3D24H         LINE#         572
  C:3D2BH         LINE#         573
  C:3D32H         LINE#         574
  C:3D39H         LINE#         575
  C:3D40H         LINE#         576
  C:3D47H         LINE#         577
  C:3D4EH         LINE#         578
  C:3D55H         LINE#         579
  C:3D5CH         LINE#         580
  C:3D63H         LINE#         581
  C:3D6AH         LINE#         582
  C:3D71H         LINE#         583
  C:3D78H         LINE#         584
  C:3D7FH         LINE#         585
  C:3D86H         LINE#         586
  C:3D8DH         LINE#         587
  C:3D94H         LINE#         588
  C:3D9BH         LINE#         589
  C:3DA2H         LINE#         590
  C:3DA9H         LINE#         591
  C:3DB0H         LINE#         592
  C:3DB7H         LINE#         593
  C:3DBEH         LINE#         594
  C:3DC5H         LINE#         595
  C:3DCCH         LINE#         596
  C:3DD3H         LINE#         597
  C:3DDAH         LINE#         598
  C:3DE1H         LINE#         599
  C:3DE8H         LINE#         600
  C:3DEFH         LINE#         601
  C:3DF6H         LINE#         602
  C:3DFDH         LINE#         603
  C:3E04H         LINE#         604
  C:3E0BH         LINE#         605
  C:3E12H         LINE#         606
  C:3E19H         LINE#         607
  C:3E20H         LINE#         608
  C:3E27H         LINE#         609
  C:3E2EH         LINE#         610
  C:3E35H         LINE#         611
  C:3E3CH         LINE#         612
  C:3E43H         LINE#         613
  C:3E4AH         LINE#         614
  C:3E51H         LINE#         615
  C:3E58H         LINE#         616
  C:3E5FH         LINE#         617
  C:3E66H         LINE#         618
  C:3E6DH         LINE#         619
BL51 BANKED LINKER/LOCATER V6.22.2.0                                                  12/09/2022  13:55:10  PAGE 81


  C:3E74H         LINE#         620
  C:3E7BH         LINE#         621
  C:3E82H         LINE#         622
  C:3E89H         LINE#         623
  C:3E90H         LINE#         624
  C:3E97H         LINE#         625
  C:3E9EH         LINE#         626
  C:3EA5H         LINE#         627
  C:3EACH         LINE#         628
  C:3EB3H         LINE#         629
  C:3EBAH         LINE#         630
  C:3EC1H         LINE#         631
  C:3EC8H         LINE#         632
  C:3ECFH         LINE#         633
  C:3ED6H         LINE#         634
  C:3EDDH         LINE#         635
  C:3EE4H         LINE#         636
  C:3EEBH         LINE#         637
  C:3EF2H         LINE#         638
  C:3EF9H         LINE#         639
  C:3F00H         LINE#         640
  C:3F07H         LINE#         641
  C:3F0EH         LINE#         642
  C:3F15H         LINE#         643
  C:3F1CH         LINE#         644
  C:3F23H         LINE#         645
  C:3F2AH         LINE#         646
  C:3F31H         LINE#         647
  C:3F38H         LINE#         648
  C:3F3FH         LINE#         650
  C:3F46H         LINE#         652
  C:3F4DH         LINE#         653
  C:3F54H         LINE#         654
  C:3F5BH         LINE#         655
  C:3F62H         LINE#         656
  C:3F69H         LINE#         657
  C:3F70H         LINE#         658
  C:3F77H         LINE#         659
  C:3F7EH         LINE#         660
  C:3F85H         LINE#         661
  C:3F8CH         LINE#         662
  C:3F93H         LINE#         663
  C:3F9AH         LINE#         664
  C:3FA1H         LINE#         665
  C:3FA8H         LINE#         666
  C:3FAFH         LINE#         667
  C:3FB6H         LINE#         668
  C:3FBDH         LINE#         669
  C:3FC4H         LINE#         670
  C:3FCBH         LINE#         671
  C:3FD2H         LINE#         672
  C:3FD9H         LINE#         673
  C:3FE0H         LINE#         674
  C:3FE7H         LINE#         675
  C:3FEEH         LINE#         676
  C:3FF5H         LINE#         677
  C:3FFCH         LINE#         678
BL51 BANKED LINKER/LOCATER V6.22.2.0                                                  12/09/2022  13:55:10  PAGE 82


  C:4003H         LINE#         679
  C:400AH         LINE#         680
  C:4011H         LINE#         681
  C:4018H         LINE#         682
  C:401FH         LINE#         683
  C:4026H         LINE#         684
  C:402DH         LINE#         685
  C:4034H         LINE#         686
  C:403BH         LINE#         687
  C:4042H         LINE#         688
  C:4049H         LINE#         689
  C:4050H         LINE#         690
  C:4057H         LINE#         691
  C:405EH         LINE#         692
  C:4065H         LINE#         693
  C:406CH         LINE#         694
  C:4073H         LINE#         695
  C:407AH         LINE#         696
  C:4081H         LINE#         697
  C:4088H         LINE#         698
  C:408FH         LINE#         699
  C:4096H         LINE#         700
  C:409DH         LINE#         701
  C:40A4H         LINE#         702
  C:40ABH         LINE#         703
  C:40B2H         LINE#         704
  C:40B9H         LINE#         705
  C:40C0H         LINE#         706
  C:40C7H         LINE#         707
  C:40CEH         LINE#         708
  C:40D5H         LINE#         709
  C:40DCH         LINE#         710
  C:40E3H         LINE#         711
  C:40EAH         LINE#         712
  C:40F1H         LINE#         713
  C:40F8H         LINE#         714
  C:40FFH         LINE#         715
  C:4106H         LINE#         716
  C:410DH         LINE#         717
  C:4114H         LINE#         718
  C:411BH         LINE#         719
  C:4122H         LINE#         720
  C:4129H         LINE#         721
  C:4130H         LINE#         722
  C:4137H         LINE#         723
  C:413EH         LINE#         724
  C:4145H         LINE#         725
  C:414CH         LINE#         726
  C:4153H         LINE#         727
  C:415AH         LINE#         728
  C:4161H         LINE#         729
  C:4168H         LINE#         730
  C:416FH         LINE#         731
  C:4176H         LINE#         732
  C:417DH         LINE#         733
  C:4184H         LINE#         734
  C:418BH         LINE#         735
BL51 BANKED LINKER/LOCATER V6.22.2.0                                                  12/09/2022  13:55:10  PAGE 83


  C:4192H         LINE#         736
  C:4199H         LINE#         737
  C:41A0H         LINE#         738
  C:41A7H         LINE#         739
  C:41AEH         LINE#         740
  C:41B5H         LINE#         741
  C:41BCH         LINE#         742
  C:41C3H         LINE#         743
  C:41CAH         LINE#         744
  C:41D1H         LINE#         745
  C:41D8H         LINE#         746
  C:41DFH         LINE#         747
  C:41E6H         LINE#         748
  C:41EDH         LINE#         749
  C:41F4H         LINE#         750
  C:41FBH         LINE#         751
  C:4202H         LINE#         752
  C:4209H         LINE#         753
  C:4210H         LINE#         754
  C:4217H         LINE#         755
  C:421EH         LINE#         756
  C:4225H         LINE#         757
  C:422CH         LINE#         758
  C:4233H         LINE#         759
  C:423AH         LINE#         760
  C:4241H         LINE#         761
  C:4248H         LINE#         762
  C:424FH         LINE#         763
  C:4256H         LINE#         764
  C:425DH         LINE#         765
  C:4264H         LINE#         766
  C:426BH         LINE#         767
  C:4272H         LINE#         768
  C:4279H         LINE#         769
  C:4280H         LINE#         770
  C:4287H         LINE#         771
  C:428EH         LINE#         773
  C:4295H         LINE#         774
  C:429CH         LINE#         776
  C:42A3H         LINE#         777
  -------         ENDPROC       W_WRITE
  -------         PROC          C055_CODE_DOWNLOAD
  C:48FAH         LINE#         781
  C:48FAH         LINE#         782
  C:48FAH         LINE#         783
  C:4907H         LINE#         784
  C:490EH         LINE#         785
  C:4915H         LINE#         786
  C:491EH         LINE#         787
  C:4927H         LINE#         788
  C:4930H         LINE#         789
  C:4939H         LINE#         790
  C:4942H         LINE#         791
  C:494BH         LINE#         792
  C:4954H         LINE#         793
  C:495DH         LINE#         794
  C:4966H         LINE#         795
BL51 BANKED LINKER/LOCATER V6.22.2.0                                                  12/09/2022  13:55:10  PAGE 84


  C:496FH         LINE#         796
  C:4978H         LINE#         797
  C:4981H         LINE#         798
  C:498AH         LINE#         799
  C:4993H         LINE#         800
  C:499CH         LINE#         801
  C:49A5H         LINE#         802
  C:49AEH         LINE#         803
  C:49B7H         LINE#         804
  C:49C0H         LINE#         805
  C:49C9H         LINE#         806
  C:49D2H         LINE#         807
  C:49DBH         LINE#         808
  C:49E4H         LINE#         809
  C:49EDH         LINE#         810
  C:49F6H         LINE#         811
  C:49FFH         LINE#         812
  C:4A08H         LINE#         813
  C:4A11H         LINE#         814
  C:4A1AH         LINE#         815
  C:4A23H         LINE#         816
  C:4A2CH         LINE#         817
  C:4A35H         LINE#         818
  C:4A3EH         LINE#         819
  C:4A47H         LINE#         820
  C:4A50H         LINE#         821
  C:4A59H         LINE#         822
  C:4A62H         LINE#         823
  C:4A6BH         LINE#         824
  C:4A74H         LINE#         825
  C:4A7DH         LINE#         826
  C:4A86H         LINE#         827
  C:4A8FH         LINE#         828
  C:4A98H         LINE#         829
  C:4AA1H         LINE#         830
  C:4AAAH         LINE#         831
  C:4AB3H         LINE#         832
  C:4ABCH         LINE#         833
  C:4AC5H         LINE#         834
  C:4ACEH         LINE#         835
  C:4AD7H         LINE#         836
  C:4AE0H         LINE#         837
  C:4AE9H         LINE#         838
  C:4AF2H         LINE#         839
  C:4AFBH         LINE#         840
  C:4B04H         LINE#         841
  C:4B0DH         LINE#         842
  C:4B16H         LINE#         843
  C:4B1FH         LINE#         844
  C:4B28H         LINE#         845
  C:4B31H         LINE#         846
  C:4B3AH         LINE#         847
  C:4B43H         LINE#         848
  C:4B4CH         LINE#         849
  C:4B55H         LINE#         850
  C:4B5EH         LINE#         851
  C:4B67H         LINE#         852
BL51 BANKED LINKER/LOCATER V6.22.2.0                                                  12/09/2022  13:55:10  PAGE 85


  C:4B70H         LINE#         853
  C:4B79H         LINE#         854
  C:4B82H         LINE#         855
  C:4B8BH         LINE#         856
  C:4B94H         LINE#         857
  C:4B9DH         LINE#         858
  C:4BA6H         LINE#         859
  C:4BAFH         LINE#         860
  C:4BB8H         LINE#         861
  C:4BC1H         LINE#         862
  C:4BCAH         LINE#         863
  C:4BD3H         LINE#         864
  C:4BDCH         LINE#         865
  C:4BE5H         LINE#         866
  C:4BEEH         LINE#         867
  C:4BF7H         LINE#         868
  C:4C00H         LINE#         869
  C:4C09H         LINE#         870
  C:4C12H         LINE#         871
  C:4C1BH         LINE#         872
  C:4C24H         LINE#         873
  C:4C2DH         LINE#         874
  C:4C36H         LINE#         875
  C:4C3FH         LINE#         876
  C:4C48H         LINE#         877
  C:4C51H         LINE#         878
  C:4C5AH         LINE#         879
  C:4C63H         LINE#         880
  C:4C6CH         LINE#         881
  C:4C75H         LINE#         882
  C:4C7EH         LINE#         883
  C:4C87H         LINE#         884
  C:4C90H         LINE#         885
  C:4C99H         LINE#         886
  C:4CA2H         LINE#         887
  C:4CABH         LINE#         888
  C:4CB4H         LINE#         889
  C:4CBDH         LINE#         890
  C:4CC6H         LINE#         891
  C:4CCFH         LINE#         892
  C:4CD8H         LINE#         893
  C:4CE1H         LINE#         894
  C:4CEAH         LINE#         895
  C:4CF3H         LINE#         896
  C:4CFCH         LINE#         897
  C:4D05H         LINE#         898
  C:4D0EH         LINE#         899
  C:4D1BH         LINE#         900
  C:4D24H         LINE#         901
  C:4D2DH         LINE#         902
  C:4D36H         LINE#         903
  C:4D3FH         LINE#         904
  C:4D48H         LINE#         905
  C:4D51H         LINE#         906
  C:4D5AH         LINE#         907
  C:4D63H         LINE#         908
  C:4D6CH         LINE#         909
BL51 BANKED LINKER/LOCATER V6.22.2.0                                                  12/09/2022  13:55:10  PAGE 86


  C:4D75H         LINE#         910
  C:4D82H         LINE#         911
  C:4D8BH         LINE#         912
  C:4D94H         LINE#         913
  C:4D9DH         LINE#         914
  C:4DA6H         LINE#         915
  C:4DAFH         LINE#         916
  C:4DB8H         LINE#         917
  C:4DC1H         LINE#         918
  C:4DCAH         LINE#         919
  C:4DD3H         LINE#         920
  C:4DDCH         LINE#         921
  C:4DE9H         LINE#         922
  C:4DF2H         LINE#         923
  C:4DFBH         LINE#         924
  C:4E04H         LINE#         925
  C:4E11H         LINE#         926
  C:4E1EH         LINE#         927
  C:4E2BH         LINE#         928
  C:4E38H         LINE#         929
  C:4E41H         LINE#         930
  C:4E4AH         LINE#         931
  C:4E53H         LINE#         932
  C:4E5CH         LINE#         933
  C:4E65H         LINE#         934
  C:4E6EH         LINE#         935
  C:4E77H         LINE#         936
  C:4E84H         LINE#         937
  C:4E8DH         LINE#         938
  C:4E96H         LINE#         939
  C:4E9FH         LINE#         940
  C:4EACH         LINE#         941
  C:4EB5H         LINE#         942
  C:4EBEH         LINE#         943
  C:4EC5H         LINE#         944
  C:4ECEH         LINE#         945
  -------         ENDPROC       C055_CODE_DOWNLOAD
  -------         PROC          LCD_PA_SET
  -------         DO            
  D:0007H         SYMBOL        lcd_vs
  D:0005H         SYMBOL        lcd_hs
  X:C10FH         SYMBOL        lcd_vbp
  X:C110H         SYMBOL        lcd_hbp
  X:C111H         SYMBOL        lcd_vfp
  D:0001H         SYMBOL        lcd_hfp
  D:0004H         SYMBOL        lcd_sw
  X:C112H         SYMBOL        lcd_bp
  X:C114H         SYMBOL        lcd_fp
  -------         ENDDO         
  C:9BF2H         LINE#         948
  C:9BF2H         LINE#         951
  C:9BF2H         LINE#         952
  C:9BF2H         LINE#         953
  C:9BF8H         LINE#         954
  C:9BFCH         LINE#         955
  C:9C00H         LINE#         956
  C:9C02H         LINE#         957
BL51 BANKED LINKER/LOCATER V6.22.2.0                                                  12/09/2022  13:55:10  PAGE 87


  C:9C07H         LINE#         958
  C:9C19H         LINE#         959
  C:9C28H         LINE#         960
  C:9C2DH         LINE#         961
  C:9C3AH         LINE#         962
  C:9C47H         LINE#         963
  C:9C50H         LINE#         964
  -------         ENDPROC       LCD_PA_SET
  -------         PROC          SSD2828_INIT
  -------         DO            
  D:0006H         SYMBOL        temp
  -------         ENDDO         
  C:8411H         LINE#         967
  C:8411H         LINE#         969
  C:8414H         LINE#         970
  C:8417H         LINE#         971
  C:8424H         LINE#         975
  C:842CH         LINE#         976
  C:8434H         LINE#         977
  C:843CH         LINE#         979
  C:8445H         LINE#         980
  C:844EH         LINE#         981
  C:8457H         LINE#         983
  C:8460H         LINE#         984
  C:8469H         LINE#         985
  C:8470H         LINE#         987
  C:8479H         LINE#         989
  C:8480H         LINE#         992
  C:8483H         LINE#         996
  C:848CH         LINE#         997
  C:8494H         LINE#         998
  C:849CH         LINE#         1001
  C:84A5H         LINE#         1003
  C:84AEH         LINE#         1004
  C:84B7H         LINE#         1005
  C:84C0H         LINE#         1006
  C:84C7H         LINE#         1007
  C:84D0H         LINE#         1008
  C:84D9H         LINE#         1009
  C:84E2H         LINE#         1010
  C:84EAH         LINE#         1011
  C:84EDH         LINE#         1014
  C:84F6H         LINE#         1015
  C:84FFH         LINE#         1017
  C:8508H         LINE#         1019
  C:8511H         LINE#         1020
  C:8518H         LINE#         1021
  C:851DH         LINE#         1027
  C:851FH         LINE#         1028
  -------         ENDPROC       SSD2828_INIT
  -------         ENDMOD        SSD2828

  -------         MODULE        RTC
  C:0000H         SYMBOL        _ICE_DUMMY_
  D:00B0H         PUBLIC        P3
  X:C1CEH         PUBLIC        RTCdata
  C:8B8CH         PUBLIC        rdtime
BL51 BANKED LINKER/LOCATER V6.22.2.0                                                  12/09/2022  13:55:10  PAGE 88


  D:00BEH         PUBLIC        P3MDOUT
  C:A3A7H         PUBLIC        cack
  C:A284H         PUBLIC        _Hex_to_BCD
  C:A4F6H         PUBLIC        mack
  B:00B0H.3       PUBLIC        RTC_SDA
  C:A505H         PUBLIC        mnak
  B:00B0H.2       PUBLIC        RTC_SCL
  C:A49FH         PUBLIC        i2cstart
  C:A570H         PUBLIC        SDA_OUT
  C:A489H         PUBLIC        i2cstop
  C:A56CH         PUBLIC        SDA_IN
  C:A24AH         PUBLIC        i2cbr
  C:8C5BH         PUBLIC        _Write_RTC
  C:99FEH         PUBLIC        _i2cbw
  C:9AA6H         PUBLIC        init_rtc
  C:90F5H         PUBLIC        Write_wifi_RTC
  C:A533H         PUBLIC        RTC_Read_and_Set
  B:0020H.1       PUBLIC        is_time_flag
  C:92E8H         PUBLIC        _rtc_get_week
  C:A38AH         PUBLIC        _delayus
  -------         PROC          SDA_IN
  C:A56CH         LINE#         11
  C:A56CH         LINE#         12
  C:A56CH         LINE#         13
  C:A56FH         LINE#         14
  -------         ENDPROC       SDA_IN
  -------         PROC          SDA_OUT
  C:A570H         LINE#         16
  C:A570H         LINE#         17
  C:A570H         LINE#         19
  C:A573H         LINE#         20
  -------         ENDPROC       SDA_OUT
  C:A381H         SYMBOL        L?0061
  -------         PROC          L?0060
  -------         ENDPROC       L?0060
  C:A381H         SYMBOL        L?0061
  -------         PROC          _DELAYUS
  D:0007H         SYMBOL        t
  -------         DO            
  D:0006H         SYMBOL        i
  -------         ENDDO         
  C:A38AH         LINE#         23
  C:A38AH         LINE#         24
  C:A38AH         LINE#         26
  C:A38DH         LINE#         27
  C:A38DH         LINE#         28
  C:A3A0H         LINE#         29
  C:A3A0H         LINE#         30
  C:A3A0H         LINE#         31
  C:A3A3H         LINE#         32
  C:A3A4H         LINE#         33
  C:A3A6H         LINE#         34
  -------         ENDPROC       _DELAYUS
  -------         PROC          I2CSTART
  C:A49FH         LINE#         36
  C:A49FH         LINE#         37
  C:A49FH         LINE#         38
BL51 BANKED LINKER/LOCATER V6.22.2.0                                                  12/09/2022  13:55:10  PAGE 89


  C:A4A2H         LINE#         39
  C:A4A4H         LINE#         40
  C:A4A6H         LINE#         41
  C:A4ABH         LINE#         42
  C:A4ADH         LINE#         43
  C:A4B2H         LINE#         44
  C:A4B4H         LINE#         45
  -------         ENDPROC       I2CSTART
  -------         PROC          L?0062
  -------         ENDPROC       L?0062
  -------         PROC          I2CSTOP
  C:A489H         LINE#         48
  C:A489H         LINE#         49
  C:A489H         LINE#         50
  C:A48CH         LINE#         51
  C:A48EH         LINE#         52
  C:A490H         LINE#         53
  C:A495H         LINE#         54
  C:A497H         LINE#         55
  C:A49CH         LINE#         56
  -------         ENDPROC       I2CSTOP
  -------         PROC          MACK
  C:A4F6H         LINE#         59
  C:A4F6H         LINE#         60
  C:A4F6H         LINE#         61
  C:A4F9H         LINE#         62
  C:A4FBH         LINE#         63
  C:A4FBH         LINE#         64
  C:A4FBH         LINE#         65
  C:A4FEH         LINE#         66
  C:A500H         LINE#         67
  -------         ENDPROC       MACK
  -------         PROC          MNAK
  C:A505H         LINE#         70
  C:A505H         LINE#         71
  C:A505H         LINE#         72
  C:A508H         LINE#         73
  C:A508H         LINE#         74
  C:A508H         LINE#         75
  C:A508H         LINE#         76
  C:A50BH         LINE#         77
  C:A50DH         LINE#         78
  -------         ENDPROC       MNAK
  -------         PROC          CACK
  -------         DO            
  D:0003H         SYMBOL        i
  -------         ENDDO         
  C:A3A7H         LINE#         81
  C:A3A7H         LINE#         82
  C:A3A7H         LINE#         84
  C:A3AAH         LINE#         85
  C:A3AAH         LINE#         86
  C:A3AAH         LINE#         87
  C:A3AAH         LINE#         88
  C:A3ADH         LINE#         89
  C:A3B9H         LINE#         90
  C:A3B9H         LINE#         91
BL51 BANKED LINKER/LOCATER V6.22.2.0                                                  12/09/2022  13:55:10  PAGE 90


  C:A3BCH         LINE#         92
  C:A3C1H         LINE#         93
  C:A3C4H         LINE#         94
  C:A3C6H         LINE#         95
  C:A3CBH         LINE#         96
  -------         ENDPROC       CACK
  C:99C0H         SYMBOL        L?0055
  C:99F3H         SYMBOL        L?0056
  C:99F9H         SYMBOL        L?0057
  -------         PROC          L?0054
  -------         ENDPROC       L?0054
  C:99C0H         SYMBOL        L?0055
  C:99F3H         SYMBOL        L?0056
  C:99F9H         SYMBOL        L?0057
  -------         PROC          _I2CBW
  D:0003H         SYMBOL        dat
  -------         DO            
  D:0002H         SYMBOL        i
  -------         ENDDO         
  C:99FEH         LINE#         100
  C:9A00H         LINE#         101
  C:9A00H         LINE#         102
  C:9A03H         LINE#         103
  C:9A16H         LINE#         104
  C:9A16H         LINE#         105
  C:9A1AH         LINE#         106
  C:9A1EH         LINE#         108
  C:9A20H         LINE#         109
  C:9A24H         LINE#         110
  C:9A24H         LINE#         111
  C:9A24H         LINE#         112
  C:9A27H         LINE#         113
  C:9A29H         LINE#         114
  C:9A2EH         LINE#         115
  C:9A31H         LINE#         116
  -------         ENDPROC       _I2CBW
  -------         PROC          I2CBR
  -------         DO            
  D:0002H         SYMBOL        i
  D:0003H         SYMBOL        dat
  -------         ENDDO         
  C:A24AH         LINE#         120
  C:A24AH         LINE#         121
  C:A24AH         LINE#         124
  C:A24DH         LINE#         125
  C:A260H         LINE#         126
  C:A260H         LINE#         127
  C:A260H         LINE#         128
  C:A260H         LINE#         129
  C:A263H         LINE#         130
  C:A267H         LINE#         131
  C:A26AH         LINE#         132
  C:A26FH         LINE#         134
  C:A273H         LINE#         135
  C:A275H         LINE#         136
  C:A27AH         LINE#         137
  C:A27DH         LINE#         138
BL51 BANKED LINKER/LOCATER V6.22.2.0                                                  12/09/2022  13:55:10  PAGE 91


  C:A27FH         LINE#         139
  -------         ENDPROC       I2CBR
  -------         PROC          INIT_RTC
  -------         DO            
  D:0001H         SYMBOL        i
  -------         ENDDO         
  C:9AA6H         LINE#         142
  C:9AA6H         LINE#         143
  C:9AA6H         LINE#         146
  C:9AADH         LINE#         147
  C:9AB4H         LINE#         150
  C:9AB4H         LINE#         151
  C:9AB7H         LINE#         152
  C:9ABCH         LINE#         153
  C:9ABFH         LINE#         154
  C:9AC2H         LINE#         155
  C:9AC7H         LINE#         156
  C:9ACCH         LINE#         157
  C:9ACFH         LINE#         158
  C:9AD2H         LINE#         159
  C:9AD5H         LINE#         160
  C:9AD8H         LINE#         161
  C:9ADFH         LINE#         162
  C:9ADFH         LINE#         163
  C:9ADFH         LINE#         164
  C:9ADFH         LINE#         165
  C:9ADFH         LINE#         166
  C:9ADFH         LINE#         167
  C:9ADFH         LINE#         168
  C:9ADFH         LINE#         169
  C:9ADFH         LINE#         170
  C:9ADFH         LINE#         171
  C:9ADFH         LINE#         172
  C:9ADFH         LINE#         173
  C:9ADFH         LINE#         174
  C:9ADFH         LINE#         175
  C:9ADFH         LINE#         176
  C:9ADFH         LINE#         177
  C:9AE2H         LINE#         178
  C:9AE7H         LINE#         179
  C:9AECH         LINE#         180
  C:9AF1H         LINE#         181
  C:9AF6H         LINE#         182
  C:9AFBH         LINE#         183
  C:9B00H         LINE#         184
  C:9B05H         LINE#         185
  C:9B07H         LINE#         186
  C:9B07H         LINE#         187
  C:9B07H         LINE#         188
  C:9B0AH         LINE#         189
  C:9B0FH         LINE#         190
  C:9B14H         LINE#         191
  C:9B14H         LINE#         192
  C:9B17H         LINE#         193
  C:9B17H         LINE#         194
  -------         ENDPROC       INIT_RTC
  -------         PROC          RDTIME
BL51 BANKED LINKER/LOCATER V6.22.2.0                                                  12/09/2022  13:55:10  PAGE 92


  -------         DO            
  D:0001H         SYMBOL        i
  X:C10FH         SYMBOL        n
  X:C110H         SYMBOL        m
  -------         ENDDO         
  C:8B8CH         LINE#         197
  C:8B8CH         LINE#         198
  C:8B8CH         LINE#         201
  C:8B8CH         LINE#         202
  C:8B8FH         LINE#         203
  C:8B8FH         LINE#         204
  C:8B92H         LINE#         205
  C:8B95H         LINE#         206
  C:8B9AH         LINE#         207
  C:8BA6H         LINE#         208
  C:8BA6H         LINE#         209
  C:8BB5H         LINE#         210
  C:8BB8H         LINE#         211
  C:8BBBH         LINE#         212
  C:8BC3H         LINE#         213
  C:8BC6H         LINE#         214
  C:8BC9H         LINE#         215
  C:8BD5H         LINE#         216
  C:8BD5H         LINE#         217
  C:8BE9H         LINE#         218
  C:8BEFH         LINE#         219
  C:8C02H         LINE#         220
  C:8C05H         LINE#         221
  C:8C11H         LINE#         222
  C:8C11H         LINE#         223
  C:8C25H         LINE#         224
  C:8C2BH         LINE#         225
  C:8C3EH         LINE#         226
  C:8C41H         LINE#         242
  C:8C46H         LINE#         243
  -------         ENDPROC       RDTIME
  C:A280H         SYMBOL        L?0059
  -------         PROC          L?0058
  -------         ENDPROC       L?0058
  C:A280H         SYMBOL        L?0059
  -------         PROC          _HEX_TO_BCD
  D:0002H         SYMBOL        value
  C:A284H         LINE#         246
  C:A288H         LINE#         247
  C:A288H         LINE#         248
  C:A2B1H         LINE#         249
  C:A2B4H         LINE#         250
  -------         ENDPROC       _HEX_TO_BCD
  -------         PROC          _RTC_GET_WEEK
  D:0004H         SYMBOL        year
  D:0005H         SYMBOL        month
  X:C1E5H         SYMBOL        day
  -------         DO            
  D:0006H         SYMBOL        tmp
  X:C1E6H         SYMBOL        mon
  X:C1E8H         SYMBOL        y
  D:0007H         SYMBOL        week
BL51 BANKED LINKER/LOCATER V6.22.2.0                                                  12/09/2022  13:55:10  PAGE 93


  -------         ENDDO         
  C:92E8H         LINE#         253
  C:92EFH         LINE#         254
  C:92EFH         LINE#         257
  C:92FCH         LINE#         258
  C:92FCH         LINE#         259
  C:9309H         LINE#         260
  C:9315H         LINE#         261
  C:9317H         LINE#         263
  C:9317H         LINE#         264
  C:9321H         LINE#         265
  C:9329H         LINE#         266
  C:9329H         LINE#         267
  C:9374H         LINE#         268
  C:937BH         LINE#         269
  C:937BH         LINE#         270
  -------         ENDPROC       _RTC_GET_WEEK
  -------         PROC          _WRITE_RTC
  D:0006H         SYMBOL        time_addr
  X:C161H         SYMBOL        week_addr
  -------         DO            
  X:C163H         SYMBOL        rtcdata
  X:C16BH         SYMBOL        Rtc_Set
  X:C171H         SYMBOL        week
  -------         ENDDO         
  C:8C5BH         LINE#         273
  C:8C63H         LINE#         274
  C:8C63H         LINE#         279
  C:8C75H         LINE#         280
  C:8C8EH         LINE#         282
  C:8C99H         LINE#         283
  C:8CA4H         LINE#         284
  C:8CAFH         LINE#         285
  C:8CBAH         LINE#         286
  C:8CC5H         LINE#         287
  C:8CD0H         LINE#         296
  C:8CE2H         LINE#         298
  C:8CE2H         LINE#         299
  C:8CE2H         LINE#         300
  C:8CE2H         LINE#         301
  C:8CE2H         LINE#         302
  C:8CE2H         LINE#         303
  C:8CE2H         LINE#         304
  C:8CE2H         LINE#         305
  C:8CE2H         LINE#         306
  C:8CE2H         LINE#         307
  C:8CE2H         LINE#         308
  C:8CE2H         LINE#         309
  C:8CE2H         LINE#         310
  C:8CE2H         LINE#         311
  C:8CE2H         LINE#         312
  C:8CE5H         LINE#         313
  C:8CEAH         LINE#         316
  C:8CF2H         LINE#         317
  C:8CF8H         LINE#         318
  C:8CFEH         LINE#         319
  C:8D04H         LINE#         320
BL51 BANKED LINKER/LOCATER V6.22.2.0                                                  12/09/2022  13:55:10  PAGE 94


  C:8D0AH         LINE#         321
  C:8D10H         LINE#         322
  C:8D13H         LINE#         326
  C:8D13H         LINE#         327
  C:8D13H         LINE#         328
  C:8D16H         LINE#         329
  C:8D1BH         LINE#         330
  C:8D20H         LINE#         331
  C:8D25H         LINE#         332
  -------         ENDPROC       _WRITE_RTC
  -------         PROC          WRITE_WIFI_RTC
  -------         DO            
  X:C173H         SYMBOL        rtcdata
  X:C17AH         SYMBOL        Rtc_Set
  -------         ENDDO         
  C:90F5H         LINE#         335
  C:90F5H         LINE#         336
  C:90F5H         LINE#         340
  C:910AH         LINE#         343
  C:9115H         LINE#         344
  C:9120H         LINE#         345
  C:912BH         LINE#         346
  C:9136H         LINE#         347
  C:9141H         LINE#         348
  C:914CH         LINE#         350
  C:915EH         LINE#         352
  C:915EH         LINE#         353
  C:915EH         LINE#         354
  C:915EH         LINE#         355
  C:915EH         LINE#         356
  C:915EH         LINE#         357
  C:915EH         LINE#         358
  C:915EH         LINE#         359
  C:915EH         LINE#         360
  C:915EH         LINE#         361
  C:915EH         LINE#         362
  C:915EH         LINE#         363
  C:915EH         LINE#         364
  C:915EH         LINE#         365
  C:915EH         LINE#         366
  C:9161H         LINE#         367
  C:9166H         LINE#         370
  C:916EH         LINE#         371
  C:9174H         LINE#         372
  C:917AH         LINE#         373
  C:9180H         LINE#         374
  C:9186H         LINE#         375
  C:918CH         LINE#         376
  C:918FH         LINE#         380
  C:918FH         LINE#         381
  C:918FH         LINE#         382
  C:9192H         LINE#         383
  C:9197H         LINE#         384
  C:919CH         LINE#         385
  C:91A1H         LINE#         386
  -------         ENDPROC       WRITE_WIFI_RTC
  -------         PROC          RTC_READ_AND_SET
BL51 BANKED LINKER/LOCATER V6.22.2.0                                                  12/09/2022  13:55:10  PAGE 95


  C:A533H         LINE#         390
  C:A533H         LINE#         391
  C:A533H         LINE#         392
  C:A536H         LINE#         393
  C:A536H         LINE#         394
  C:A538H         LINE#         395
  C:A53BH         LINE#         396
  C:A53BH         LINE#         397
  -------         ENDPROC       RTC_READ_AND_SET
  -------         ENDMOD        RTC

  -------         MODULE        MYMODBUS
  C:0000H         SYMBOL        _ICE_DUMMY_
  C:9FD4H         PUBLIC        _SendString
  X:C14AH         PUBLIC        Send_Buf
  X:C15EH         PUBLIC        ID
  C:96DAH         PUBLIC        _crc16
  C:6D68H         PUBLIC        auchCRCHi
  C:8D28H         PUBLIC        Send_ModBus_IP
  C:6E68H         PUBLIC        auchCRCLo
  C:8616H         PUBLIC        _Send_ModBus
  C:9B18H         PUBLIC        _Send_ModBus04_10
  C:9945H         PUBLIC        _Send_ModBus08_10
  X:C15FH         PUBLIC        CRC_C
  C:9D7BH         PUBLIC        _Send_ModBus_10
  -------         PROC          L?0020
  -------         ENDPROC       L?0020
  -------         PROC          _CRC16
  X:C139H         SYMBOL        puchMsg
  X:C13CH         SYMBOL        usDataLen
  -------         DO            
  X:C13DH         SYMBOL        uchCRCHi
  X:C13EH         SYMBOL        uchCRCLo
  X:C13FH         SYMBOL        uIndex
  -------         ENDDO         
  C:96DAH         LINE#         74
  C:96E8H         LINE#         75
  C:96E8H         LINE#         76
  C:96ECH         LINE#         77
  C:96EEH         LINE#         80
  C:96F8H         LINE#         81
  C:96F8H         LINE#         82
  C:971CH         LINE#         83
  C:9732H         LINE#         84
  C:973BH         LINE#         85
  C:973DH         LINE#         86
  C:9747H         LINE#         88
  -------         ENDPROC       _CRC16
  -------         PROC          _SENDSTRING
  X:C139H         SYMBOL        str
  X:C13CH         SYMBOL        len
  -------         DO            
  X:C13DH         SYMBOL        k
  -------         ENDDO         
  C:9FD4H         LINE#         94
  C:9FE2H         LINE#         95
  C:9FE2H         LINE#         96
BL51 BANKED LINKER/LOCATER V6.22.2.0                                                  12/09/2022  13:55:10  PAGE 96


  C:9FE7H         LINE#         98
  C:9FE7H         LINE#         99
  C:A004H         LINE#         100
  C:A012H         LINE#         101
  C:A01CH         LINE#         102
  -------         ENDPROC       _SENDSTRING
  -------         PROC          _SEND_MODBUS
  X:C131H         SYMBOL        CMD
  X:C132H         SYMBOL        Address
  X:C134H         SYMBOL        dat
  X:C136H         SYMBOL        count
  C:8616H         LINE#         107
  C:8629H         LINE#         108
  C:8629H         LINE#         110
  C:862FH         LINE#         112
  C:8642H         LINE#         113
  C:8642H         LINE#         114
  C:8642H         LINE#         115
  C:864AH         LINE#         116
  C:8652H         LINE#         117
  C:865FH         LINE#         118
  C:8662H         LINE#         119
  C:8665H         LINE#         120
  C:866CH         LINE#         122
  C:866CH         LINE#         123
  C:866CH         LINE#         124
  C:866CH         LINE#         125
  C:866CH         LINE#         126
  C:866EH         LINE#         127
  C:866EH         LINE#         128
  C:866EH         LINE#         129
  C:866EH         LINE#         130
  C:8676H         LINE#         131
  C:867EH         LINE#         132
  C:868BH         LINE#         133
  C:868EH         LINE#         134
  C:869BH         LINE#         135
  C:869EH         LINE#         137
  C:86B1H         LINE#         138
  C:86BEH         LINE#         139
  C:86BFH         LINE#         140
  C:86BFH         LINE#         141
  C:86C1H         LINE#         142
  C:86C1H         LINE#         143
  C:86C1H         LINE#         144
  C:86C1H         LINE#         145
  C:86C9H         LINE#         146
  C:86D1H         LINE#         147
  C:86DAH         LINE#         148
  C:86DCH         LINE#         149
  C:86E5H         LINE#         150
  C:86E7H         LINE#         152
  C:86FAH         LINE#         153
  C:86FEH         LINE#         154
  C:8700H         LINE#         156
  C:870BH         LINE#         157
  C:870BH         LINE#         158
BL51 BANKED LINKER/LOCATER V6.22.2.0                                                  12/09/2022  13:55:10  PAGE 97


  C:870BH         LINE#         159
  C:870BH         LINE#         161
  -------         ENDPROC       _SEND_MODBUS
  -------         PROC          _SEND_MODBUS_10
  D:0007H         SYMBOL        CMD
  D:0004H         SYMBOL        Address
  D:0002H         SYMBOL        Register_num
  X:C136H         SYMBOL        dat
  X:C138H         SYMBOL        count
  C:9D7BH         LINE#         163
  C:9D7BH         LINE#         164
  C:9D7BH         LINE#         166
  C:9D81H         LINE#         168
  C:9D85H         LINE#         169
  C:9D88H         LINE#         170
  C:9D8BH         LINE#         171
  C:9D8EH         LINE#         172
  C:9D91H         LINE#         173
  C:9D94H         LINE#         174
  C:9D9CH         LINE#         175
  C:9DA9H         LINE#         176
  C:9DACH         LINE#         178
  C:9DBFH         LINE#         179
  C:9DCCH         LINE#         180
  C:9DCFH         LINE#         181
  -------         ENDPROC       _SEND_MODBUS_10
  -------         PROC          _SEND_MODBUS04_10
  D:0007H         SYMBOL        CMD
  D:0004H         SYMBOL        Address
  D:0002H         SYMBOL        Register_num
  X:C1B9H         SYMBOL        datH
  X:C1BBH         SYMBOL        datL
  X:C1BDH         SYMBOL        count
  C:9B18H         LINE#         185
  C:9B18H         LINE#         186
  C:9B18H         LINE#         188
  C:9B1EH         LINE#         190
  C:9B22H         LINE#         191
  C:9B25H         LINE#         192
  C:9B28H         LINE#         193
  C:9B2BH         LINE#         194
  C:9B2EH         LINE#         195
  C:9B31H         LINE#         196
  C:9B39H         LINE#         197
  C:9B46H         LINE#         198
  C:9B49H         LINE#         199
  C:9B56H         LINE#         200
  C:9B59H         LINE#         202
  C:9B6CH         LINE#         203
  C:9B79H         LINE#         204
  C:9B7CH         LINE#         205
  -------         ENDPROC       _SEND_MODBUS04_10
  -------         PROC          SEND_MODBUS_IP
  C:8D28H         LINE#         210
  C:8D28H         LINE#         211
  C:8D28H         LINE#         212
  C:8D3DH         LINE#         213
BL51 BANKED LINKER/LOCATER V6.22.2.0                                                  12/09/2022  13:55:10  PAGE 98


  C:8D52H         LINE#         214
  C:8D67H         LINE#         215
  C:8D7CH         LINE#         217
  C:8D82H         LINE#         218
  C:8D86H         LINE#         219
  C:8D89H         LINE#         220
  C:8D8DH         LINE#         221
  C:8D90H         LINE#         222
  C:8D94H         LINE#         223
  C:8D98H         LINE#         224
  C:8DA5H         LINE#         225
  C:8DA8H         LINE#         226
  C:8DB5H         LINE#         227
  C:8DB8H         LINE#         228
  C:8DC5H         LINE#         229
  C:8DC8H         LINE#         230
  C:8DCBH         LINE#         231
  C:8DCBH         LINE#         233
  C:8DD6H         LINE#         234
  C:8DE3H         LINE#         235
  C:8DE6H         LINE#         236
  -------         ENDPROC       SEND_MODBUS_IP
  -------         PROC          _SEND_MODBUS08_10
  D:0007H         SYMBOL        CMD
  D:0004H         SYMBOL        Address
  D:0002H         SYMBOL        Register_num
  X:C187H         SYMBOL        datH
  X:C189H         SYMBOL        datL
  X:C18BH         SYMBOL        dat1H
  X:C18DH         SYMBOL        dat1L
  X:C18FH         SYMBOL        count
  C:9945H         LINE#         240
  C:9945H         LINE#         241
  C:9945H         LINE#         243
  C:994BH         LINE#         245
  C:994FH         LINE#         246
  C:9952H         LINE#         247
  C:9955H         LINE#         248
  C:9958H         LINE#         249
  C:995BH         LINE#         250
  C:995EH         LINE#         251
  C:9966H         LINE#         252
  C:9973H         LINE#         253
  C:9976H         LINE#         254
  C:9983H         LINE#         255
  C:9986H         LINE#         256
  C:9993H         LINE#         257
  C:9996H         LINE#         258
  C:9999H         LINE#         259
  C:9999H         LINE#         261
  C:99A4H         LINE#         262
  C:99B1H         LINE#         263
  C:99B4H         LINE#         264
  -------         ENDPROC       _SEND_MODBUS08_10
  -------         ENDMOD        MYMODBUS

  -------         MODULE        RECEIVEDATA
BL51 BANKED LINKER/LOCATER V6.22.2.0                                                  12/09/2022  13:55:10  PAGE 99


  C:0000H         SYMBOL        _ICE_DUMMY_
  C:0103H         PUBLIC        Receive_Modbus
  C:3489H         PUBLIC        _ALm_Init
  -------         PROC          RECEIVE_MODBUS
  -------         DO            
  X:C10FH         SYMBOL        iRxReadPt
  D:0006H         SYMBOL        RxHead_PC
  X:C111H         SYMBOL        Check_Nodbus
  X:C113H         SYMBOL        CheckNumber
  X:C115H         SYMBOL        i
  X:C116H         SYMBOL        Length
  X:C117H         SYMBOL        buf
  X:C123H         SYMBOL        RxCommon
  X:C125H         SYMBOL        Dat1
  X:C127H         SYMBOL        Dat2
  X:C129H         SYMBOL        Dat3
  X:C12BH         SYMBOL        Dat4
  X:C12DH         SYMBOL        Dat5
  X:C12FH         SYMBOL        Dat6
  D:0004H         SYMBOL        Addr
  -------         ENDDO         
  C:0103H         LINE#         10
  C:0103H         LINE#         11
  C:0103H         LINE#         31
  C:0124H         LINE#         32
  C:0124H         LINE#         33
  C:0133H         LINE#         35
  C:014CH         LINE#         37
  C:0150H         LINE#         38
  C:0150H         LINE#         40
  C:018EH         LINE#         41
  C:018EH         LINE#         42
  C:01B0H         LINE#         43
  C:01B2H         LINE#         45
  C:01B2H         LINE#         47
  C:01C0H         LINE#         48
  C:01C3H         LINE#         49
  C:01C3H         LINE#         51
  C:01C3H         LINE#         53
  C:01C3H         LINE#         55
  C:01D1H         LINE#         56
  C:01D4H         LINE#         57
  C:01D4H         LINE#         60
  C:01E3H         LINE#         61
  C:01EAH         LINE#         63
  C:0207H         LINE#         64
  C:0207H         LINE#         65
  C:0207H         LINE#         66
  C:0207H         LINE#         67
  C:0224H         LINE#         68
  C:0229H         LINE#         69
  C:0229H         LINE#         70
  C:022FH         LINE#         71
  C:022FH         LINE#         72
  C:0248H         LINE#         73
  C:0248H         LINE#         74
  C:0248H         LINE#         75
BL51 BANKED LINKER/LOCATER V6.22.2.0                                                  12/09/2022  13:55:10  PAGE 100


  C:0248H         LINE#         76
  C:0266H         LINE#         77
  C:0266H         LINE#         78
  C:0268H         LINE#         79
  C:0268H         LINE#         80
  C:026BH         LINE#         81
  C:026BH         LINE#         82
  C:0271H         LINE#         83
  C:027AH         LINE#         84
  C:0282H         LINE#         85
  C:029FH         LINE#         86
  C:02BCH         LINE#         88
  C:02FDH         LINE#         89
  C:031EH         LINE#         91
  C:0335H         LINE#         92
  C:0335H         LINE#         95
  C:0341H         LINE#         96
  C:0341H         LINE#         98
  C:0346H         LINE#         99
  C:035EH         LINE#         101
  C:0366H         LINE#         102
  C:0377H         LINE#         104
  C:037AH         LINE#         105
  C:037AH         LINE#         106
  C:0386H         LINE#         107
  C:0386H         LINE#         108
  C:0391H         LINE#         109
  C:0391H         LINE#         110
  C:0396H         LINE#         112
  C:0398H         LINE#         114
  C:03A0H         LINE#         115
  C:03B4H         LINE#         116
  C:03C9H         LINE#         119
  C:03D0H         LINE#         121
  C:03D0H         LINE#         122
  C:03D3H         LINE#         123
  C:03D3H         LINE#         125
  C:03E4H         LINE#         126
  C:03E4H         LINE#         127
  C:03ECH         LINE#         135
  C:03EEH         LINE#         136
  C:03EEH         LINE#         137
  C:03EEH         LINE#         138
  C:03EEH         LINE#         140
  C:03EEH         LINE#         141
  C:03EEH         LINE#         143
  C:03EEH         LINE#         144
  C:03EEH         LINE#         146
  C:03F1H         LINE#         147
  C:03F9H         LINE#         148
  C:03F9H         LINE#         150
  C:0403H         LINE#         151
  C:040BH         LINE#         152
  C:0420H         LINE#         153
  C:0435H         LINE#         154
  C:043DH         LINE#         155
  C:0446H         LINE#         157
BL51 BANKED LINKER/LOCATER V6.22.2.0                                                  12/09/2022  13:55:10  PAGE 101


  C:0449H         LINE#         158
  C:0451H         LINE#         159
  C:0451H         LINE#         161
  C:045BH         LINE#         162
  C:0463H         LINE#         163
  C:046AH         LINE#         164
  C:047EH         LINE#         165
  C:0493H         LINE#         166
  C:04A8H         LINE#         167
  C:04AFH         LINE#         168
  C:04B8H         LINE#         169
  C:04BAH         LINE#         170
  C:04C2H         LINE#         171
  C:04C2H         LINE#         172
  C:04CCH         LINE#         173
  C:04D4H         LINE#         174
  C:04E9H         LINE#         175
  C:04FEH         LINE#         178
  C:0505H         LINE#         179
  C:0519H         LINE#         180
  C:0519H         LINE#         183
  C:0520H         LINE#         184
  C:0527H         LINE#         185
  C:0528H         LINE#         186
  C:052BH         LINE#         187
  C:052BH         LINE#         190
  C:053AH         LINE#         191
  C:053AH         LINE#         192
  C:054FH         LINE#         193
  C:055FH         LINE#         195
  C:0565H         LINE#         196
  C:0565H         LINE#         197
  C:056BH         LINE#         198
  C:056FH         LINE#         199
  C:0573H         LINE#         200
  C:0577H         LINE#         201
  C:057BH         LINE#         202
  C:057FH         LINE#         203
  C:0583H         LINE#         205
  C:0597H         LINE#         206
  C:05ACH         LINE#         207
  C:05C1H         LINE#         208
  C:05D6H         LINE#         209
  C:05EBH         LINE#         210
  C:0600H         LINE#         211
  C:0615H         LINE#         213
  C:0617H         LINE#         215
  C:0617H         LINE#         216
  C:0622H         LINE#         217
  C:0622H         LINE#         220
  C:0629H         LINE#         221
  C:0631H         LINE#         222
  C:0633H         LINE#         223
  C:0636H         LINE#         225
  C:0636H         LINE#         228
  C:0647H         LINE#         229
  C:0647H         LINE#         230
BL51 BANKED LINKER/LOCATER V6.22.2.0                                                  12/09/2022  13:55:10  PAGE 102


  C:065CH         LINE#         232
  C:0669H         LINE#         233
  C:0669H         LINE#         234
  C:0669H         LINE#         235
  C:066FH         LINE#         236
  C:066FH         LINE#         238
  C:0675H         LINE#         239
  C:067CH         LINE#         240
  C:067CH         LINE#         241
  C:067FH         LINE#         242
  C:0682H         LINE#         243
  C:0682H         LINE#         245
  C:068CH         LINE#         246
  C:068CH         LINE#         247
  C:06A1H         LINE#         248
  C:06B0H         LINE#         249
  C:06C5H         LINE#         251
  C:06CCH         LINE#         252
  C:06CFH         LINE#         253
  C:06D2H         LINE#         254
  C:06D2H         LINE#         257
  C:06E0H         LINE#         258
  C:06E0H         LINE#         259
  C:06F5H         LINE#         260
  C:0704H         LINE#         261
  C:0719H         LINE#         263
  C:0720H         LINE#         264
  C:0723H         LINE#         265
  C:0726H         LINE#         266
  C:0726H         LINE#         269
  C:0734H         LINE#         270
  C:0734H         LINE#         271
  C:0749H         LINE#         272
  C:0758H         LINE#         273
  C:076DH         LINE#         275
  C:0774H         LINE#         276
  C:0777H         LINE#         277
  C:077AH         LINE#         279
  C:077AH         LINE#         282
  C:078BH         LINE#         283
  C:078BH         LINE#         284
  C:07A0H         LINE#         286
  C:07ABH         LINE#         287
  C:07ABH         LINE#         288
  C:07BBH         LINE#         289
  C:07BBH         LINE#         290
  C:07C2H         LINE#         291
  C:07C5H         LINE#         292
  C:07D6H         LINE#         293
  C:07D6H         LINE#         294
  C:07DEH         LINE#         295
  C:07E1H         LINE#         296
  C:07F2H         LINE#         297
  C:07F2H         LINE#         298
  C:07FBH         LINE#         299
  C:07FEH         LINE#         300
  C:080FH         LINE#         301
BL51 BANKED LINKER/LOCATER V6.22.2.0                                                  12/09/2022  13:55:10  PAGE 103


  C:080FH         LINE#         302
  C:0818H         LINE#         303
  C:081BH         LINE#         304
  C:082CH         LINE#         305
  C:082CH         LINE#         306
  C:0835H         LINE#         307
  C:0838H         LINE#         308
  C:0849H         LINE#         309
  C:0849H         LINE#         310
  C:0852H         LINE#         311
  C:0855H         LINE#         312
  C:0866H         LINE#         313
  C:0866H         LINE#         314
  C:086FH         LINE#         315
  C:0872H         LINE#         316
  C:0883H         LINE#         317
  C:0883H         LINE#         318
  C:088CH         LINE#         319
  C:088EH         LINE#         320
  C:089FH         LINE#         321
  C:089FH         LINE#         322
  C:08A8H         LINE#         323
  C:08AAH         LINE#         324
  C:08BBH         LINE#         325
  C:08BBH         LINE#         326
  C:08C4H         LINE#         327
  C:08C6H         LINE#         328
  C:08CFH         LINE#         329
  C:08CFH         LINE#         330
  C:08D8H         LINE#         331
  C:08D8H         LINE#         333
  C:08D8H         LINE#         334
  C:08DAH         LINE#         335
  C:08E0H         LINE#         336
  C:08E0H         LINE#         337
  C:08E6H         LINE#         338
  C:08EFH         LINE#         339
  C:08F1H         LINE#         340
  C:08F9H         LINE#         341
  C:08F9H         LINE#         342
  C:0901H         LINE#         343
  C:0916H         LINE#         344
  C:0916H         LINE#         345
  C:091DH         LINE#         346
  C:0925H         LINE#         347
  C:0928H         LINE#         348
  C:0928H         LINE#         351
  C:0936H         LINE#         352
  C:0936H         LINE#         353
  C:094BH         LINE#         354
  C:095BH         LINE#         356
  C:0968H         LINE#         357
  C:097FH         LINE#         359
  C:0994H         LINE#         360
  C:099CH         LINE#         363
  C:09A3H         LINE#         365
  C:09A6H         LINE#         366
BL51 BANKED LINKER/LOCATER V6.22.2.0                                                  12/09/2022  13:55:10  PAGE 104


  C:09A6H         LINE#         368
  C:09B2H         LINE#         369
  C:09B2H         LINE#         370
  C:09C7H         LINE#         372
  C:09DCH         LINE#         374
  C:09E4H         LINE#         375
  C:09E4H         LINE#         376
  C:09F0H         LINE#         377
  C:09F0H         LINE#         378
  C:0A05H         LINE#         380
  C:0A1AH         LINE#         382
  C:0A23H         LINE#         383
  C:0A23H         LINE#         384
  C:0A2FH         LINE#         385
  C:0A2FH         LINE#         386
  C:0A44H         LINE#         388
  C:0A59H         LINE#         390
  C:0A62H         LINE#         391
  C:0A62H         LINE#         392
  C:0A6EH         LINE#         393
  C:0A6EH         LINE#         394
  C:0A83H         LINE#         396
  C:0A98H         LINE#         398
  C:0AA1H         LINE#         399
  C:0AA1H         LINE#         400
  C:0AADH         LINE#         401
  C:0AADH         LINE#         402
  C:0AC2H         LINE#         404
  C:0AD7H         LINE#         406
  C:0AE0H         LINE#         407
  C:0AE0H         LINE#         408
  C:0AECH         LINE#         409
  C:0AECH         LINE#         410
  C:0B01H         LINE#         412
  C:0B16H         LINE#         414
  C:0B1FH         LINE#         415
  C:0B1FH         LINE#         417
  C:0B1FH         LINE#         418
  C:0B35H         LINE#         419
  C:0B35H         LINE#         420
  C:0B41H         LINE#         421
  C:0B49H         LINE#         423
  C:0B49H         LINE#         425
  C:0B49H         LINE#         426
  C:0B49H         LINE#         427
  C:0B67H         LINE#         428
  C:0B67H         LINE#         429
  C:0B69H         LINE#         430
  C:0B69H         LINE#         431
  C:0B6CH         LINE#         432
  C:0B6CH         LINE#         433
  C:0B72H         LINE#         434
  C:0B7BH         LINE#         435
  C:0B83H         LINE#         436
  C:0BA0H         LINE#         437
  C:0BBDH         LINE#         438
  C:0BDAH         LINE#         439
BL51 BANKED LINKER/LOCATER V6.22.2.0                                                  12/09/2022  13:55:10  PAGE 105


  C:0BF7H         LINE#         441
  C:0C38H         LINE#         442
  C:0C59H         LINE#         445
  C:0C70H         LINE#         446
  C:0C70H         LINE#         449
  C:0C7EH         LINE#         450
  C:0C7EH         LINE#         451
  C:0C93H         LINE#         452
  C:0CA6H         LINE#         454
  C:0CBBH         LINE#         455
  C:0CD0H         LINE#         457
  C:0CD7H         LINE#         458
  C:0CDFH         LINE#         459
  C:0CE0H         LINE#         460
  C:0CE3H         LINE#         461
  C:0CE3H         LINE#         464
  C:0CF1H         LINE#         465
  C:0CF1H         LINE#         466
  C:0D06H         LINE#         467
  C:0D19H         LINE#         469
  C:0D2EH         LINE#         470
  C:0D43H         LINE#         472
  C:0D4AH         LINE#         473
  C:0D52H         LINE#         474
  C:0D53H         LINE#         475
  C:0D56H         LINE#         476
  C:0D56H         LINE#         479
  C:0D64H         LINE#         480
  C:0D64H         LINE#         481
  C:0D79H         LINE#         482
  C:0D8CH         LINE#         484
  C:0DA1H         LINE#         485
  C:0DB6H         LINE#         487
  C:0DBDH         LINE#         488
  C:0DC5H         LINE#         489
  C:0DC6H         LINE#         490
  C:0DC9H         LINE#         492
  C:0DC9H         LINE#         495
  C:0DD7H         LINE#         496
  C:0DD7H         LINE#         497
  C:0DECH         LINE#         498
  C:0DFFH         LINE#         500
  C:0E14H         LINE#         501
  C:0E29H         LINE#         503
  C:0E30H         LINE#         504
  C:0E38H         LINE#         505
  C:0E3FH         LINE#         507
  C:0E3FH         LINE#         510
  C:0E4BH         LINE#         511
  C:0E4BH         LINE#         512
  C:0E60H         LINE#         513
  C:0E73H         LINE#         515
  C:0E88H         LINE#         516
  C:0E9DH         LINE#         518
  C:0EA5H         LINE#         519
  C:0EA8H         LINE#         520
  C:0EA8H         LINE#         523
BL51 BANKED LINKER/LOCATER V6.22.2.0                                                  12/09/2022  13:55:10  PAGE 106


  C:0EB9H         LINE#         524
  C:0EB9H         LINE#         525
  C:0ECEH         LINE#         526
  C:0EE3H         LINE#         528
  C:0F03H         LINE#         530
  C:0F1EH         LINE#         531
  C:0F3DH         LINE#         532
  C:0F5CH         LINE#         533
  C:0F72H         LINE#         537
  C:0F87H         LINE#         538
  C:0F9CH         LINE#         539
  C:0FB1H         LINE#         540
  C:0FC6H         LINE#         542
  C:0FCFH         LINE#         544
  C:0FD2H         LINE#         545
  C:0FD2H         LINE#         548
  C:0FE3H         LINE#         549
  C:0FE3H         LINE#         550
  C:0FF8H         LINE#         551
  C:100DH         LINE#         553
  C:102DH         LINE#         555
  C:1048H         LINE#         556
  C:1067H         LINE#         557
  C:1086H         LINE#         558
  C:109CH         LINE#         560
  C:10B1H         LINE#         561
  C:10C6H         LINE#         562
  C:10DBH         LINE#         563
  C:10F0H         LINE#         565
  C:10F9H         LINE#         567
  C:10FCH         LINE#         568
  C:10FCH         LINE#         571
  C:110DH         LINE#         572
  C:110DH         LINE#         573
  C:1122H         LINE#         574
  C:1137H         LINE#         576
  C:1157H         LINE#         578
  C:1172H         LINE#         579
  C:1191H         LINE#         580
  C:11B0H         LINE#         581
  C:11C6H         LINE#         584
  C:11DBH         LINE#         585
  C:11F0H         LINE#         586
  C:1205H         LINE#         587
  C:121AH         LINE#         589
  C:1223H         LINE#         591
  C:1226H         LINE#         592
  C:1226H         LINE#         595
  C:1237H         LINE#         596
  C:1237H         LINE#         597
  C:124CH         LINE#         598
  C:1261H         LINE#         600
  C:1281H         LINE#         602
  C:129CH         LINE#         603
  C:12BBH         LINE#         604
  C:12DAH         LINE#         605
  C:12F0H         LINE#         607
BL51 BANKED LINKER/LOCATER V6.22.2.0                                                  12/09/2022  13:55:10  PAGE 107


  C:1305H         LINE#         608
  C:131AH         LINE#         609
  C:132FH         LINE#         610
  C:1344H         LINE#         612
  C:134DH         LINE#         614
  C:1350H         LINE#         615
  C:1350H         LINE#         618
  C:135EH         LINE#         619
  C:135EH         LINE#         620
  C:1373H         LINE#         621
  C:1386H         LINE#         623
  C:139BH         LINE#         624
  C:13B0H         LINE#         626
  C:13B4H         LINE#         628
  C:13B7H         LINE#         629
  C:13B7H         LINE#         632
  C:13C5H         LINE#         633
  C:13C5H         LINE#         634
  C:13DAH         LINE#         635
  C:13EDH         LINE#         637
  C:1402H         LINE#         638
  C:1417H         LINE#         640
  C:1420H         LINE#         642
  C:1423H         LINE#         643
  C:1423H         LINE#         646
  C:1431H         LINE#         647
  C:1431H         LINE#         648
  C:1446H         LINE#         649
  C:1459H         LINE#         651
  C:146EH         LINE#         652
  C:1483H         LINE#         654
  C:148CH         LINE#         656
  C:148FH         LINE#         657
  C:148FH         LINE#         658
  C:148FH         LINE#         659
  C:14A5H         LINE#         660
  C:14A5H         LINE#         661
  C:14B1H         LINE#         662
  C:14B9H         LINE#         664
  C:14B9H         LINE#         666
  C:14B9H         LINE#         667
  C:14B9H         LINE#         668
  C:14D7H         LINE#         669
  C:14D7H         LINE#         670
  C:14DEH         LINE#         671
  C:14DEH         LINE#         672
  C:14E1H         LINE#         673
  C:14E1H         LINE#         674
  C:14E7H         LINE#         675
  C:14F0H         LINE#         676
  C:14F8H         LINE#         677
  C:1515H         LINE#         678
  C:1532H         LINE#         679
  C:154FH         LINE#         680
  C:156CH         LINE#         681
  C:1589H         LINE#         682
  C:15A6H         LINE#         683
BL51 BANKED LINKER/LOCATER V6.22.2.0                                                  12/09/2022  13:55:10  PAGE 108


  C:15C3H         LINE#         684
  C:15E0H         LINE#         686
  C:1621H         LINE#         687
  C:1642H         LINE#         689
  C:1659H         LINE#         690
  C:1659H         LINE#         693
  C:166AH         LINE#         694
  C:166AH         LINE#         695
  C:167FH         LINE#         696
  C:1692H         LINE#         697
  C:16A5H         LINE#         698
  C:16B8H         LINE#         700
  C:16CDH         LINE#         701
  C:16E2H         LINE#         702
  C:16F7H         LINE#         703
  C:170CH         LINE#         705
  C:1713H         LINE#         706
  C:171BH         LINE#         708
  C:171EH         LINE#         709
  C:171EH         LINE#         713
  C:172FH         LINE#         714
  C:172FH         LINE#         715
  C:1744H         LINE#         716
  C:1757H         LINE#         717
  C:176AH         LINE#         718
  C:177DH         LINE#         720
  C:1792H         LINE#         721
  C:17A7H         LINE#         722
  C:17BCH         LINE#         723
  C:17D1H         LINE#         725
  C:17D4H         LINE#         726
  C:17D4H         LINE#         729
  C:17E5H         LINE#         730
  C:17E5H         LINE#         731
  C:17FAH         LINE#         732
  C:180DH         LINE#         733
  C:1820H         LINE#         734
  C:1833H         LINE#         736
  C:1848H         LINE#         737
  C:185DH         LINE#         738
  C:1872H         LINE#         739
  C:1887H         LINE#         741
  C:188FH         LINE#         742
  C:188FH         LINE#         744
  C:1892H         LINE#         745
  C:1892H         LINE#         748
  C:18A3H         LINE#         749
  C:18A3H         LINE#         750
  C:18B8H         LINE#         751
  C:18CBH         LINE#         752
  C:18DEH         LINE#         753
  C:18F1H         LINE#         755
  C:1906H         LINE#         756
  C:191BH         LINE#         757
  C:1930H         LINE#         758
  C:1945H         LINE#         760
  C:194DH         LINE#         761
BL51 BANKED LINKER/LOCATER V6.22.2.0                                                  12/09/2022  13:55:10  PAGE 109


  C:194DH         LINE#         763
  C:1950H         LINE#         764
  C:1950H         LINE#         767
  C:1961H         LINE#         768
  C:1961H         LINE#         769
  C:1976H         LINE#         770
  C:1989H         LINE#         771
  C:199CH         LINE#         772
  C:19AFH         LINE#         774
  C:19C4H         LINE#         775
  C:19D9H         LINE#         776
  C:19EEH         LINE#         777
  C:1A03H         LINE#         779
  C:1A0BH         LINE#         780
  C:1A0BH         LINE#         782
  C:1A0EH         LINE#         783
  C:1A0EH         LINE#         786
  C:1A1FH         LINE#         787
  C:1A1FH         LINE#         788
  C:1A34H         LINE#         789
  C:1A47H         LINE#         790
  C:1A5AH         LINE#         791
  C:1A6DH         LINE#         793
  C:1A82H         LINE#         794
  C:1A97H         LINE#         795
  C:1AACH         LINE#         796
  C:1AC1H         LINE#         798
  C:1AC9H         LINE#         799
  C:1AC9H         LINE#         801
  C:1ACCH         LINE#         802
  C:1ACCH         LINE#         805
  C:1ADDH         LINE#         806
  C:1ADDH         LINE#         807
  C:1AF2H         LINE#         808
  C:1B05H         LINE#         809
  C:1B18H         LINE#         810
  C:1B2BH         LINE#         812
  C:1B40H         LINE#         813
  C:1B55H         LINE#         814
  C:1B6AH         LINE#         815
  C:1B7FH         LINE#         817
  C:1B87H         LINE#         818
  C:1B87H         LINE#         820
  C:1B8AH         LINE#         821
  C:1B8AH         LINE#         824
  C:1B9BH         LINE#         825
  C:1B9BH         LINE#         826
  C:1BB0H         LINE#         827
  C:1BC3H         LINE#         828
  C:1BD6H         LINE#         829
  C:1BE9H         LINE#         831
  C:1BFEH         LINE#         832
  C:1C13H         LINE#         833
  C:1C28H         LINE#         834
  C:1C3DH         LINE#         836
  C:1C45H         LINE#         837
  C:1C45H         LINE#         839
BL51 BANKED LINKER/LOCATER V6.22.2.0                                                  12/09/2022  13:55:10  PAGE 110


  C:1C48H         LINE#         840
  C:1C48H         LINE#         843
  C:1C59H         LINE#         844
  C:1C59H         LINE#         845
  C:1C6EH         LINE#         846
  C:1C81H         LINE#         847
  C:1C94H         LINE#         848
  C:1CA7H         LINE#         850
  C:1CBCH         LINE#         851
  C:1CD1H         LINE#         852
  C:1CE6H         LINE#         853
  C:1CFBH         LINE#         855
  C:1D03H         LINE#         856
  C:1D03H         LINE#         858
  C:1D06H         LINE#         859
  C:1D06H         LINE#         862
  C:1D17H         LINE#         863
  C:1D17H         LINE#         864
  C:1D2CH         LINE#         865
  C:1D3FH         LINE#         866
  C:1D52H         LINE#         867
  C:1D65H         LINE#         869
  C:1D7AH         LINE#         870
  C:1D8FH         LINE#         871
  C:1DA4H         LINE#         872
  C:1DB9H         LINE#         874
  C:1DC1H         LINE#         875
  C:1DC1H         LINE#         877
  C:1DC4H         LINE#         878
  C:1DC4H         LINE#         881
  C:1DD5H         LINE#         882
  C:1DD5H         LINE#         883
  C:1DEAH         LINE#         884
  C:1DFDH         LINE#         885
  C:1E10H         LINE#         886
  C:1E23H         LINE#         888
  C:1E38H         LINE#         889
  C:1E4DH         LINE#         890
  C:1E62H         LINE#         891
  C:1E77H         LINE#         893
  C:1E80H         LINE#         894
  C:1E87H         LINE#         896
  C:1E8AH         LINE#         897
  C:1E8AH         LINE#         898
  C:1E8AH         LINE#         899
  C:1EA0H         LINE#         900
  C:1EA0H         LINE#         901
  C:1EACH         LINE#         902
  C:1EB4H         LINE#         904
  C:1EB4H         LINE#         906
  C:1EB4H         LINE#         907
  C:1EB4H         LINE#         909
  C:1EB4H         LINE#         910
  C:1EB4H         LINE#         912
  C:1EF1H         LINE#         913
  C:1EFEH         LINE#         914
  C:1EFEH         LINE#         916
BL51 BANKED LINKER/LOCATER V6.22.2.0                                                  12/09/2022  13:55:10  PAGE 111


  C:1EFEH         LINE#         917
  C:1EFEH         LINE#         918
  C:1F1CH         LINE#         919
  C:1F1CH         LINE#         920
  C:1F2AH         LINE#         921
  C:1F2DH         LINE#         922
  C:1F2DH         LINE#         923
  C:1F33H         LINE#         924
  C:1F3CH         LINE#         925
  C:1F4AH         LINE#         926
  C:1F5DH         LINE#         927
  C:1F7AH         LINE#         928
  C:1F97H         LINE#         930
  C:1FD8H         LINE#         931
  C:1FF9H         LINE#         935
  C:1FF9H         LINE#         936
  C:1FF9H         LINE#         939
  C:1FF9H         LINE#         941
  C:200AH         LINE#         942
  C:200AH         LINE#         943
  C:2016H         LINE#         944
  C:201EH         LINE#         946
  C:201EH         LINE#         947
  C:201EH         LINE#         950
  C:201EH         LINE#         952
  C:201EH         LINE#         955
  C:202DH         LINE#         956
  C:2030H         LINE#         957
  -------         ENDPROC       RECEIVE_MODBUS
  -------         PROC          _ALM_INIT
  D:0006H         SYMBOL        Dat1
  C:3489H         LINE#         960
  C:3489H         LINE#         961
  C:3489H         LINE#         962
  C:348DH         LINE#         963
  C:348DH         LINE#         964
  C:349AH         LINE#         965
  C:349AH         LINE#         966
  C:34A1H         LINE#         967
  C:34A9H         LINE#         968
  C:34B1H         LINE#         969
  C:34B9H         LINE#         970
  C:34C1H         LINE#         971
  C:34C6H         LINE#         972
  C:34C6H         LINE#         973
  C:34C9H         LINE#         975
  C:34C9H         LINE#         976
  C:34D0H         LINE#         977
  C:34D8H         LINE#         978
  C:34E0H         LINE#         979
  C:34E8H         LINE#         980
  C:34F0H         LINE#         981
  C:34F8H         LINE#         982
  C:34F9H         LINE#         983
  C:34F9H         LINE#         985
  C:34FCH         LINE#         986
  C:3500H         LINE#         987
BL51 BANKED LINKER/LOCATER V6.22.2.0                                                  12/09/2022  13:55:10  PAGE 112


  C:3500H         LINE#         988
  C:350DH         LINE#         989
  C:350DH         LINE#         990
  C:3514H         LINE#         991
  C:351CH         LINE#         992
  C:3524H         LINE#         993
  C:352CH         LINE#         994
  C:3534H         LINE#         995
  C:3539H         LINE#         996
  C:3539H         LINE#         997
  C:353BH         LINE#         999
  C:353BH         LINE#         1001
  C:3542H         LINE#         1002
  C:354AH         LINE#         1003
  C:3552H         LINE#         1004
  C:355AH         LINE#         1005
  C:3562H         LINE#         1006
  C:356AH         LINE#         1007
  C:356BH         LINE#         1008
  C:356BH         LINE#         1010
  C:356EH         LINE#         1011
  C:3572H         LINE#         1012
  C:3572H         LINE#         1013
  C:357FH         LINE#         1014
  C:357FH         LINE#         1015
  C:3586H         LINE#         1016
  C:358EH         LINE#         1017
  C:3596H         LINE#         1018
  C:359EH         LINE#         1019
  C:35A6H         LINE#         1020
  C:35ABH         LINE#         1021
  C:35ABH         LINE#         1022
  C:35ADH         LINE#         1024
  C:35ADH         LINE#         1025
  C:35B4H         LINE#         1026
  C:35BCH         LINE#         1027
  C:35C4H         LINE#         1028
  C:35CCH         LINE#         1029
  C:35D4H         LINE#         1030
  C:35DCH         LINE#         1031
  C:35DDH         LINE#         1032
  C:35DDH         LINE#         1034
  C:35E0H         LINE#         1035
  C:35E4H         LINE#         1036
  C:35E4H         LINE#         1037
  C:35F1H         LINE#         1038
  C:35F1H         LINE#         1039
  C:35F8H         LINE#         1040
  C:3600H         LINE#         1041
  C:3608H         LINE#         1042
  C:3610H         LINE#         1043
  C:3618H         LINE#         1044
  C:361DH         LINE#         1045
  C:361DH         LINE#         1046
  C:361FH         LINE#         1048
  C:361FH         LINE#         1049
  C:3626H         LINE#         1050
BL51 BANKED LINKER/LOCATER V6.22.2.0                                                  12/09/2022  13:55:10  PAGE 113


  C:362EH         LINE#         1051
  C:3636H         LINE#         1052
  C:363EH         LINE#         1053
  C:3646H         LINE#         1054
  C:364EH         LINE#         1055
  C:364FH         LINE#         1056
  C:364FH         LINE#         1058
  C:3652H         LINE#         1059
  C:3656H         LINE#         1060
  C:3656H         LINE#         1061
  C:3663H         LINE#         1062
  C:3663H         LINE#         1063
  C:366AH         LINE#         1064
  C:3672H         LINE#         1065
  C:367AH         LINE#         1066
  C:3682H         LINE#         1067
  C:3688H         LINE#         1068
  C:368CH         LINE#         1069
  C:368CH         LINE#         1070
  C:368EH         LINE#         1072
  C:368EH         LINE#         1073
  C:3695H         LINE#         1074
  C:369DH         LINE#         1075
  C:36A5H         LINE#         1076
  C:36ACH         LINE#         1077
  C:36B4H         LINE#         1078
  C:36BBH         LINE#         1079
  C:36BBH         LINE#         1080
  C:36BBH         LINE#         1094
  C:36BEH         LINE#         1095
  C:36C2H         LINE#         1096
  C:36C2H         LINE#         1097
  C:36CFH         LINE#         1098
  C:36CFH         LINE#         1099
  C:36D6H         LINE#         1100
  C:36DEH         LINE#         1101
  C:36E6H         LINE#         1102
  C:36EEH         LINE#         1103
  C:36F4H         LINE#         1104
  C:36F8H         LINE#         1105
  C:36F8H         LINE#         1106
  C:36FAH         LINE#         1108
  C:36FAH         LINE#         1109
  C:3701H         LINE#         1110
  C:3709H         LINE#         1111
  C:3711H         LINE#         1112
  C:3718H         LINE#         1113
  C:3720H         LINE#         1114
  C:3727H         LINE#         1115
  C:3727H         LINE#         1116
  C:3727H         LINE#         1128
  C:372AH         LINE#         1129
  C:372EH         LINE#         1130
  C:372EH         LINE#         1131
  C:373BH         LINE#         1132
  C:373BH         LINE#         1133
  C:3742H         LINE#         1134
BL51 BANKED LINKER/LOCATER V6.22.2.0                                                  12/09/2022  13:55:10  PAGE 114


  C:374AH         LINE#         1135
  C:3752H         LINE#         1136
  C:375AH         LINE#         1137
  C:3762H         LINE#         1138
  C:3766H         LINE#         1139
  C:3766H         LINE#         1140
  C:3768H         LINE#         1142
  C:3768H         LINE#         1143
  C:376FH         LINE#         1144
  C:3777H         LINE#         1145
  C:377FH         LINE#         1146
  C:3787H         LINE#         1147
  C:378EH         LINE#         1148
  C:3795H         LINE#         1149
  C:3795H         LINE#         1150
  C:3795H         LINE#         1164
  C:3798H         LINE#         1165
  C:379CH         LINE#         1166
  C:379CH         LINE#         1167
  C:37A9H         LINE#         1168
  C:37A9H         LINE#         1169
  C:37B0H         LINE#         1170
  C:37B8H         LINE#         1171
  C:37C0H         LINE#         1172
  C:37C8H         LINE#         1173
  C:37D0H         LINE#         1174
  C:37D4H         LINE#         1175
  C:37D4H         LINE#         1176
  C:37D6H         LINE#         1178
  C:37D6H         LINE#         1179
  C:37DDH         LINE#         1180
  C:37E5H         LINE#         1181
  C:37EDH         LINE#         1182
  C:37F5H         LINE#         1183
  C:37FDH         LINE#         1184
  C:3804H         LINE#         1185
  C:3804H         LINE#         1186
  C:3804H         LINE#         1188
  C:3807H         LINE#         1189
  C:380BH         LINE#         1190
  C:380BH         LINE#         1191
  C:3818H         LINE#         1192
  C:3818H         LINE#         1193
  C:381FH         LINE#         1194
  C:3827H         LINE#         1195
  C:382FH         LINE#         1196
  C:3837H         LINE#         1197
  C:383EH         LINE#         1198
  C:383EH         LINE#         1199
  C:383EH         LINE#         1200
  C:3840H         LINE#         1202
  C:3840H         LINE#         1203
  C:3847H         LINE#         1204
  C:384FH         LINE#         1205
  C:3857H         LINE#         1206
  C:385FH         LINE#         1207
  C:3867H         LINE#         1208
BL51 BANKED LINKER/LOCATER V6.22.2.0                                                  12/09/2022  13:55:10  PAGE 115


  C:386CH         LINE#         1209
  C:386CH         LINE#         1210
  C:386CH         LINE#         1212
  C:386FH         LINE#         1213
  C:3873H         LINE#         1214
  C:3873H         LINE#         1215
  C:3880H         LINE#         1216
  C:3880H         LINE#         1217
  C:3887H         LINE#         1218
  C:388FH         LINE#         1219
  C:3897H         LINE#         1220
  C:389FH         LINE#         1221
  C:38A4H         LINE#         1222
  C:38A4H         LINE#         1223
  C:38A4H         LINE#         1224
  C:38A6H         LINE#         1226
  C:38A6H         LINE#         1227
  C:38ADH         LINE#         1228
  C:38B4H         LINE#         1229
  C:38BCH         LINE#         1230
  C:38C4H         LINE#         1231
  C:38CCH         LINE#         1232
  C:38D1H         LINE#         1233
  C:38D1H         LINE#         1234
  C:38D1H         LINE#         1236
  C:38D4H         LINE#         1237
  C:38D8H         LINE#         1238
  C:38D8H         LINE#         1239
  C:38E5H         LINE#         1240
  C:38E5H         LINE#         1241
  C:38ECH         LINE#         1242
  C:38F4H         LINE#         1243
  C:38FCH         LINE#         1244
  C:3904H         LINE#         1245
  C:3909H         LINE#         1246
  C:390CH         LINE#         1247
  C:390CH         LINE#         1248
  C:390EH         LINE#         1250
  C:390EH         LINE#         1251
  C:3915H         LINE#         1252
  C:391DH         LINE#         1253
  C:3925H         LINE#         1254
  C:392DH         LINE#         1255
  C:3935H         LINE#         1256
  C:393CH         LINE#         1257
  C:393CH         LINE#         1258
  C:393CH         LINE#         1260
  C:393FH         LINE#         1261
  C:3943H         LINE#         1262
  C:3943H         LINE#         1263
  C:3950H         LINE#         1264
  C:3950H         LINE#         1265
  C:3957H         LINE#         1266
  C:395FH         LINE#         1267
  C:3967H         LINE#         1268
  C:396FH         LINE#         1269
  C:3974H         LINE#         1270
BL51 BANKED LINKER/LOCATER V6.22.2.0                                                  12/09/2022  13:55:10  PAGE 116


  C:3974H         LINE#         1271
  C:3974H         LINE#         1272
  C:3976H         LINE#         1274
  C:3976H         LINE#         1275
  C:397DH         LINE#         1276
  C:3985H         LINE#         1277
  C:398CH         LINE#         1278
  C:3994H         LINE#         1279
  C:399CH         LINE#         1280
  C:39A1H         LINE#         1281
  C:39A1H         LINE#         1282
  C:39A1H         LINE#         1284
  C:39A4H         LINE#         1285
  C:39A8H         LINE#         1286
  C:39A8H         LINE#         1287
  C:39B5H         LINE#         1288
  C:39B5H         LINE#         1289
  C:39BBH         LINE#         1290
  C:39C3H         LINE#         1291
  C:39CBH         LINE#         1292
  C:39D3H         LINE#         1293
  C:39D9H         LINE#         1294
  C:39DDH         LINE#         1295
  C:39DDH         LINE#         1296
  C:39DFH         LINE#         1298
  C:39DFH         LINE#         1299
  C:39E5H         LINE#         1300
  C:39EDH         LINE#         1301
  C:39F5H         LINE#         1302
  C:39FCH         LINE#         1303
  C:3A04H         LINE#         1304
  C:3A0BH         LINE#         1305
  C:3A0BH         LINE#         1306
  C:3A0BH         LINE#         1308
  C:3A0EH         LINE#         1309
  C:3A12H         LINE#         1310
  C:3A12H         LINE#         1311
  C:3A1FH         LINE#         1312
  C:3A1FH         LINE#         1313
  C:3A21H         LINE#         1314
  C:3A21H         LINE#         1315
  C:3A21H         LINE#         1316
  C:3A21H         LINE#         1317
  C:3A21H         LINE#         1318
  C:3A21H         LINE#         1319
  C:3A21H         LINE#         1320
  C:3A23H         LINE#         1322
  C:3A23H         LINE#         1323
  C:3A2AH         LINE#         1324
  C:3A31H         LINE#         1325
  C:3A39H         LINE#         1326
  C:3A41H         LINE#         1327
  C:3A47H         LINE#         1328
  C:3A4EH         LINE#         1329
  C:3A4FH         LINE#         1330
  C:3A4FH         LINE#         1332
  C:3A51H         LINE#         1333
BL51 BANKED LINKER/LOCATER V6.22.2.0                                                  12/09/2022  13:55:10  PAGE 117


  C:3A55H         LINE#         1334
  C:3A55H         LINE#         1335
  C:3A62H         LINE#         1336
  C:3A62H         LINE#         1337
  C:3A68H         LINE#         1338
  C:3A68H         LINE#         1339
  C:3A68H         LINE#         1340
  C:3A68H         LINE#         1341
  C:3A68H         LINE#         1342
  C:3A68H         LINE#         1343
  C:3A68H         LINE#         1344
  C:3A6AH         LINE#         1346
  C:3A6AH         LINE#         1347
  C:3A71H         LINE#         1348
  C:3A78H         LINE#         1349
  C:3A80H         LINE#         1350
  C:3A88H         LINE#         1351
  C:3A8EH         LINE#         1352
  C:3A95H         LINE#         1353
  C:3A9AH         LINE#         1354
  C:3A9AH         LINE#         1356
  C:3A9CH         LINE#         1357
  C:3AA0H         LINE#         1358
  C:3AA0H         LINE#         1359
  C:3AADH         LINE#         1360
  C:3AADH         LINE#         1361
  C:3AB3H         LINE#         1362
  C:3ABAH         LINE#         1363
  C:3AC2H         LINE#         1364
  C:3ACAH         LINE#         1365
  C:3AD2H         LINE#         1366
  C:3ADAH         LINE#         1367
  C:3AE2H         LINE#         1368
  C:3AE4H         LINE#         1370
  C:3AE4H         LINE#         1371
  C:3AEAH         LINE#         1372
  C:3AF2H         LINE#         1373
  C:3AF9H         LINE#         1374
  C:3B01H         LINE#         1375
  C:3B09H         LINE#         1376
  C:3B0EH         LINE#         1377
  C:3B15H         LINE#         1378
  C:3B15H         LINE#         1380
  C:3B15H         LINE#         1382
  C:3B2AH         LINE#         1383
  C:3B3FH         LINE#         1384
  C:3B54H         LINE#         1385
  C:3B69H         LINE#         1386
  C:3B7EH         LINE#         1387
  C:3B93H         LINE#         1388
  C:3BA8H         LINE#         1390
  C:3BAFH         LINE#         1391
  -------         ENDPROC       _ALM_INIT
  -------         ENDMOD        RECEIVEDATA

  -------         MODULE        VARS
  C:0000H         SYMBOL        _ICE_DUMMY_
BL51 BANKED LINKER/LOCATER V6.22.2.0                                                  12/09/2022  13:55:10  PAGE 118


  X:BF47H         PUBLIC        gCtrlPara
  X:C043H         PUBLIC        TP_Status_Old
  X:C04BH         PUBLIC        Contorlcount
  C:66B8H         PUBLIC        Vars_Initialize
  X:C04DH         PUBLIC        TP_Status_New
  X:C055H         PUBLIC        HOST_Addr
  X:C057H         PUBLIC        gTime1
  X:C059H         PUBLIC        gTime2
  X:C05BH         PUBLIC        gTime3
  X:C05DH         PUBLIC        gTime4
  X:C05FH         PUBLIC        gTime5
  X:C061H         PUBLIC        gTime6
  X:C063H         PUBLIC        gTime7
  X:C065H         PUBLIC        gTime8
  X:C067H         PUBLIC        gTime9
  X:C069H         PUBLIC        Read_StatusFlag
  X:C06BH         PUBLIC        HMI_VERSION
  X:C074H         PUBLIC        gTime
  -------         PROC          VARS_INITIALIZE
  C:66B8H         LINE#         31
  C:66B8H         LINE#         32
  C:66B8H         LINE#         34
  C:66BFH         LINE#         35
  C:66C5H         LINE#         36
  C:66CBH         LINE#         37
  C:66CFH         LINE#         39
  C:66D3H         LINE#         40
  C:66DAH         LINE#         41
  C:66DFH         LINE#         43
  C:66E5H         LINE#         44
  C:66EDH         LINE#         47
  C:66F4H         LINE#         48
  C:66F8H         LINE#         50
  C:6700H         LINE#         51
  C:670AH         LINE#         52
  C:6711H         LINE#         53
  C:6715H         LINE#         55
  C:671BH         LINE#         56
  C:6721H         LINE#         57
  C:6725H         LINE#         58
  C:6729H         LINE#         59
  C:672DH         LINE#         60
  C:6731H         LINE#         61
  C:6735H         LINE#         62
  C:6739H         LINE#         63
  C:673DH         LINE#         64
  C:6741H         LINE#         66
  C:6747H         LINE#         67
  C:674BH         LINE#         69
  C:6750H         LINE#         70
  C:6752H         LINE#         71
  C:6754H         LINE#         72
  C:6756H         LINE#         73
  C:6758H         LINE#         75
  C:675AH         LINE#         77
  C:675EH         LINE#         78
  C:6762H         LINE#         79
BL51 BANKED LINKER/LOCATER V6.22.2.0                                                  12/09/2022  13:55:10  PAGE 119


  C:6764H         LINE#         80
  C:6768H         LINE#         81
  C:676AH         LINE#         83
  C:676FH         LINE#         84
  C:6773H         LINE#         85
  C:6777H         LINE#         86
  C:677BH         LINE#         87
  C:677FH         LINE#         88
  C:6783H         LINE#         89
  C:6787H         LINE#         91
  C:678BH         LINE#         92
  C:6791H         LINE#         94
  C:6797H         LINE#         95
  C:679BH         LINE#         96
  C:679FH         LINE#         98
  C:67A3H         LINE#         99
  C:67A7H         LINE#         100
  C:67ADH         LINE#         102
  C:67B3H         LINE#         103
  C:67B7H         LINE#         105
  C:67BBH         LINE#         106
  C:67BFH         LINE#         107
  C:67C3H         LINE#         108
  C:67C7H         LINE#         110
  C:67CBH         LINE#         111
  C:67CFH         LINE#         112
  C:67D3H         LINE#         113
  C:67D7H         LINE#         115
  C:67DBH         LINE#         117
  C:67DFH         LINE#         118
  C:67E3H         LINE#         119
  C:67E7H         LINE#         120
  C:67EBH         LINE#         123
  C:67EFH         LINE#         124
  C:67F3H         LINE#         126
  C:67F9H         LINE#         127
  C:67FDH         LINE#         129
  C:6801H         LINE#         130
  C:6805H         LINE#         131
  C:6809H         LINE#         132
  C:680DH         LINE#         134
  C:6813H         LINE#         136
  C:6817H         LINE#         137
  C:681BH         LINE#         138
  C:681FH         LINE#         140
  C:6823H         LINE#         141
  C:6829H         LINE#         142
  C:682FH         LINE#         143
  C:6833H         LINE#         144
  C:6839H         LINE#         145
  C:683DH         LINE#         146
  C:6841H         LINE#         147
  C:6845H         LINE#         149
  C:6849H         LINE#         150
  C:684DH         LINE#         151
  C:6851H         LINE#         152
  C:6855H         LINE#         153
BL51 BANKED LINKER/LOCATER V6.22.2.0                                                  12/09/2022  13:55:10  PAGE 120


  C:6859H         LINE#         154
  C:685DH         LINE#         156
  C:6861H         LINE#         157
  C:6865H         LINE#         158
  C:6869H         LINE#         159
  C:686DH         LINE#         160
  C:6871H         LINE#         161
  C:6875H         LINE#         162
  C:6879H         LINE#         163
  C:687DH         LINE#         164
  C:6881H         LINE#         166
  C:6885H         LINE#         167
  C:6889H         LINE#         168
  C:688DH         LINE#         169
  C:6893H         LINE#         170
  C:6899H         LINE#         171
  C:68A0H         LINE#         172
  C:68A6H         LINE#         173
  C:68ABH         LINE#         175
  C:68AFH         LINE#         176
  C:68B3H         LINE#         177
  C:68B7H         LINE#         180
  C:68BBH         LINE#         181
  C:68BFH         LINE#         182
  C:68C3H         LINE#         184
  C:68C7H         LINE#         185
  C:68CBH         LINE#         186
  C:68CFH         LINE#         187
  C:68D3H         LINE#         188
  C:68D7H         LINE#         189
  C:68DDH         LINE#         191
  C:68E4H         LINE#         192
  C:68EAH         LINE#         193
  C:68EFH         LINE#         194
  C:68F3H         LINE#         195
  C:68F7H         LINE#         196
  C:68FBH         LINE#         197
  C:68FFH         LINE#         200
  C:6903H         LINE#         201
  C:6907H         LINE#         202
  C:690BH         LINE#         203
  C:690FH         LINE#         205
  C:6913H         LINE#         206
  -------         ENDPROC       VARS_INITIALIZE
  -------         ENDMOD        VARS

  -------         MODULE        ?C?COPY
  C:437AH         PUBLIC        ?C?COPY
  -------         ENDMOD        ?C?COPY

  -------         MODULE        ?C?CLDPTR
  C:43A0H         PUBLIC        ?C?CLDPTR
  -------         ENDMOD        ?C?CLDPTR

  -------         MODULE        ?C?CLDOPTR
  C:43B9H         PUBLIC        ?C?CLDOPTR
  -------         ENDMOD        ?C?CLDOPTR
BL51 BANKED LINKER/LOCATER V6.22.2.0                                                  12/09/2022  13:55:10  PAGE 121



  -------         MODULE        ?C?CSTPTR
  C:43E6H         PUBLIC        ?C?CSTPTR
  -------         ENDMOD        ?C?CSTPTR

  -------         MODULE        ?C?IMUL
  C:43F8H         PUBLIC        ?C?IMUL
  -------         ENDMOD        ?C?IMUL

  -------         MODULE        ?C?UIDIV
  C:440AH         PUBLIC        ?C?UIDIV
  -------         ENDMOD        ?C?UIDIV

  -------         MODULE        ?C?IILDX
  C:445FH         PUBLIC        ?C?IILDX
  -------         ENDMOD        ?C?IILDX

  -------         MODULE        ?C?ILDIX
  C:4475H         PUBLIC        ?C?ILDIX
  -------         ENDMOD        ?C?ILDIX

  -------         MODULE        ?C?ILDPTR
  C:448BH         PUBLIC        ?C?ILDPTR
  -------         ENDMOD        ?C?ILDPTR

  -------         MODULE        ?C?ILDOPTR
  C:44B6H         PUBLIC        ?C?ILDOPTR
  -------         ENDMOD        ?C?ILDOPTR

  -------         MODULE        ?C?IILDPTR
  C:44EEH         PUBLIC        ?C?IILDPTR
  -------         ENDMOD        ?C?IILDPTR

  -------         MODULE        ?C?ISTPTR
  C:4526H         PUBLIC        ?C?ISTPTR
  -------         ENDMOD        ?C?ISTPTR

  -------         MODULE        ?C?LMUL
  C:4545H         PUBLIC        ?C?LMUL
  -------         ENDMOD        ?C?LMUL

  -------         MODULE        ?C?ULDIV
  C:45D0H         PUBLIC        ?C?ULDIV
  -------         ENDMOD        ?C?ULDIV

  -------         MODULE        ?C?SLDIV
  C:A18EH         PUBLIC        ?C?SLDIV
  -------         ENDMOD        ?C?SLDIV

  -------         MODULE        ?C?ULCMP
  C:4662H         PUBLIC        ?C?ULCMP
  -------         ENDMOD        ?C?ULCMP

  -------         MODULE        ?C?ULSHR
  C:4673H         PUBLIC        ?C?ULSHR
  -------         ENDMOD        ?C?ULSHR

BL51 BANKED LINKER/LOCATER V6.22.2.0                                                  12/09/2022  13:55:10  PAGE 122


  -------         MODULE        ?C?LSHL
  C:4686H         PUBLIC        ?C?LSHL
  -------         ENDMOD        ?C?LSHL

  -------         MODULE        ?C?LSTXDATA
  C:4699H         PUBLIC        ?C?LSTXDATA
  -------         ENDMOD        ?C?LSTXDATA

  -------         MODULE        ?C?LSTKXDATA
  C:46A5H         PUBLIC        ?C?LSTKXDATA
  -------         ENDMOD        ?C?LSTKXDATA

  -------         MODULE        ?C?OFFXADD
  C:46D6H         PUBLIC        ?C?OFFXADD
  -------         ENDMOD        ?C?OFFXADD

  -------         MODULE        ?C?PLDPTR
  C:46E2H         PUBLIC        ?C?PLDPTR
  -------         ENDMOD        ?C?PLDPTR

  -------         MODULE        ?C?PLDOPTR
  C:4702H         PUBLIC        ?C?PLDOPTR
  -------         ENDMOD        ?C?PLDOPTR

  -------         MODULE        ?C?ICALL
  C:4732H         PUBLIC        ?C?ICALL
  C:4736H         PUBLIC        ?C?ICALL2
  -------         ENDMOD        ?C?ICALL

  -------         MODULE        ?C?STRCMP
  C:48B6H         PUBLIC        ?C?STRCMP
  -------         ENDMOD        ?C?STRCMP

  -------         MODULE        ?C?PLDIDATA
  C:48D3H         PUBLIC        ?C?PLDIDATA
  -------         ENDMOD        ?C?PLDIDATA

  -------         MODULE        ?C?PLDXDATA
  C:48DCH         PUBLIC        ?C?PLDXDATA
  -------         ENDMOD        ?C?PLDXDATA

  -------         MODULE        ?C?PLDPDATA
  C:48E5H         PUBLIC        ?C?PLDPDATA
  -------         ENDMOD        ?C?PLDPDATA

  -------         MODULE        ?C?PLDCODE
  C:48EEH         PUBLIC        ?C?PLDCODE
  -------         ENDMOD        ?C?PLDCODE

*** WARNING L16: UNCALLED SEGMENT, IGNORED FOR OVERLAY PROCESS
    SEGMENT: ?PR?RESETT5L?SYS

*** WARNING L16: UNCALLED SEGMENT, IGNORED FOR OVERLAY PROCESS
    SEGMENT: ?PR?_TOUCHSWITCH?SYS

*** WARNING L16: UNCALLED SEGMENT, IGNORED FOR OVERLAY PROCESS
    SEGMENT: ?PR?_MUSICPLAY?SYS
BL51 BANKED LINKER/LOCATER V6.22.2.0                                                  12/09/2022  13:55:10  PAGE 123



*** WARNING L16: UNCALLED SEGMENT, IGNORED FOR OVERLAY PROCESS
    SEGMENT: ?PR?NORFLASH_ACTION?SYS

*** WARNING L16: UNCALLED SEGMENT, IGNORED FOR OVERLAY PROCESS
    SEGMENT: ?PR?SPIFLASH_ACTION?SYS

*** WARNING L16: UNCALLED SEGMENT, IGNORED FOR OVERLAY PROCESS
    SEGMENT: ?PR?GETPAGEID?SYS

*** WARNING L16: UNCALLED SEGMENT, IGNORED FOR OVERLAY PROCESS
    SEGMENT: ?PR?_GETPININ?SYS

*** WARNING L16: UNCALLED SEGMENT, IGNORED FOR OVERLAY PROCESS
    SEGMENT: ?PR?_GETTOUCHANCTION?SYS

*** WARNING L16: UNCALLED SEGMENT, IGNORED FOR OVERLAY PROCESS
    SEGMENT: ?PR?_UART4_SENDBYTE32?UART

*** WARNING L16: UNCALLED SEGMENT, IGNORED FOR OVERLAY PROCESS
    SEGMENT: ?PR?CANERRORRESET?CANBUS

*** WARNING L16: UNCALLED SEGMENT, IGNORED FOR OVERLAY PROCESS
    SEGMENT: ?PR?POLLING2?UI

*** WARNING L16: UNCALLED SEGMENT, IGNORED FOR OVERLAY PROCESS
    SEGMENT: ?PR?_SSD2828_READ_MIPI?SSD2828

*** WARNING L16: UNCALLED SEGMENT, IGNORED FOR OVERLAY PROCESS
    SEGMENT: ?PR?W_WRITE?SSD2828

*** WARNING L16: UNCALLED SEGMENT, IGNORED FOR OVERLAY PROCESS
    SEGMENT: ?PR?_WRITE_RTC?RTC

*** WARNING L16: UNCALLED SEGMENT, IGNORED FOR OVERLAY PROCESS
    SEGMENT: ?PR?WRITE_WIFI_RTC?RTC

*** WARNING L16: UNCALLED SEGMENT, IGNORED FOR OVERLAY PROCESS
    SEGMENT: ?PR?RTC_READ_AND_SET?RTC

*** WARNING L16: UNCALLED SEGMENT, IGNORED FOR OVERLAY PROCESS
    SEGMENT: ?PR?_SEND_MODBUS04_10?MYMODBUS

*** WARNING L16: UNCALLED SEGMENT, IGNORED FOR OVERLAY PROCESS
    SEGMENT: ?PR?_SEND_MODBUS08_10?MYMODBUS

Program Size: data=33.2 xdata=16887 code=42155
LINK/LOCATE RUN COMPLETE.  18 WARNING(S),  0 ERROR(S)
