BL51 BANKED LINKER/LOCATER V6.22.2.0                                                    12/09/2022  13:52:00  PAGE 1


BL51 BANKED LINKER/LOCATER V6.22.2.0, INVOKED BY:
C:\KEIL_V5\C51\BIN\BL51.EXE .\Objects\STARTUP_M5.obj, .\Objects\sys.obj, .\Objects\timer.obj, .\Objects\uart.obj, .\Obje
>> cts\canbus.obj, .\Objects\main.obj, .\Objects\const.obj, .\Objects\ui.obj, .\Objects\dwin8283.obj, .\Objects\ssd2828.
>> obj, .\Objects\rtc.obj, .\Objects\MYModBus.obj, .\Objects\ReceiveData.obj, .\Objects\vars.obj TO .\Objects\T5L51 PRIN
>> T (.\Listings\T5L51.m51) RAMSIZE (256) CODE (0X0100-0XFEFF) XDATA (0X8000-0XFFFF)


MEMORY MODEL: LARGE


INPUT MODULES INCLUDED:
  .\Objects\STARTUP_M5.obj (STARTUP_M5)
  .\Objects\sys.obj (SYS)
  .\Objects\timer.obj (TIMER)
  .\Objects\uart.obj (UART)
  .\Objects\canbus.obj (CANBUS)
  .\Objects\main.obj (MAIN)
  .\Objects\const.obj (CONST)
  .\Objects\ui.obj (UI)
  .\Objects\dwin8283.obj (DWIN8283)
  .\Objects\ssd2828.obj (SSD2828)
  .\Objects\rtc.obj (RTC)
  .\Objects\MYModBus.obj (MYMODBUS)
  .\Objects\ReceiveData.obj (RECEIVEDATA)
  .\Objects\vars.obj (VARS)
  C:\KEIL_V5\C51\LIB\C51L.LIB (?C_STARTUP)
  C:\KEIL_V5\C51\LIB\C51L.LIB (?C_INIT)
  C:\KEIL_V5\C51\LIB\C51L.LIB (?C?COPY)
  C:\KEIL_V5\C51\LIB\C51L.LIB (?C?CLDPTR)
  C:\KEIL_V5\C51\LIB\C51L.LIB (?C?CLDOPTR)
  C:\KEIL_V5\C51\LIB\C51L.LIB (?C?CSTPTR)
  C:\KEIL_V5\C51\LIB\C51L.LIB (?C?IMUL)
  C:\KEIL_V5\C51\LIB\C51L.LIB (?C?UIDIV)
  C:\KEIL_V5\C51\LIB\C51L.LIB (?C?IILDX)
  C:\KEIL_V5\C51\LIB\C51L.LIB (?C?ILDIX)
  C:\KEIL_V5\C51\LIB\C51L.LIB (?C?ILDPTR)
  C:\KEIL_V5\C51\LIB\C51L.LIB (?C?ILDOPTR)
  C:\KEIL_V5\C51\LIB\C51L.LIB (?C?IILDPTR)
  C:\KEIL_V5\C51\LIB\C51L.LIB (?C?ISTPTR)
  C:\KEIL_V5\C51\LIB\C51L.LIB (?C?LMUL)
  C:\KEIL_V5\C51\LIB\C51L.LIB (?C?ULDIV)
  C:\KEIL_V5\C51\LIB\C51L.LIB (?C?SLDIV)
  C:\KEIL_V5\C51\LIB\C51L.LIB (?C?ULCMP)
  C:\KEIL_V5\C51\LIB\C51L.LIB (?C?ULSHR)
  C:\KEIL_V5\C51\LIB\C51L.LIB (?C?LSHL)
  C:\KEIL_V5\C51\LIB\C51L.LIB (?C?LSTXDATA)
  C:\KEIL_V5\C51\LIB\C51L.LIB (?C?LSTKXDATA)
  C:\KEIL_V5\C51\LIB\C51L.LIB (?C?OFFXADD)
  C:\KEIL_V5\C51\LIB\C51L.LIB (?C?PLDPTR)
  C:\KEIL_V5\C51\LIB\C51L.LIB (?C?PLDOPTR)
  C:\KEIL_V5\C51\LIB\C51L.LIB (?C?ICALL)
  C:\KEIL_V5\C51\LIB\C51L.LIB (?C?STRCMP)
  C:\KEIL_V5\C51\LIB\C51L.LIB (?C?PLDIDATA)
  C:\KEIL_V5\C51\LIB\C51L.LIB (?C?PLDXDATA)
  C:\KEIL_V5\C51\LIB\C51L.LIB (?C?PLDPDATA)
  C:\KEIL_V5\C51\LIB\C51L.LIB (?C?PLDCODE)


BL51 BANKED LINKER/LOCATER V6.22.2.0                                                  12/09/2022  13:52:00  PAGE 2


LINK MAP OF MODULE:  .\Objects\T5L51 (STARTUP_M5)


            TYPE    BASE      LENGTH    RELOCATION   SEGMENT NAME
            -----------------------------------------------------

            * * * * * * *   D A T A   M E M O R Y   * * * * * * *
            REG     0000H     0008H     ABSOLUTE     "REG BANK 0"
            DATA    0008H     0013H     UNIT         ?DT?TIMER
            DATA    001BH     0003H     UNIT         _DATA_GROUP_
            DATA    001EH     0002H     UNIT         ?DT?SYS
            BIT     0020H.0   0000H.1   UNIT         ?BI?SSD2828
            BIT     0020H.1   0000H.1   UNIT         ?BI?RTC
                    0020H.2   0000H.6                *** GAP ***
            IDATA   0021H     0001H     UNIT         ?STACK

            * * * * * * *  X D A T A   M E M O R Y  * * * * * * *
                    0000H     8000H                  *** GAP ***
            XDATA   8000H     2228H     UNIT         ?XD?UART
            XDATA   A228H     1A05H     UNIT         ?XD?CANBUS
            XDATA   BC2DH     031AH     UNIT         ?XD?DWIN8283
            XDATA   BF47H     012FH     UNIT         ?XD?VARS
            XDATA   C076H     0057H     UNIT         ?XD?SYS
            XDATA   C0CDH     0041H     UNIT         ?XD?TIMER
            XDATA   C10EH     003CH     UNIT         _XDATA_GROUP_
            XDATA   C14AH     0017H     UNIT         ?XD?MYMODBUS
            XDATA   C161H     0012H     UNIT         ?XD?_WRITE_RTC?RTC
            XDATA   C173H     000FH     UNIT         ?XD?WRITE_WIFI_RTC?RTC
            XDATA   C182H     000EH     UNIT         ?XD?_SEND_MODBUS08_10?MYMODBUS
            XDATA   C190H     000DH     UNIT         ?XD?_TOUCHSWITCH?SYS
            XDATA   C19DH     000CH     UNIT         ?XD?SPIFLASH_ACTION?SYS
            XDATA   C1A9H     000BH     UNIT         ?XD?_GETTOUCHANCTION?SYS
            XDATA   C1B4H     000AH     UNIT         ?XD?_SEND_MODBUS04_10?MYMODBUS
            XDATA   C1BEH     0008H     UNIT         ?XD?NORFLASH_ACTION?SYS
            XDATA   C1C6H     0008H     UNIT         ?XD?GETTOUCHSTATUS?SYS
            XDATA   C1CEH     0008H     UNIT         ?XD?RTC
            XDATA   C1D6H     0005H     UNIT         ?XD?_MUSICPLAY?SYS
            XDATA   C1DBH     0005H     UNIT         ?XD?_SSD2828_READREG?SSD2828
            XDATA   C1E0H     0005H     UNIT         ?XD?_SSD2828_READ_MIPI?SSD2828
            XDATA   C1E5H     0005H     UNIT         ?XD?_RTC_GET_WEEK?RTC
            XDATA   C1EAH     0004H     UNIT         ?XD?RESETT5L?SYS
            XDATA   C1EEH     0004H     UNIT         ?XD?_UART4_SENDBYTE32?UART
            XDATA   C1F2H     0003H     UNIT         ?XD?_W_COM?SSD2828
            XDATA   C1F5H     0002H     UNIT         ?XD?GETPAGEID?SYS

            * * * * * * *   C O D E   M E M O R Y   * * * * * * *
            CODE    0000H     0003H     ABSOLUTE     
                    0003H     0008H                  *** GAP ***
            CODE    000BH     0003H     ABSOLUTE     
                    000EH     0015H                  *** GAP ***
            CODE    0023H     0003H     ABSOLUTE     
                    0026H     0005H                  *** GAP ***
            CODE    002BH     0003H     ABSOLUTE     
                    002EH     001DH                  *** GAP ***
            CODE    004BH     0003H     ABSOLUTE     
                    004EH     0005H                  *** GAP ***
            CODE    0053H     0003H     ABSOLUTE     
BL51 BANKED LINKER/LOCATER V6.22.2.0                                                  12/09/2022  13:52:00  PAGE 3


                    0056H     0005H                  *** GAP ***
            CODE    005BH     0003H     ABSOLUTE     
                    005EH     0005H                  *** GAP ***
            CODE    0063H     0003H     ABSOLUTE     
                    0066H     0005H                  *** GAP ***
            CODE    006BH     0003H     ABSOLUTE     
                    006EH     0015H                  *** GAP ***
            CODE    0083H     0003H     ABSOLUTE     
                    0086H     0072H                  *** GAP ***
            CODE    00F8H     000BH     ABSOLUTE     
            CODE    0103H     1F2EH     UNIT         ?PR?RECEIVE_MODBUS?RECEIVEDATA
            CODE    2031H     0B93H     UNIT         ?PR?TOUCH_SCAN_1_2_6?UI
            CODE    2BC4H     0888H     UNIT         ?PR?FILE_CONTROL?UI
            CODE    344CH     0736H     UNIT         ?PR?_ALM_INIT?RECEIVEDATA
            CODE    3B82H     06EBH     UNIT         ?PR?W_WRITE?SSD2828
            CODE    426DH     0650H     UNIT         ?C?LIB_CODE
            CODE    48BDH     05DBH     UNIT         ?PR?C055_CODE_DOWNLOAD?SSD2828
            CODE    4E98H     05C6H     UNIT         ?PR?POLLING1_6?UI
            CODE    545EH     053CH     UNIT         ?PR?_PRO8283RXTREAT?DWIN8283
            CODE    599AH     041DH     UNIT         ?PR?COORDINATE_CONTROL?UI
            CODE    5DB7H     036DH     UNIT         ?PR?CAN_ISR?CANBUS
            CODE    6124H     02D8H     UNIT         ?PR?POLLING15_17?UI
            CODE    63FCH     027FH     UNIT         ?PR?_CANTX?CANBUS
            CODE    667BH     025CH     UNIT         ?PR?VARS_INITIALIZE?VARS
            CODE    68D7H     023DH     UNIT         ?PR?TOUCH_SCAN_10_12?UI
            CODE    6B14H     0217H     UNIT         ?PR?POLLING10_12?UI
            CODE    6D2BH     0200H     UNIT         ?CO?MYMODBUS
            CODE    6F2BH     01F8H     UNIT         ?PR?_GETTOUCHANCTION?SYS
            CODE    7123H     01DCH     UNIT         ?PR?TOUCH_SCAN_13?UI
            CODE    72FFH     01CDH     UNIT         ?PR?_READ_DGUS_VP?SYS
            CODE    74CCH     01B3H     UNIT         ?PR?_UATR_SEND_DATA?UART
            CODE    767FH     019EH     UNIT         ?PR?TOUCH_SCAN_4?UI
            CODE    781DH     0193H     UNIT         ?PR?_WRITE_DGUS_VP?SYS
            CODE    79B0H     0186H     UNIT         ?CO?SSD2828
            CODE    7B36H     017BH     UNIT         ?PR?TOUCH_SCAN_3?UI
            CODE    7CB1H     016CH     UNIT         ?PR?LOADONEFRAME?CANBUS
            CODE    7E1DH     013FH     UNIT         ?PR?PRO8283DEAL?DWIN8283
            CODE    7F5CH     012CH     UNIT         ?PR?_SYS_WRITE_VP?SYS
            CODE    8088H     0120H     UNIT         ?PR?SPIFLASH_ACTION?SYS
            CODE    81A8H     011AH     UNIT         ?PR?TOUCH_SCAN_5?UI
            CODE    82C2H     0112H     UNIT         ?PR?STA_INIT?MAIN
            CODE    83D4H     010FH     UNIT         ?PR?SSD2828_INIT?SSD2828
            CODE    84E3H     00F6H     UNIT         ?PR?NORFLASH_ACTION?SYS
            CODE    85D9H     00F6H     UNIT         ?PR?_SEND_MODBUS?MYMODBUS
            CODE    86CFH     00EBH     UNIT         ?PR?TOUCH_SCAN_16?UI
            CODE    87BAH     00EAH     UNIT         ?PR?_SSD2828_REGCONFIG?SSD2828
            CODE    88A4H     00E5H     UNIT         ?PR?_SYS_READ_VP?SYS
            CODE    8989H     00E5H     UNIT         ?PR?CONTORL?UI
            CODE    8A6EH     00E1H     UNIT         ?PR?GETTOUCHSTATUS?SYS
            CODE    8B4FH     00CFH     UNIT         ?PR?RDTIME?RTC
            CODE    8C1EH     00CDH     UNIT         ?PR?_WRITE_RTC?RTC
            CODE    8CEBH     00C9H     UNIT         ?PR?SEND_MODBUS_IP?MYMODBUS
            CODE    8DB4H     00C6H     UNIT         ?PR?PRO8283INIT?DWIN8283
            CODE    8E7AH     00C1H     UNIT         ?PR?_SSD2828_READREG?SSD2828
            CODE    8F3BH     00BFH     UNIT         ?PR?SSD2828_READID?SSD2828
            CODE    8FFAH     00BEH     UNIT         ?PR?_W_COM?SSD2828
            CODE    90B8H     00AFH     UNIT         ?PR?WRITE_WIFI_RTC?RTC
BL51 BANKED LINKER/LOCATER V6.22.2.0                                                  12/09/2022  13:52:00  PAGE 4


            CODE    9167H     00A9H     UNIT         ?PR?_SSD2828_WRITEPACKAGE?SSD2828
            CODE    9210H     009BH     UNIT         ?PR?UART3_ISR?UART
            CODE    92ABH     0094H     UNIT         ?PR?_RTC_GET_WEEK?RTC
            CODE    933FH     0093H     UNIT         ?PR?_PINOUTPUT?SYS
            CODE    93D2H     0091H     UNIT         ?PR?_CANBUSINIT?CANBUS
            CODE    9463H     008FH     UNIT         ?PR?UART2_ISR?UART
            CODE    94F2H     008CH     UNIT         ?C_C51STARTUP
            CODE    957EH     0087H     UNIT         ?PR?AUTOUPLOADVALUE?DWIN8283
            CODE    9605H     0083H     UNIT         ?PR?TOUCH_SCAN_0?UI
            CODE    9688H     0083H     UNIT         ?PR?_CRC16?MYMODBUS
            CODE    970BH     0081H     UNIT         ?PR?_PAGE_CHANGE?SYS
            CODE    978CH     0081H     UNIT         ?PR?T0_ISR_PC?TIMER
            CODE    980DH     0081H     UNIT         ?PR?TOUCH_SCAN_14?UI
            CODE    988EH     007AH     UNIT         ?PR?_SSD2828_READ_MIPI?SSD2828
            CODE    9908H     007AH     UNIT         ?PR?_SEND_MODBUS08_10?MYMODBUS
            CODE    9982H     0075H     UNIT         ?PR?_I2CBW?RTC
            CODE    99F7H     0072H     UNIT         ?PR?MAIN?MAIN
            CODE    9A69H     0072H     UNIT         ?PR?INIT_RTC?RTC
            CODE    9ADBH     006FH     UNIT         ?PR?_SEND_MODBUS04_10?MYMODBUS
            CODE    9B4AH     006BH     UNIT         ?PR?PAGEFUNCTION?UI
            CODE    9BB5H     0067H     UNIT         ?PR?LCD_PA_SET?SSD2828
            CODE    9C1CH     0062H     UNIT         ?PR?_TOUCHSWITCH?SYS
            CODE    9C7EH     0060H     UNIT         ?PR?UART4T_ISR?UART
            CODE    9CDEH     0060H     UNIT         ?PR?UART5T_ISR?UART
            CODE    9D3EH     005FH     UNIT         ?PR?_SEND_MODBUS_10?MYMODBUS
            CODE    9D9DH     005EH     UNIT         ?PR?_UART4_SENDBYTE32?UART
            CODE    9DFBH     0057H     UNIT         ?PR?_SSD2828_WRITECMD?SSD2828
            CODE    9E52H     0055H     UNIT         ?PR?_GETPININ?SYS
            CODE    9EA7H     0053H     UNIT         ?PR?_UARTINIT?UART
            CODE    9EFAH     004FH     UNIT         ?PR?UART4R_ISR?UART
            CODE    9F49H     004EH     UNIT         ?PR?_UART2_INIT?UART
            CODE    9F97H     004EH     UNIT         ?PR?_SENDSTRING?MYMODBUS
            CODE    9FE5H     004CH     UNIT         ?PR?_SETPININ?SYS
            CODE    A031H     0049H     UNIT         ?PR?_UART3_INIT?UART
            CODE    A07AH     0048H     UNIT         ?PR?_DELAY_MS?SYS
            CODE    A0C2H     0048H     UNIT         ?PR?_SETPINOUT?SYS
            CODE    A10AH     0047H     UNIT         ?PR?UART5R_ISR?UART
            CODE    A151H     0044H     UNIT         ?C?LDIV
            CODE    A195H     003FH     UNIT         ?PR?_MUSICPLAY?SYS
            CODE    A1D4H     0039H     UNIT         ?CO?UI
            CODE    A20DH     0036H     UNIT         ?PR?I2CBR?RTC
            CODE    A243H     0035H     UNIT         ?PR?_HEX_TO_BCD?RTC
            CODE    A278H     0029H     UNIT         ?PR?INIT_CPU?SYS
            CODE    A2A1H     0029H     UNIT         ?C_INITSEG
            CODE    A2CAH     0028H     UNIT         ?PR?CLEARRAM?SYS
            CODE    A2F2H     0028H     UNIT         ?PR?_UART4_INIT?UART
            CODE    A31AH     0028H     UNIT         ?PR?_UART5_INIT?UART
            CODE    A342H     0028H     UNIT         ?PR?_DELAYUS?RTC
            CODE    A36AH     0027H     UNIT         ?PR?CACK?RTC
            CODE    A391H     0022H     UNIT         ?PR?_STARTTIMER?TIMER
            CODE    A3B3H     0020H     UNIT         ?PR?RESETT5L?SYS
            CODE    A3D3H     001FH     UNIT         ?PR?_DELAY_US?SYS
            CODE    A3F2H     001EH     UNIT         ?PR?GETPAGEID?SYS
            CODE    A410H     001CH     UNIT         ?PR?T0_INIT?TIMER
            CODE    A42CH     001BH     UNIT         ?PR?CANERRORRESET?CANBUS
            CODE    A447H     001BH     UNIT         ?PR?I2CSTOP?RTC
            CODE    A462H     001AH     UNIT         ?PR?I2CSTART?RTC
BL51 BANKED LINKER/LOCATER V6.22.2.0                                                  12/09/2022  13:52:00  PAGE 5


            CODE    A47CH     0015H     UNIT         ?PR?_KILLTIMER?TIMER
            CODE    A491H     0015H     UNIT         ?PR?P9FUNC?UI
            CODE    A4A6H     0013H     UNIT         ?PR?_GETTIMEOUTFLAG?TIMER
            CODE    A4B9H     000FH     UNIT         ?PR?MACK?RTC
            CODE    A4C8H     000DH     UNIT         ?PR?MNAK?RTC
            CODE    A4D5H     000CH     UNIT         ?PR?_UART4_SENDBYTE?UART
            CODE    A4E1H     000CH     UNIT         ?PR?_UART4_SENDBYTE16?UART
            CODE    A4EDH     0009H     UNIT         ?PR?P3FUNC?UI
            CODE    A4F6H     0009H     UNIT         ?PR?RTC_READ_AND_SET?RTC
            CODE    A4FFH     0007H     UNIT         ?PR?TIMER2_ISR?TIMER
            CODE    A506H     0007H     UNIT         ?PR?IO_INIT?MAIN
            CODE    A50DH     0006H     UNIT         ?PR?P0FUNC?UI
            CODE    A513H     0006H     UNIT         ?PR?P1FUNC?UI
            CODE    A519H     0006H     UNIT         ?PR?P2FUNC?UI
            CODE    A51FH     0006H     UNIT         ?PR?P5FUNC?UI
            CODE    A525H     0006H     UNIT         ?PR?P10_12FUNC?UI
            CODE    A52BH     0004H     UNIT         ?CO?DWIN8283
            CODE    A52FH     0004H     UNIT         ?PR?SDA_IN?RTC
            CODE    A533H     0004H     UNIT         ?PR?SDA_OUT?RTC
            CODE    A537H     0003H     UNIT         ?PR?P4FUNC?UI
            CODE    A53AH     0003H     UNIT         ?PR?P13FUNC?UI
            CODE    A53DH     0003H     UNIT         ?PR?P14FUNC?UI
            CODE    A540H     0003H     UNIT         ?PR?P16FUNC?UI
            CODE    A543H     0003H     UNIT         ?PR?P15_17FUNC?UI
            CODE    A546H     0001H     UNIT         ?PR?P18FUNC?UI
            CODE    A547H     0001H     UNIT         ?PR?POLLING2?UI



OVERLAY MAP OF MODULE:   .\Objects\T5L51 (STARTUP_M5)


SEGMENT                                     DATA_GROUP          XDATA_GROUP
  +--> CALLED SEGMENT                     START    LENGTH     START    LENGTH
-----------------------------------------------------------------------------
?PR?T0_ISR_PC?TIMER                       001BH    0001H      -----    -----

*** NEW ROOT ***************************************************

?PR?CAN_ISR?CANBUS                        -----    -----      C10EH    0001H
  +--> ?PR?LOADONEFRAME?CANBUS

*** NEW ROOT ***************************************************

?C_C51STARTUP                             -----    -----      -----    -----
  +--> ?PR?MAIN?MAIN
  +--> ?C_INITSEG

?PR?MAIN?MAIN                             -----    -----      -----    -----
  +--> ?PR?INIT_CPU?SYS
  +--> ?PR?T0_INIT?TIMER
  +--> ?PR?PRO8283INIT?DWIN8283
  +--> ?PR?INIT_RTC?RTC
  +--> ?PR?_STARTTIMER?TIMER
  +--> ?PR?IO_INIT?MAIN
  +--> ?PR?_DELAY_MS?SYS
  +--> ?PR?SSD2828_INIT?SSD2828
BL51 BANKED LINKER/LOCATER V6.22.2.0                                                  12/09/2022  13:52:00  PAGE 6


  +--> ?PR?RDTIME?RTC
  +--> ?PR?_UARTINIT?UART
  +--> ?PR?VARS_INITIALIZE?VARS
  +--> ?PR?STA_INIT?MAIN
  +--> ?PR?_GETTIMEOUTFLAG?TIMER
  +--> ?PR?PAGEFUNCTION?UI
  +--> ?PR?PRO8283DEAL?DWIN8283
  +--> ?PR?RECEIVE_MODBUS?RECEIVEDATA

?PR?INIT_CPU?SYS                          -----    -----      -----    -----
  +--> ?PR?CLEARRAM?SYS

?PR?CLEARRAM?SYS                          001CH    0002H      -----    -----

?PR?PRO8283INIT?DWIN8283                  -----    -----      C10FH    000AH
  +--> ?CO?DWIN8283
  +--> ?PR?_READ_DGUS_VP?SYS
  +--> ?PR?_UARTINIT?UART
  +--> ?PR?_CANBUSINIT?CANBUS

?PR?_READ_DGUS_VP?SYS                     -----    -----      C137H    0013H

?PR?_UARTINIT?UART                        -----    -----      C119H    0005H
  +--> ?PR?_UART2_INIT?UART
  +--> ?PR?_UART3_INIT?UART
  +--> ?PR?_UART4_INIT?UART
  +--> ?PR?_UART5_INIT?UART

?PR?_UART2_INIT?UART                      -----    -----      C11EH    0002H
  +--> ?PR?_SETPINOUT?SYS
  +--> ?PR?_SETPININ?SYS

?PR?_UART3_INIT?UART                      -----    -----      C11EH    0002H
  +--> ?PR?_SETPINOUT?SYS
  +--> ?PR?_SETPININ?SYS

?PR?_CANBUSINIT?CANBUS                    -----    -----      C119H    0003H
  +--> ?PR?_SETPINOUT?SYS
  +--> ?PR?_SETPININ?SYS
  +--> ?PR?_PINOUTPUT?SYS

?PR?INIT_RTC?RTC                          -----    -----      -----    -----
  +--> ?PR?_SETPINOUT?SYS
  +--> ?PR?_I2CBW?RTC
  +--> ?PR?I2CSTOP?RTC
  +--> ?PR?I2CSTART?RTC
  +--> ?PR?I2CBR?RTC
  +--> ?PR?MACK?RTC
  +--> ?PR?MNAK?RTC

?PR?_I2CBW?RTC                            -----    -----      -----    -----
  +--> ?PR?I2CSTART?RTC
  +--> ?PR?I2CSTOP?RTC
  +--> ?PR?SDA_OUT?RTC
  +--> ?PR?_DELAYUS?RTC
  +--> ?PR?CACK?RTC

BL51 BANKED LINKER/LOCATER V6.22.2.0                                                  12/09/2022  13:52:00  PAGE 7


?PR?I2CSTART?RTC                          -----    -----      -----    -----
  +--> ?PR?SDA_OUT?RTC
  +--> ?PR?_DELAYUS?RTC

?PR?I2CSTOP?RTC                           -----    -----      -----    -----
  +--> ?PR?SDA_OUT?RTC
  +--> ?PR?_DELAYUS?RTC
  +--> ?PR?SDA_IN?RTC

?PR?CACK?RTC                              -----    -----      -----    -----
  +--> ?PR?SDA_IN?RTC
  +--> ?PR?_DELAYUS?RTC
  +--> ?PR?SDA_OUT?RTC

?PR?I2CBR?RTC                             -----    -----      -----    -----
  +--> ?PR?SDA_IN?RTC
  +--> ?PR?_DELAYUS?RTC

?PR?MACK?RTC                              -----    -----      -----    -----
  +--> ?PR?SDA_OUT?RTC
  +--> ?PR?_DELAYUS?RTC

?PR?MNAK?RTC                              -----    -----      -----    -----
  +--> ?PR?SDA_OUT?RTC
  +--> ?PR?_DELAYUS?RTC

?PR?_DELAY_MS?SYS                         -----    -----      C13FH    0004H
  +--> ?PR?_DELAY_US?SYS

?PR?SSD2828_INIT?SSD2828                  -----    -----      -----    -----
  +--> ?PR?SSD2828_READID?SSD2828
  +--> ?PR?_SSD2828_REGCONFIG?SSD2828
  +--> ?PR?_DELAY_MS?SYS
  +--> ?PR?C055_CODE_DOWNLOAD?SSD2828
  +--> ?PR?LCD_PA_SET?SSD2828
  +--> ?PR?_SSD2828_WRITECMD?SSD2828

?PR?SSD2828_READID?SSD2828                -----    -----      C10FH    0005H
  +--> ?PR?_DELAY_US?SYS

?PR?_SSD2828_REGCONFIG?SSD2828            -----    -----      C116H    0004H
  +--> ?PR?_DELAY_US?SYS

?PR?C055_CODE_DOWNLOAD?SSD2828            -----    -----      -----    -----
  +--> ?CO?SSD2828
  +--> ?PR?_SSD2828_WRITEPACKAGE?SSD2828
  +--> ?PR?_DELAY_MS?SYS

?PR?_SSD2828_WRITEPACKAGE?SSD2828         -----    -----      C10FH    0007H
  +--> ?PR?_SSD2828_REGCONFIG?SSD2828
  +--> ?PR?_SSD2828_WRITECMD?SSD2828
  +--> ?PR?_DELAY_US?SYS

?PR?_SSD2828_WRITECMD?SSD2828             -----    -----      C116H    0002H
  +--> ?PR?_DELAY_US?SYS

?PR?LCD_PA_SET?SSD2828                    -----    -----      C10FH    0007H
BL51 BANKED LINKER/LOCATER V6.22.2.0                                                  12/09/2022  13:52:00  PAGE 8


  +--> ?PR?_SSD2828_REGCONFIG?SSD2828

?PR?RDTIME?RTC                            -----    -----      C10FH    0002H
  +--> ?PR?_I2CBW?RTC
  +--> ?PR?I2CSTOP?RTC
  +--> ?PR?I2CSTART?RTC
  +--> ?PR?I2CBR?RTC
  +--> ?PR?MACK?RTC
  +--> ?PR?MNAK?RTC
  +--> ?PR?_WRITE_DGUS_VP?SYS

?PR?_WRITE_DGUS_VP?SYS                    -----    -----      C137H    000DH

?PR?STA_INIT?MAIN                         -----    -----      C10FH    0002H
  +--> ?PR?_SYS_WRITE_VP?SYS

?PR?_SYS_WRITE_VP?SYS                     -----    -----      C131H    0007H

?PR?PAGEFUNCTION?UI                       -----    -----      C10FH    0002H
  +--> ?CO?UI

?CO?UI                                    -----    -----      -----    -----
  +--> ?PR?P0FUNC?UI
  +--> ?PR?P1FUNC?UI
  +--> ?PR?P2FUNC?UI
  +--> ?PR?P3FUNC?UI
  +--> ?PR?P4FUNC?UI
  +--> ?PR?P5FUNC?UI
  +--> ?PR?P9FUNC?UI
  +--> ?PR?P10_12FUNC?UI
  +--> ?PR?P13FUNC?UI
  +--> ?PR?P14FUNC?UI
  +--> ?PR?P15_17FUNC?UI
  +--> ?PR?P16FUNC?UI
  +--> ?PR?P18FUNC?UI

?PR?P0FUNC?UI                             -----    -----      -----    -----
  +--> ?PR?CONTORL?UI
  +--> ?PR?TOUCH_SCAN_0?UI

?PR?CONTORL?UI                            -----    -----      -----    -----
  +--> ?PR?_SEND_MODBUS?MYMODBUS
  +--> ?PR?_SYS_WRITE_VP?SYS

?PR?_SEND_MODBUS?MYMODBUS                 -----    -----      C131H    0006H
  +--> ?PR?_CRC16?MYMODBUS
  +--> ?PR?_SENDSTRING?MYMODBUS

?PR?_CRC16?MYMODBUS                       -----    -----      C139H    000AH
  +--> ?CO?MYMODBUS

?PR?_SENDSTRING?MYMODBUS                  -----    -----      C139H    0006H
  +--> ?PR?_UART4_SENDBYTE?UART
  +--> ?PR?_DELAY_MS?SYS

?PR?TOUCH_SCAN_0?UI                       -----    -----      C111H    0001H
  +--> ?PR?_SYS_READ_VP?SYS
BL51 BANKED LINKER/LOCATER V6.22.2.0                                                  12/09/2022  13:52:00  PAGE 9


  +--> ?PR?_SEND_MODBUS?MYMODBUS
  +--> ?PR?_SYS_WRITE_VP?SYS

?PR?_SYS_READ_VP?SYS                      -----    -----      C113H    0007H

?PR?P1FUNC?UI                             -----    -----      -----    -----
  +--> ?PR?POLLING1_6?UI
  +--> ?PR?TOUCH_SCAN_1_2_6?UI

?PR?POLLING1_6?UI                         -----    -----      -----    -----
  +--> ?PR?_SEND_MODBUS?MYMODBUS

?PR?TOUCH_SCAN_1_2_6?UI                   -----    -----      C111H    0001H
  +--> ?PR?_SYS_READ_VP?SYS
  +--> ?PR?_SEND_MODBUS?MYMODBUS
  +--> ?PR?_SYS_WRITE_VP?SYS
  +--> ?PR?_PAGE_CHANGE?SYS

?PR?_PAGE_CHANGE?SYS                      -----    -----      C131H    0006H
  +--> ?PR?_WRITE_DGUS_VP?SYS
  +--> ?PR?_DELAY_US?SYS
  +--> ?PR?_READ_DGUS_VP?SYS

?PR?P2FUNC?UI                             -----    -----      -----    -----
  +--> ?PR?POLLING1_6?UI
  +--> ?PR?TOUCH_SCAN_1_2_6?UI

?PR?P3FUNC?UI                             -----    -----      -----    -----
  +--> ?PR?TOUCH_SCAN_3?UI
  +--> ?PR?COORDINATE_CONTROL?UI
  +--> ?PR?FILE_CONTROL?UI

?PR?TOUCH_SCAN_3?UI                       -----    -----      C111H    0002H
  +--> ?PR?_SYS_READ_VP?SYS
  +--> ?PR?_SYS_WRITE_VP?SYS

?PR?COORDINATE_CONTROL?UI                 -----    -----      -----    -----
  +--> ?PR?_SYS_READ_VP?SYS
  +--> ?PR?_SEND_MODBUS_10?MYMODBUS
  +--> ?PR?_DELAY_MS?SYS
  +--> ?PR?_UART4_SENDBYTE?UART
  +--> ?PR?_PAGE_CHANGE?SYS

?PR?_SEND_MODBUS_10?MYMODBUS              -----    -----      C131H    0008H
  +--> ?PR?_CRC16?MYMODBUS
  +--> ?PR?_SENDSTRING?MYMODBUS

?PR?FILE_CONTROL?UI                       -----    -----      C111H    0001H
  +--> ?PR?_SEND_MODBUS?MYMODBUS
  +--> ?PR?_SYS_WRITE_VP?SYS

?PR?P4FUNC?UI                             -----    -----      -----    -----
  +--> ?PR?TOUCH_SCAN_4?UI

?PR?TOUCH_SCAN_4?UI                       -----    -----      C111H    0001H
  +--> ?PR?_SYS_READ_VP?SYS
  +--> ?PR?_PAGE_CHANGE?SYS
BL51 BANKED LINKER/LOCATER V6.22.2.0                                                  12/09/2022  13:52:00  PAGE 10


  +--> ?PR?_SYS_WRITE_VP?SYS
  +--> ?PR?_SEND_MODBUS?MYMODBUS

?PR?P5FUNC?UI                             -----    -----      -----    -----
  +--> ?PR?TOUCH_SCAN_5?UI
  +--> ?PR?TOUCH_SCAN_1_2_6?UI

?PR?TOUCH_SCAN_5?UI                       -----    -----      C111H    0001H
  +--> ?PR?_SYS_READ_VP?SYS
  +--> ?PR?_SEND_MODBUS?MYMODBUS
  +--> ?PR?_SYS_WRITE_VP?SYS

?PR?P10_12FUNC?UI                         -----    -----      -----    -----
  +--> ?PR?POLLING10_12?UI
  +--> ?PR?TOUCH_SCAN_10_12?UI

?PR?POLLING10_12?UI                       -----    -----      -----    -----
  +--> ?PR?_SEND_MODBUS?MYMODBUS

?PR?TOUCH_SCAN_10_12?UI                   -----    -----      C111H    0001H
  +--> ?PR?_SYS_READ_VP?SYS
  +--> ?PR?_SEND_MODBUS_10?MYMODBUS
  +--> ?PR?_DELAY_MS?SYS
  +--> ?PR?_SEND_MODBUS?MYMODBUS
  +--> ?PR?_SYS_WRITE_VP?SYS

?PR?P13FUNC?UI                            -----    -----      -----    -----
  +--> ?PR?TOUCH_SCAN_13?UI

?PR?TOUCH_SCAN_13?UI                      -----    -----      C111H    0001H
  +--> ?PR?_SYS_READ_VP?SYS
  +--> ?PR?_SYS_WRITE_VP?SYS

?PR?P14FUNC?UI                            -----    -----      -----    -----
  +--> ?PR?TOUCH_SCAN_14?UI

?PR?TOUCH_SCAN_14?UI                      -----    -----      C111H    0001H
  +--> ?PR?_SYS_READ_VP?SYS
  +--> ?PR?SEND_MODBUS_IP?MYMODBUS
  +--> ?PR?_DELAY_MS?SYS
  +--> ?PR?_SYS_WRITE_VP?SYS

?PR?SEND_MODBUS_IP?MYMODBUS               -----    -----      -----    -----
  +--> ?PR?_SYS_READ_VP?SYS
  +--> ?PR?_CRC16?MYMODBUS
  +--> ?PR?_SENDSTRING?MYMODBUS

?PR?P15_17FUNC?UI                         -----    -----      -----    -----
  +--> ?PR?POLLING15_17?UI

?PR?POLLING15_17?UI                       -----    -----      -----    -----
  +--> ?PR?_SEND_MODBUS?MYMODBUS

?PR?P16FUNC?UI                            -----    -----      -----    -----
  +--> ?PR?TOUCH_SCAN_16?UI

?PR?TOUCH_SCAN_16?UI                      -----    -----      C111H    0001H
BL51 BANKED LINKER/LOCATER V6.22.2.0                                                  12/09/2022  13:52:00  PAGE 11


  +--> ?PR?_SYS_READ_VP?SYS
  +--> ?PR?_PAGE_CHANGE?SYS

?PR?PRO8283DEAL?DWIN8283                  -----    -----      -----    -----
  +--> ?PR?AUTOUPLOADVALUE?DWIN8283
  +--> ?PR?_UATR_SEND_DATA?UART
  +--> ?PR?_CANTX?CANBUS
  +--> ?PR?_PRO8283RXTREAT?DWIN8283

?PR?AUTOUPLOADVALUE?DWIN8283              -----    -----      -----    -----
  +--> ?PR?_READ_DGUS_VP?SYS
  +--> ?PR?_WRITE_DGUS_VP?SYS

?PR?_UATR_SEND_DATA?UART                  -----    -----      C10FH    0008H

?PR?_CANTX?CANBUS                         -----    -----      C10FH    0017H
  +--> ?PR?LOADONEFRAME?CANBUS

?PR?_PRO8283RXTREAT?DWIN8283              -----    -----      C10FH    000FH
  +--> ?PR?_WRITE_DGUS_VP?SYS
  +--> ?PR?_READ_DGUS_VP?SYS

?PR?RECEIVE_MODBUS?RECEIVEDATA            -----    -----      C10FH    0022H
  +--> ?PR?_DELAY_MS?SYS
  +--> ?PR?_CRC16?MYMODBUS
  +--> ?PR?_SEND_MODBUS_10?MYMODBUS
  +--> ?PR?_SYS_WRITE_VP?SYS
  +--> ?PR?_PAGE_CHANGE?SYS
  +--> ?PR?_ALM_INIT?RECEIVEDATA
  +--> ?PR?_UART4_SENDBYTE16?UART

?PR?_ALM_INIT?RECEIVEDATA                 -----    -----      -----    -----
  +--> ?PR?_SYS_WRITE_VP?SYS
  +--> ?PR?_PAGE_CHANGE?SYS
  +--> ?PR?_SEND_MODBUS?MYMODBUS

?PR?_UART4_SENDBYTE16?UART                -----    -----      -----    -----
  +--> ?PR?_UART4_SENDBYTE?UART



SYMBOL TABLE OF MODULE:  .\Objects\T5L51 (STARTUP_M5)

  VALUE           TYPE          NAME
  ----------------------------------

  -------         MODULE        STARTUP_M5
  C:0100H         LINE#         30
  -------         ENDMOD        STARTUP_M5

  -------         MODULE        SYS
  C:0000H         SYMBOL        _ICE_DUMMY_
  C:A278H         PUBLIC        INIT_CPU
  X:C076H         PUBLIC        Spi_Flash
  D:00F1H         PUBLIC        ADR_H
  D:0080H         PUBLIC        P0
  D:0090H         PUBLIC        P1
BL51 BANKED LINKER/LOCATER V6.22.2.0                                                  12/09/2022  13:52:00  PAGE 12


  X:C086H         PUBLIC        Nor_Flash
  D:00A0H         PUBLIC        P2
  C:9E52H         PUBLIC        _GetPinIn
  D:00B0H         PUBLIC        P3
  D:00F3H         PUBLIC        ADR_L
  D:0094H         PUBLIC        PAGESEL
  D:00F2H         PUBLIC        ADR_M
  B:00A8H.7       PUBLIC        EA
  D:00F8H         PUBLIC        RAMMODE
  C:781DH         PUBLIC        _write_dgus_vp
  D:00B7H         PUBLIC        P0MDOUT
  D:00BCH         PUBLIC        P1MDOUT
  D:00A8H         PUBLIC        IEN0
  D:00BDH         PUBLIC        P2MDOUT
  D:00B8H         PUBLIC        IEN1
  C:9FE5H         PUBLIC        _SetPinIn
  X:C092H         PUBLIC        PressPosChange
  D:00BEH         PUBLIC        P3MDOUT
  D:009AH         PUBLIC        IEN2
  C:A0C2H         PUBLIC        _SetPinOut
  B:00F8H.4       PUBLIC        APP_ACK
  X:C093H         PUBLIC        RealPosX
  D:00F4H         PUBLIC        ADR_INC
  X:C095H         PUBLIC        RealPosY
  D:001EH         PUBLIC        SysTick_RTC
  C:A195H         PUBLIC        _MusicPlay
  X:C097H         PUBLIC        PressPosX
  X:C099H         PUBLIC        PressPageID
  X:C09BH         PUBLIC        PressPosY
  C:8088H         PUBLIC        SPIFlash_Action
  X:C09DH         PUBLIC        LastPosX
  X:C09FH         PUBLIC        MusicBuf
  X:C0C2H         PUBLIC        LastPosY
  C:88A4H         PUBLIC        _sys_read_vp
  D:0095H         PUBLIC        D_PAGESEL
  C:970BH         PUBLIC        _Page_Change
  X:C0C4H         PUBLIC        Touchstate
  C:A3F2H         PUBLIC        GetPageID
  C:8A6EH         PUBLIC        GetTouchStatus
  D:00F9H         PUBLIC        PORTDRV
  C:7F5CH         PUBLIC        _sys_write_vp
  C:933FH         PUBLIC        _PinOutput
  D:00C9H         PUBLIC        MUX_SEL
  X:C0C5H         PUBLIC        xdistance
  D:00A9H         PUBLIC        IP0
  X:C0C7H         PUBLIC        ydistance
  D:00B9H         PUBLIC        IP1
  C:A2CAH         PUBLIC        ClearRAM
  X:C0C9H         PUBLIC        PosXChangeSpeed
  D:00FDH         PUBLIC        DATA0
  X:C0CBH         PUBLIC        PosYChangeSpeed
  D:00FCH         PUBLIC        DATA1
  D:00FBH         PUBLIC        DATA2
  D:00FAH         PUBLIC        DATA3
  C:A07AH         PUBLIC        _delay_ms
  B:00F8H.6       PUBLIC        APP_EN
  B:00D0H.3       PUBLIC        RS0
BL51 BANKED LINKER/LOCATER V6.22.2.0                                                  12/09/2022  13:52:00  PAGE 13


  B:00D0H.4       PUBLIC        RS1
  D:0093H         PUBLIC        DPC
  C:A3D7H         PUBLIC        _delay_us
  C:A3B3H         PUBLIC        ResetT5L
  C:84E3H         PUBLIC        NorFlash_Action
  D:00C8H         PUBLIC        T2CON
  D:008EH         PUBLIC        CKCON
  C:6F2BH         PUBLIC        _GetTouchAnction
  C:730CH         PUBLIC        _read_dgus_vp
  C:9C1CH         PUBLIC        _TouchSwitch
  -------         PROC          L?0219
  -------         ENDPROC       L?0219
  -------         PROC          _READ_DGUS_VP
  X:C137H         SYMBOL        addr
  X:C139H         SYMBOL        buf
  X:C13CH         SYMBOL        len
  -------         DO            
  X:C13EH         SYMBOL        OS_addr
  X:C140H         SYMBOL        OS_addr_offset
  X:C142H         SYMBOL        OS_len
  X:C144H         SYMBOL        OS_len_offset
  X:C146H         SYMBOL        LenLimit
  -------         ENDDO         
  C:730CH         LINE#         39
  C:731DH         LINE#         40
  C:731DH         LINE#         41
  C:7324H         LINE#         42
  C:7328H         LINE#         43
  C:7330H         LINE#         46
  C:733EH         LINE#         48
  C:7356H         LINE#         49
  C:7371H         LINE#         50
  C:7371H         LINE#         51
  C:7382H         LINE#         52
  C:7382H         LINE#         53
  C:7398H         LINE#         54
  C:73A2H         LINE#         56
  C:73A4H         LINE#         58
  C:73A7H         LINE#         59
  C:73B2H         LINE#         60
  C:73B4H         LINE#         61
  C:73B7H         LINE#         62
  C:73BAH         LINE#         63
  C:73BDH         LINE#         64
  C:73C7H         LINE#         65
  C:73C7H         LINE#         66
  C:73C9H         LINE#         67
  C:73CCH         LINE#         68
  C:73E1H         LINE#         69
  C:73F6H         LINE#         70
  C:7404H         LINE#         71
  C:7404H         LINE#         72
  C:741AH         LINE#         73
  C:7424H         LINE#         74
  C:7432H         LINE#         75
  C:7432H         LINE#         76
  C:7434H         LINE#         77
BL51 BANKED LINKER/LOCATER V6.22.2.0                                                  12/09/2022  13:52:00  PAGE 14


  C:7437H         LINE#         78
  C:744CH         LINE#         79
  C:7461H         LINE#         80
  C:7476H         LINE#         81
  C:748BH         LINE#         82
  C:748DH         LINE#         83
  C:7497H         LINE#         84
  C:7497H         LINE#         85
  C:7499H         LINE#         86
  C:749CH         LINE#         87
  C:74B1H         LINE#         88
  C:74C6H         LINE#         89
  C:74C6H         LINE#         90
  C:74C9H         LINE#         92
  C:74CBH         LINE#         94
  -------         ENDPROC       _READ_DGUS_VP
  -------         PROC          _WRITE_DGUS_VP
  X:C137H         SYMBOL        addr
  X:C139H         SYMBOL        buf
  X:C13CH         SYMBOL        len
  -------         DO            
  D:0004H         SYMBOL        OS_addr
  X:C13EH         SYMBOL        OS_addr_offset
  X:C140H         SYMBOL        OS_len
  X:C142H         SYMBOL        OS_len_offset
  D:0006H         SYMBOL        LenLimit
  -------         ENDDO         
  C:781DH         LINE#         166
  C:782EH         LINE#         167
  C:782EH         LINE#         168
  C:782FH         LINE#         169
  C:7835H         LINE#         170
  C:783DH         LINE#         173
  C:784AH         LINE#         175
  C:7859H         LINE#         176
  C:7866H         LINE#         177
  C:7866H         LINE#         178
  C:786BH         LINE#         179
  C:786BH         LINE#         180
  C:787AH         LINE#         181
  C:7886H         LINE#         183
  C:7888H         LINE#         185
  C:788BH         LINE#         186
  C:788EH         LINE#         187
  C:7892H         LINE#         188
  C:7895H         LINE#         189
  C:7898H         LINE#         190
  C:789BH         LINE#         191
  C:78A5H         LINE#         192
  C:78A5H         LINE#         193
  C:78BAH         LINE#         194
  C:78CFH         LINE#         195
  C:78D1H         LINE#         196
  C:78D4H         LINE#         197
  C:78E2H         LINE#         198
  C:78E2H         LINE#         199
  C:78F8H         LINE#         200
BL51 BANKED LINKER/LOCATER V6.22.2.0                                                  12/09/2022  13:52:00  PAGE 15


  C:7902H         LINE#         201
  C:7905H         LINE#         202
  C:7913H         LINE#         203
  C:7913H         LINE#         204
  C:7928H         LINE#         205
  C:793DH         LINE#         206
  C:7952H         LINE#         207
  C:7967H         LINE#         208
  C:7969H         LINE#         209
  C:796EH         LINE#         210
  C:796EH         LINE#         211
  C:7978H         LINE#         212
  C:7978H         LINE#         213
  C:797BH         LINE#         214
  C:7990H         LINE#         215
  C:79A5H         LINE#         216
  C:79A7H         LINE#         217
  C:79AAH         LINE#         218
  C:79AAH         LINE#         219
  C:79ADH         LINE#         221
  C:79AFH         LINE#         223
  -------         ENDPROC       _WRITE_DGUS_VP
  -------         PROC          INIT_CPU
  C:A278H         LINE#         308
  C:A278H         LINE#         309
  C:A278H         LINE#         310
  C:A27AH         LINE#         311
  C:A27CH         LINE#         312
  C:A27EH         LINE#         314
  C:A281H         LINE#         315
  C:A284H         LINE#         316
  C:A286H         LINE#         317
  C:A289H         LINE#         318
  C:A28CH         LINE#         319
  C:A28FH         LINE#         320
  C:A291H         LINE#         321
  C:A294H         LINE#         322
  C:A296H         LINE#         323
  C:A298H         LINE#         324
  C:A29AH         LINE#         325
  C:A29CH         LINE#         326
  C:A29EH         LINE#         330
  -------         ENDPROC       INIT_CPU
  -------         PROC          CLEARRAM
  -------         DO            
  D:0006H         SYMBOL        ptr
  D:001CH         SYMBOL        i
  -------         ENDDO         
  C:A2CAH         LINE#         333
  C:A2CAH         LINE#         334
  C:A2CAH         LINE#         338
  C:A2CEH         LINE#         340
  C:A2D3H         LINE#         341
  C:A2F1H         LINE#         342
  -------         ENDPROC       CLEARRAM
  -------         PROC          RESETT5L
  -------         DO            
BL51 BANKED LINKER/LOCATER V6.22.2.0                                                  12/09/2022  13:52:00  PAGE 16


  X:C1EAH         SYMBOL        tmp
  -------         ENDDO         
  C:A3B3H         LINE#         344
  C:A3B3H         LINE#         345
  C:A3B3H         LINE#         348
  C:A3BDH         LINE#         349
  -------         ENDPROC       RESETT5L
  C:A3D3H         SYMBOL        L?0221
  -------         PROC          L?0220
  -------         ENDPROC       L?0220
  C:A3D3H         SYMBOL        L?0221
  -------         PROC          _DELAY_US
  D:0006H         SYMBOL        t
  -------         DO            
  D:0005H         SYMBOL        i
  -------         ENDDO         
  C:A3D7H         LINE#         352
  C:A3D7H         LINE#         353
  C:A3D7H         LINE#         356
  C:A3DBH         LINE#         357
  C:A3DBH         LINE#         358
  C:A3E7H         LINE#         359
  C:A3EAH         LINE#         360
  C:A3EFH         LINE#         361
  C:A3F1H         LINE#         362
  -------         ENDPROC       _DELAY_US
  -------         PROC          _TOUCHSWITCH
  D:0006H         SYMBOL        PageID
  D:0005H         SYMBOL        TouchType
  D:0003H         SYMBOL        TouchID
  X:C194H         SYMBOL        Status
  -------         DO            
  X:C195H         SYMBOL        k_data
  -------         ENDDO         
  C:9C1CH         LINE#         364
  C:9C1CH         LINE#         365
  C:9C1CH         LINE#         368
  C:9C26H         LINE#         369
  C:9C2CH         LINE#         370
  C:9C2FH         LINE#         371
  C:9C32H         LINE#         372
  C:9C38H         LINE#         373
  C:9C42H         LINE#         375
  C:9C49H         LINE#         376
  C:9C5FH         LINE#         378
  C:9C5FH         LINE#         379
  C:9C62H         LINE#         380
  C:9C77H         LINE#         381
  C:9C7DH         LINE#         382
  -------         ENDPROC       _TOUCHSWITCH
  -------         PROC          _MUSICPLAY
  X:C1D6H         SYMBOL        MusicId
  -------         DO            
  X:C1D7H         SYMBOL        k_data
  -------         ENDDO         
  C:A195H         LINE#         384
  C:A19AH         LINE#         385
BL51 BANKED LINKER/LOCATER V6.22.2.0                                                  12/09/2022  13:52:00  PAGE 17


  C:A19AH         LINE#         388
  C:A1B0H         LINE#         389
  C:A1B6H         LINE#         390
  C:A1BAH         LINE#         391
  C:A1BFH         LINE#         392
  -------         ENDPROC       _MUSICPLAY
  -------         PROC          NORFLASH_ACTION
  -------         DO            
  X:C1BEH         SYMBOL        buf
  -------         ENDDO         
  C:84E3H         LINE#         433
  C:84E3H         LINE#         434
  C:84E3H         LINE#         437
  C:84ECH         LINE#         438
  C:8504H         LINE#         439
  C:851CH         LINE#         440
  C:8527H         LINE#         441
  C:8534H         LINE#         442
  C:8537H         LINE#         443
  C:8544H         LINE#         444
  C:8547H         LINE#         445
  C:854CH         LINE#         446
  C:854CH         LINE#         447
  C:855AH         LINE#         448
  C:8574H         LINE#         449
  C:8574H         LINE#         450
  C:858AH         LINE#         452
  C:858AH         LINE#         453
  C:858DH         LINE#         454
  C:85A2H         LINE#         455
  C:85A8H         LINE#         456
  C:85B0H         LINE#         457
  C:85B0H         LINE#         458
  C:85BEH         LINE#         459
  C:85D2H         LINE#         460
  C:85D2H         LINE#         461
  -------         ENDPROC       NORFLASH_ACTION
  -------         PROC          SPIFLASH_ACTION
  -------         DO            
  X:C19DH         SYMBOL        buf
  -------         ENDDO         
  C:8088H         LINE#         464
  C:8088H         LINE#         465
  C:8088H         LINE#         468
  C:808EH         LINE#         469
  C:8096H         LINE#         470
  C:809DH         LINE#         471
  C:809DH         LINE#         472
  C:80A6H         LINE#         473
  C:80BEH         LINE#         474
  C:80D6H         LINE#         475
  C:80E1H         LINE#         476
  C:80EEH         LINE#         477
  C:80F1H         LINE#         478
  C:80FEH         LINE#         479
  C:8101H         LINE#         480
  C:8102H         LINE#         481
BL51 BANKED LINKER/LOCATER V6.22.2.0                                                  12/09/2022  13:52:00  PAGE 18


  C:8102H         LINE#         482
  C:8104H         LINE#         483
  C:810AH         LINE#         484
  C:810AH         LINE#         485
  C:8117H         LINE#         486
  C:811AH         LINE#         487
  C:8127H         LINE#         488
  C:812AH         LINE#         489
  C:8137H         LINE#         490
  C:813AH         LINE#         491
  C:813DH         LINE#         492
  C:813FH         LINE#         493
  C:8141H         LINE#         494
  C:8143H         LINE#         495
  C:8143H         LINE#         496
  C:8159H         LINE#         498
  C:8159H         LINE#         499
  C:815CH         LINE#         500
  C:8171H         LINE#         501
  C:8177H         LINE#         502
  C:817FH         LINE#         503
  C:817FH         LINE#         504
  C:818DH         LINE#         505
  C:81A1H         LINE#         506
  C:81A1H         LINE#         507
  -------         ENDPROC       SPIFLASH_ACTION
  -------         PROC          GETPAGEID
  -------         DO            
  X:C1F5H         SYMBOL        nPage
  -------         ENDDO         
  C:A3F2H         LINE#         511
  C:A3F2H         LINE#         512
  C:A3F2H         LINE#         515
  C:A407H         LINE#         516
  C:A40FH         LINE#         517
  -------         ENDPROC       GETPAGEID
  -------         PROC          _PAGE_CHANGE
  X:C131H         SYMBOL        PageID
  -------         DO            
  X:C133H         SYMBOL        buf
  -------         ENDDO         
  C:970BH         LINE#         519
  C:9713H         LINE#         520
  C:9713H         LINE#         523
  C:9717H         LINE#         524
  C:971BH         LINE#         525
  C:9728H         LINE#         526
  C:972BH         LINE#         527
  C:9741H         LINE#         529
  C:9741H         LINE#         530
  C:9744H         LINE#         531
  C:975AH         LINE#         532
  C:976CH         LINE#         533
  C:9771H         LINE#         534
  C:9773H         LINE#         535
  C:9775H         LINE#         536
  C:9777H         LINE#         537
BL51 BANKED LINKER/LOCATER V6.22.2.0                                                  12/09/2022  13:52:00  PAGE 19


  -------         ENDPROC       _PAGE_CHANGE
  -------         PROC          _DELAY_MS
  X:C13FH         SYMBOL        t
  -------         DO            
  X:C141H         SYMBOL        i
  D:0002H         SYMBOL        j
  -------         ENDDO         
  C:A07AH         LINE#         540
  C:A082H         LINE#         541
  C:A082H         LINE#         543
  C:A09CH         LINE#         544
  C:A09CH         LINE#         545
  C:A09FH         LINE#         546
  C:A0B1H         LINE#         547
  C:A0C1H         LINE#         548
  -------         ENDPROC       _DELAY_MS
  -------         PROC          _SETPINOUT
  D:0007H         SYMBOL        Port
  D:0005H         SYMBOL        Pin
  C:A0C2H         LINE#         550
  C:A0C2H         LINE#         551
  C:A0C2H         LINE#         552
  C:A0D0H         LINE#         553
  C:A0D0H         LINE#         554
  C:A0DDH         LINE#         555
  C:A0DEH         LINE#         556
  C:A0EBH         LINE#         557
  C:A0ECH         LINE#         558
  C:A0F9H         LINE#         559
  C:A0FAH         LINE#         560
  C:A109H         LINE#         561
  C:A109H         LINE#         562
  C:A109H         LINE#         563
  C:A109H         LINE#         565
  -------         ENDPROC       _SETPINOUT
  -------         PROC          _SETPININ
  D:0007H         SYMBOL        Port
  D:0005H         SYMBOL        Pin
  C:9FE5H         LINE#         567
  C:9FE5H         LINE#         568
  C:9FE5H         LINE#         569
  C:9FF3H         LINE#         570
  C:9FF3H         LINE#         571
  C:A001H         LINE#         572
  C:A002H         LINE#         573
  C:A010H         LINE#         574
  C:A011H         LINE#         575
  C:A01FH         LINE#         576
  C:A020H         LINE#         577
  C:A030H         LINE#         578
  C:A030H         LINE#         579
  C:A030H         LINE#         580
  C:A030H         LINE#         582
  -------         ENDPROC       _SETPININ
  -------         PROC          _PINOUTPUT
  D:0007H         SYMBOL        Port
  D:0005H         SYMBOL        Pin
BL51 BANKED LINKER/LOCATER V6.22.2.0                                                  12/09/2022  13:52:00  PAGE 20


  D:0003H         SYMBOL        value
  C:933FH         LINE#         586
  C:933FH         LINE#         587
  C:933FH         LINE#         588
  C:9350H         LINE#         589
  C:9350H         LINE#         590
  C:9361H         LINE#         591
  C:936FH         LINE#         592
  C:9370H         LINE#         593
  C:9381H         LINE#         594
  C:938FH         LINE#         595
  C:9390H         LINE#         596
  C:93A1H         LINE#         597
  C:93AFH         LINE#         598
  C:93B0H         LINE#         599
  C:93C1H         LINE#         600
  C:93D1H         LINE#         601
  C:93D1H         LINE#         602
  C:93D1H         LINE#         603
  C:93D1H         LINE#         604
  -------         ENDPROC       _PINOUTPUT
  -------         PROC          _GETPININ
  D:0007H         SYMBOL        Port
  D:0005H         SYMBOL        Pin
  -------         DO            
  D:0006H         SYMBOL        value
  -------         ENDDO         
  C:9E52H         LINE#         608
  C:9E52H         LINE#         609
  C:9E52H         LINE#         611
  C:9E60H         LINE#         612
  C:9E60H         LINE#         613
  C:9E6EH         LINE#         614
  C:9E70H         LINE#         615
  C:9E7EH         LINE#         616
  C:9E80H         LINE#         617
  C:9E8EH         LINE#         618
  C:9E90H         LINE#         619
  C:9EA0H         LINE#         620
  C:9EA2H         LINE#         621
  C:9EA2H         LINE#         622
  C:9EA4H         LINE#         623
  C:9EA4H         LINE#         624
  C:9EA4H         LINE#         625
  C:9EA6H         LINE#         626
  -------         ENDPROC       _GETPININ
  -------         PROC          GETTOUCHSTATUS
  -------         DO            
  X:C1C6H         SYMBOL        k_data
  -------         ENDDO         
  C:8A6EH         LINE#         628
  C:8A6EH         LINE#         629
  C:8A6EH         LINE#         632
  C:8A84H         LINE#         633
  C:8A8FH         LINE#         634
  C:8A8FH         LINE#         635
  C:8A98H         LINE#         636
BL51 BANKED LINKER/LOCATER V6.22.2.0                                                  12/09/2022  13:52:00  PAGE 21


  C:8A98H         LINE#         637
  C:8AAEH         LINE#         638
  C:8AC6H         LINE#         639
  C:8ACAH         LINE#         640
  C:8ACCH         LINE#         641
  C:8AD2H         LINE#         642
  C:8AD2H         LINE#         643
  C:8AE1H         LINE#         644
  C:8AF0H         LINE#         645
  C:8AF6H         LINE#         646
  C:8AF8H         LINE#         648
  C:8AF8H         LINE#         649
  C:8AFEH         LINE#         650
  C:8AFEH         LINE#         651
  C:8B0DH         LINE#         652
  C:8B1CH         LINE#         653
  C:8B21H         LINE#         654
  C:8B36H         LINE#         655
  C:8B38H         LINE#         656
  C:8B38H         LINE#         658
  C:8B38H         LINE#         659
  C:8B44H         LINE#         660
  C:8B44H         LINE#         661
  C:8B49H         LINE#         662
  C:8B49H         LINE#         663
  C:8B4EH         LINE#         664
  C:8B4EH         LINE#         665
  -------         ENDPROC       GETTOUCHSTATUS
  -------         PROC          _GETTOUCHANCTION
  X:C1A9H         SYMBOL        PageID
  -------         DO            
  X:C1ABH         SYMBOL        status
  X:C1ACH         SYMBOL        x2distance
  X:C1B0H         SYMBOL        y2distance
  -------         ENDDO         
  C:6F2BH         LINE#         667
  C:6F33H         LINE#         668
  C:6F33H         LINE#         672
  C:6F3BH         LINE#         673
  C:6F3FH         LINE#         674
  C:6F3FH         LINE#         675
  C:6F43H         LINE#         676
  C:6F45H         LINE#         677
  C:6F45H         LINE#         678
  C:6F4BH         LINE#         679
  C:6F4BH         LINE#         680
  C:6F5FH         LINE#         681
  C:6F65H         LINE#         682
  C:6F67H         LINE#         683
  C:6F67H         LINE#         685
  C:6F67H         LINE#         686
  C:6F7BH         LINE#         687
  C:6F7BH         LINE#         688
  C:6F7EH         LINE#         689
  C:6F7EH         LINE#         690
  C:6F99H         LINE#         691
  C:6FB3H         LINE#         692
BL51 BANKED LINKER/LOCATER V6.22.2.0                                                  12/09/2022  13:52:00  PAGE 22


  C:6FCEH         LINE#         693
  C:6FE8H         LINE#         694
  C:6FF0H         LINE#         695
  C:6FF0H         LINE#         696
  C:6FF8H         LINE#         697
  C:6FF8H         LINE#         698
  C:702BH         LINE#         699
  C:702BH         LINE#         700
  C:7059H         LINE#         701
  C:7059H         LINE#         702
  C:705CH         LINE#         703
  C:705EH         LINE#         704
  C:705EH         LINE#         706
  C:705EH         LINE#         707
  C:7061H         LINE#         708
  C:7063H         LINE#         709
  C:7063H         LINE#         710
  C:7063H         LINE#         711
  C:7063H         LINE#         712
  C:7069H         LINE#         713
  C:7069H         LINE#         715
  C:7069H         LINE#         716
  C:7071H         LINE#         717
  C:7071H         LINE#         718
  C:70A4H         LINE#         719
  C:70A4H         LINE#         720
  C:70D2H         LINE#         721
  C:70D2H         LINE#         722
  C:70D5H         LINE#         723
  C:70D7H         LINE#         725
  C:70D7H         LINE#         726
  C:70DAH         LINE#         727
  C:70DAH         LINE#         728
  C:70DCH         LINE#         730
  C:70DCH         LINE#         731
  C:70DFH         LINE#         732
  C:70DFH         LINE#         733
  C:70DFH         LINE#         734
  C:70E7H         LINE#         735
  C:70E7H         LINE#         736
  C:7102H         LINE#         737
  C:7105H         LINE#         738
  C:7105H         LINE#         740
  C:7105H         LINE#         741
  C:7120H         LINE#         742
  C:7122H         LINE#         743
  C:7122H         LINE#         744
  C:7122H         LINE#         745
  C:7122H         LINE#         746
  -------         ENDPROC       _GETTOUCHANCTION
  -------         PROC          _SYS_READ_VP
  D:0004H         SYMBOL        addr
  X:C115H         SYMBOL        buf
  X:C118H         SYMBOL        len
  -------         DO            
  D:0003H         SYMBOL        i
  -------         ENDDO         
BL51 BANKED LINKER/LOCATER V6.22.2.0                                                  12/09/2022  13:52:00  PAGE 23


  C:88A4H         LINE#         752
  C:88B3H         LINE#         753
  C:88B3H         LINE#         756
  C:88B7H         LINE#         757
  C:88BEH         LINE#         758
  C:88C1H         LINE#         759
  C:88C4H         LINE#         760
  C:88C8H         LINE#         761
  C:88CBH         LINE#         762
  C:88CEH         LINE#         763
  C:88D1H         LINE#         764
  C:88E3H         LINE#         765
  C:88E3H         LINE#         766
  C:88E5H         LINE#         767
  C:88E8H         LINE#         768
  C:88FAH         LINE#         769
  C:88FAH         LINE#         770
  C:890FH         LINE#         771
  C:8924H         LINE#         772
  C:8926H         LINE#         773
  C:8934H         LINE#         774
  C:8934H         LINE#         775
  C:8948H         LINE#         776
  C:8948H         LINE#         777
  C:895DH         LINE#         778
  C:8972H         LINE#         779
  C:8974H         LINE#         780
  C:8982H         LINE#         781
  C:8982H         LINE#         782
  C:8985H         LINE#         783
  C:8988H         LINE#         784
  -------         ENDPROC       _SYS_READ_VP
  -------         PROC          _SYS_WRITE_VP
  D:0004H         SYMBOL        addr
  X:C133H         SYMBOL        buf
  X:C136H         SYMBOL        len
  -------         DO            
  D:0003H         SYMBOL        i
  -------         ENDDO         
  C:7F5CH         LINE#         791
  C:7F6BH         LINE#         792
  C:7F6BH         LINE#         795
  C:7F6FH         LINE#         796
  C:7F76H         LINE#         797
  C:7F79H         LINE#         798
  C:7F7CH         LINE#         799
  C:7F80H         LINE#         800
  C:7F83H         LINE#         801
  C:7F86H         LINE#         802
  C:7F89H         LINE#         803
  C:7F9BH         LINE#         804
  C:7F9BH         LINE#         805
  C:7F9EH         LINE#         806
  C:7FB3H         LINE#         807
  C:7FC8H         LINE#         808
  C:7FCAH         LINE#         809
  C:7FD8H         LINE#         810
BL51 BANKED LINKER/LOCATER V6.22.2.0                                                  12/09/2022  13:52:00  PAGE 24


  C:7FD8H         LINE#         811
  C:7FDBH         LINE#         812
  C:7FEBH         LINE#         813
  C:7FEBH         LINE#         814
  C:8000H         LINE#         815
  C:8015H         LINE#         816
  C:802AH         LINE#         817
  C:803FH         LINE#         818
  C:8041H         LINE#         819
  C:804FH         LINE#         820
  C:8051H         LINE#         821
  C:8055H         LINE#         822
  C:8055H         LINE#         823
  C:8058H         LINE#         824
  C:806DH         LINE#         825
  C:8082H         LINE#         826
  C:8084H         LINE#         827
  C:8084H         LINE#         828
  C:8087H         LINE#         829
  -------         ENDPROC       _SYS_WRITE_VP
  -------         ENDMOD        SYS

  -------         MODULE        TIMER
  C:0000H         SYMBOL        _ICE_DUMMY_
  B:00A8H.7       PUBLIC        EA
  C:A47CH         PUBLIC        _KillTimer
  D:0008H         PUBLIC        TimerTime
  C:A391H         PUBLIC        _StartTimer
  X:C0CDH         PUBLIC        PWMPort
  X:C0D5H         PUBLIC        PWMPin
  X:C0DDH         PUBLIC        PWMLow
  D:0089H         PUBLIC        TMOD
  X:C0EDH         PUBLIC        EnablePWM
  C:978CH         PUBLIC        T0_ISR_PC
  D:0018H         PUBLIC        OutTimeFlag
  B:00A8H.1       PUBLIC        ET0
  B:00C0H.6       PUBLIC        TF2
  D:008CH         PUBLIC        TH0
  D:0019H         PUBLIC        SysTick
  D:001AH         PUBLIC        EnableTimer
  D:008AH         PUBLIC        TL0
  B:0088H.4       PUBLIC        TR0
  C:A4FFH         PUBLIC        timer2_Isr
  C:A4A6H         PUBLIC        _GetTimeOutFlag
  X:C0EEH         PUBLIC        PWMTicks
  C:A410H         PUBLIC        T0_Init
  X:C0FEH         PUBLIC        PWMTotal
  -------         PROC          T0_INIT
  C:A410H         LINE#         46
  C:A410H         LINE#         47
  C:A410H         LINE#         48
  C:A413H         LINE#         50
  C:A416H         LINE#         51
  C:A418H         LINE#         52
  C:A41AH         LINE#         54
  C:A41CH         LINE#         55
  C:A41EH         LINE#         57
BL51 BANKED LINKER/LOCATER V6.22.2.0                                                  12/09/2022  13:52:00  PAGE 25


  C:A421H         LINE#         58
  C:A424H         LINE#         59
  C:A427H         LINE#         60
  C:A429H         LINE#         62
  C:A42BH         LINE#         63
  -------         ENDPROC       T0_INIT
  -------         PROC          T0_ISR_PC
  -------         DO            
  D:001BH         SYMBOL        i
  -------         ENDDO         
  C:978CH         LINE#         74
  C:9799H         LINE#         78
  C:979BH         LINE#         79
  C:979EH         LINE#         80
  C:97A1H         LINE#         81
  C:97A3H         LINE#         82
  C:97ABH         LINE#         83
  C:97B9H         LINE#         84
  C:97B9H         LINE#         85
  C:97CFH         LINE#         86
  C:97CFH         LINE#         87
  C:97DDH         LINE#         88
  C:97EBH         LINE#         89
  C:97EBH         LINE#         90
  C:97F9H         LINE#         91
  C:97FCH         LINE#         92
  C:97FCH         LINE#         93
  C:97FCH         LINE#         94
  C:9800H         LINE#         95
  C:9802H         LINE#         96
  -------         ENDPROC       T0_ISR_PC
  -------         PROC          TIMER2_ISR
  C:A4FFH         LINE#         98
  C:A4FFH         LINE#         100
  C:A501H         LINE#         101
  C:A503H         LINE#         102
  C:A505H         LINE#         103
  -------         ENDPROC       TIMER2_ISR
  -------         PROC          _STARTTIMER
  D:0007H         SYMBOL        ID
  D:0004H         SYMBOL        nTime
  C:A391H         LINE#         118
  C:A391H         LINE#         119
  C:A391H         LINE#         120
  C:A393H         LINE#         121
  C:A3A1H         LINE#         122
  C:A3ACH         LINE#         123
  C:A3B0H         LINE#         124
  C:A3B2H         LINE#         125
  -------         ENDPROC       _STARTTIMER
  -------         PROC          _KILLTIMER
  D:0007H         SYMBOL        ID
  C:A47CH         LINE#         138
  C:A47CH         LINE#         139
  C:A47CH         LINE#         140
  C:A47EH         LINE#         141
  C:A48CH         LINE#         142
BL51 BANKED LINKER/LOCATER V6.22.2.0                                                  12/09/2022  13:52:00  PAGE 26


  C:A48EH         LINE#         143
  C:A490H         LINE#         144
  -------         ENDPROC       _KILLTIMER
  -------         PROC          _GETTIMEOUTFLAG
  D:0007H         SYMBOL        ID
  -------         DO            
  D:0007H         SYMBOL        flag
  -------         ENDDO         
  C:A4A6H         LINE#         156
  C:A4A6H         LINE#         157
  C:A4A6H         LINE#         159
  C:A4A8H         LINE#         160
  C:A4B6H         LINE#         161
  C:A4B8H         LINE#         162
  C:A4B8H         LINE#         164
  -------         ENDPROC       _GETTIMEOUTFLAG
  -------         ENDMOD        TIMER

  -------         MODULE        UART
  C:0000H         SYMBOL        _ICE_DUMMY_
  D:0080H         PUBLIC        P0
  C:9463H         PUBLIC        uart2_Isr
  C:9210H         PUBLIC        uart3_Isr
  B:00A8H.7       PUBLIC        EA
  X:8000H         PUBLIC        Uart_Struct
  D:00A8H         PUBLIC        IEN0
  D:00B8H         PUBLIC        IEN1
  X:A024H         PUBLIC        RxReadPt
  D:009AH         PUBLIC        IEN2
  C:A4D5H         PUBLIC        _UART4_Sendbyte
  X:A026H         PUBLIC        RxWritePt
  D:00BAH         PUBLIC        SREL0H
  D:00BBH         PUBLIC        SREL1H
  D:00AAH         PUBLIC        SREL0L
  C:9EA7H         PUBLIC        _UartInit
  D:009DH         PUBLIC        SREL1L
  D:0097H         PUBLIC        SCON2R
  D:00D9H         PUBLIC        BODE2_DIV_H
  D:00ABH         PUBLIC        SCON3R
  D:00AEH         PUBLIC        BODE3_DIV_H
  D:0096H         PUBLIC        SCON2T
  D:00A7H         PUBLIC        SCON3T
  D:00E7H         PUBLIC        BODE2_DIV_L
  D:00AFH         PUBLIC        BODE3_DIV_L
  D:00C9H         PUBLIC        MUX_SEL
  B:00A8H.4       PUBLIC        ES0
  B:0098H.0       PUBLIC        RI0
  B:0098H.1       PUBLIC        TI0
  D:0099H         PUBLIC        SBUF0
  D:009CH         PUBLIC        SBUF1
  D:0098H         PUBLIC        SCON0
  D:009BH         PUBLIC        SCON1
  C:9F49H         PUBLIC        _UART2_Init
  D:00D8H         PUBLIC        ADCON
  C:A031H         PUBLIC        _UART3_Init
  C:74CCH         PUBLIC        _Uatr_Send_Data
  C:A2F2H         PUBLIC        _UART4_Init
BL51 BANKED LINKER/LOCATER V6.22.2.0                                                  12/09/2022  13:52:00  PAGE 27


  C:A31AH         PUBLIC        _UART5_Init
  X:A028H         PUBLIC        RxBuf
  D:009FH         PUBLIC        SBUF2_RX
  D:00ADH         PUBLIC        SBUF3_RX
  D:009EH         PUBLIC        SBUF2_TX
  D:00ACH         PUBLIC        SBUF3_TX
  C:9EFAH         PUBLIC        uart4r_Isr
  C:A10AH         PUBLIC        uart5r_Isr
  C:9C7EH         PUBLIC        uart4t_Isr
  C:9CDEH         PUBLIC        uart5t_Isr
  C:9D9DH         PUBLIC        _UART4_Sendbyte32
  C:A4E1H         PUBLIC        _UART4_Sendbyte16
  -------         PROC          _UART2_INIT
  D:0004H         SYMBOL        bdt
  -------         DO            
  X:C11EH         SYMBOL        tmp
  -------         ENDDO         
  C:9F49H         LINE#         42
  C:9F49H         LINE#         43
  C:9F49H         LINE#         45
  C:9F6AH         LINE#         46
  C:9F6DH         LINE#         47
  C:9F74H         LINE#         48
  C:9F7BH         LINE#         49
  C:9F7EH         LINE#         50
  C:9F81H         LINE#         51
  C:9F84H         LINE#         52
  C:9F8FH         LINE#         53
  C:9F91H         LINE#         54
  C:9F94H         LINE#         55
  C:9F96H         LINE#         66
  -------         ENDPROC       _UART2_INIT
  -------         PROC          _UART3_INIT
  D:0004H         SYMBOL        bdt
  -------         DO            
  X:C11EH         SYMBOL        tmp
  -------         ENDDO         
  C:A031H         LINE#         81
  C:A031H         LINE#         82
  C:A031H         LINE#         84
  C:A052H         LINE#         86
  C:A055H         LINE#         88
  C:A05CH         LINE#         89
  C:A063H         LINE#         90
  C:A066H         LINE#         92
  C:A069H         LINE#         93
  C:A074H         LINE#         94
  C:A076H         LINE#         95
  C:A079H         LINE#         105
  -------         ENDPROC       _UART3_INIT
  -------         PROC          _UART4_INIT
  D:0004H         SYMBOL        bdt
  -------         DO            
  D:0004H         SYMBOL        tmp
  -------         ENDDO         
  C:A2F2H         LINE#         120
  C:A2F2H         LINE#         121
BL51 BANKED LINKER/LOCATER V6.22.2.0                                                  12/09/2022  13:52:00  PAGE 28


  C:A2F2H         LINE#         123
  C:A2F5H         LINE#         124
  C:A2F8H         LINE#         125
  C:A30FH         LINE#         126
  C:A312H         LINE#         127
  C:A316H         LINE#         129
  C:A319H         LINE#         139
  -------         ENDPROC       _UART4_INIT
  -------         PROC          _UART5_INIT
  D:0004H         SYMBOL        bdt
  -------         DO            
  D:0004H         SYMBOL        tmp
  -------         ENDDO         
  C:A31AH         LINE#         154
  C:A31AH         LINE#         155
  C:A31AH         LINE#         157
  C:A31DH         LINE#         158
  C:A320H         LINE#         160
  C:A337H         LINE#         161
  C:A33AH         LINE#         162
  C:A33EH         LINE#         163
  C:A341H         LINE#         173
  -------         ENDPROC       _UART5_INIT
  -------         PROC          _UARTINIT
  D:0007H         SYMBOL        UartPort
  X:C11AH         SYMBOL        bdt
  C:9EA7H         LINE#         175
  C:9EA7H         LINE#         176
  C:9EA7H         LINE#         177
  C:9EB5H         LINE#         178
  C:9EB5H         LINE#         179
  C:9EC6H         LINE#         180
  C:9ED7H         LINE#         181
  C:9EE8H         LINE#         182
  C:9EF9H         LINE#         183
  C:9EF9H         LINE#         184
  C:9EF9H         LINE#         185
  -------         ENDPROC       _UARTINIT
  -------         PROC          _UATR_SEND_DATA
  X:C10FH         SYMBOL        str
  X:C110H         SYMBOL        len
  X:C112H         SYMBOL        buf
  -------         DO            
  X:C115H         SYMBOL        i
  -------         ENDDO         
  C:74CCH         LINE#         197
  C:74E0H         LINE#         198
  C:74E0H         LINE#         201
  C:74E2H         LINE#         202
  C:74FFH         LINE#         203
  C:74FFH         LINE#         204
  C:7558H         LINE#         205
  C:7577H         LINE#         206
  C:7593H         LINE#         207
  C:75A4H         LINE#         208
  C:75BBH         LINE#         209
  C:75BBH         LINE#         210
BL51 BANKED LINKER/LOCATER V6.22.2.0                                                  12/09/2022  13:52:00  PAGE 29


  C:75BBH         LINE#         211
  C:75C4H         LINE#         212
  C:75C4H         LINE#         216
  C:75C6H         LINE#         217
  C:75D9H         LINE#         218
  C:75E7H         LINE#         219
  C:75EAH         LINE#         220
  C:75EAH         LINE#         221
  C:75EDH         LINE#         222
  C:75EDH         LINE#         223
  C:75F6H         LINE#         224
  C:75F6H         LINE#         228
  C:75F8H         LINE#         229
  C:760BH         LINE#         230
  C:7619H         LINE#         231
  C:761CH         LINE#         232
  C:761CH         LINE#         233
  C:761EH         LINE#         234
  C:761EH         LINE#         235
  C:7624H         LINE#         236
  C:7624H         LINE#         240
  C:7626H         LINE#         241
  C:7639H         LINE#         242
  C:7647H         LINE#         243
  C:764AH         LINE#         244
  C:764AH         LINE#         245
  C:764CH         LINE#         246
  C:764CH         LINE#         247
  C:7652H         LINE#         248
  C:7652H         LINE#         252
  C:7654H         LINE#         253
  C:7667H         LINE#         254
  C:7675H         LINE#         255
  C:767CH         LINE#         256
  C:767CH         LINE#         257
  C:767CH         LINE#         258
  C:767CH         LINE#         259
  C:767CH         LINE#         260
  C:767CH         LINE#         261
  C:767EH         LINE#         262
  -------         ENDPROC       _UATR_SEND_DATA
  -------         PROC          UART2_ISR
  C:9463H         LINE#         264
  C:9472H         LINE#         266
  C:9474H         LINE#         267
  C:9477H         LINE#         268
  C:9477H         LINE#         269
  C:9479H         LINE#         270
  C:948CH         LINE#         271
  C:949AH         LINE#         272
  C:94A1H         LINE#         273
  C:94A1H         LINE#         274
  C:94A4H         LINE#         275
  C:94A4H         LINE#         276
  C:94A6H         LINE#         277
  C:94BAH         LINE#         278
  C:94BAH         LINE#         279
BL51 BANKED LINKER/LOCATER V6.22.2.0                                                  12/09/2022  13:52:00  PAGE 30


  C:94C7H         LINE#         280
  C:94D5H         LINE#         281
  C:94DCH         LINE#         282
  C:94DEH         LINE#         284
  C:94DEH         LINE#         285
  C:94E3H         LINE#         289
  C:94E3H         LINE#         290
  C:94E3H         LINE#         291
  C:94E5H         LINE#         292
  -------         ENDPROC       UART2_ISR
  -------         PROC          UART4T_ISR
  C:9C7EH         LINE#         294
  C:9C8DH         LINE#         296
  C:9C8FH         LINE#         297
  C:9C92H         LINE#         298
  C:9CA6H         LINE#         299
  C:9CA6H         LINE#         300
  C:9CB3H         LINE#         301
  C:9CC1H         LINE#         302
  C:9CC8H         LINE#         303
  C:9CCAH         LINE#         305
  C:9CCAH         LINE#         306
  C:9CCFH         LINE#         310
  C:9CCFH         LINE#         311
  C:9CD1H         LINE#         312
  -------         ENDPROC       UART4T_ISR
  -------         PROC          UART4R_ISR
  -------         DO            
  D:0007H         SYMBOL        res
  -------         ENDDO         
  C:9EFAH         LINE#         314
  C:9F09H         LINE#         323
  C:9F09H         LINE#         324
  C:9F0BH         LINE#         325
  C:9F13H         LINE#         326
  C:9F13H         LINE#         327
  C:9F15H         LINE#         328
  C:9F29H         LINE#         329
  C:9F37H         LINE#         330
  C:9F37H         LINE#         331
  C:9F3AH         LINE#         332
  C:9F3CH         LINE#         333
  -------         ENDPROC       UART4R_ISR
  -------         PROC          _UART4_SENDBYTE
  D:0007H         SYMBOL        dat
  C:A4D5H         LINE#         336
  C:A4D5H         LINE#         337
  C:A4D5H         LINE#         338
  C:A4D7H         LINE#         339
  C:A4DDH         LINE#         340
  C:A4E0H         LINE#         341
  -------         ENDPROC       _UART4_SENDBYTE
  -------         PROC          _UART4_SENDBYTE16
  D:0006H         SYMBOL        dat
  -------         DO            
  D:0005H         SYMBOL        data_L
  D:0007H         SYMBOL        data_H
BL51 BANKED LINKER/LOCATER V6.22.2.0                                                  12/09/2022  13:52:00  PAGE 31


  -------         ENDDO         
  C:A4E1H         LINE#         343
  C:A4E1H         LINE#         344
  C:A4E1H         LINE#         346
  C:A4E3H         LINE#         347
  C:A4E5H         LINE#         348
  C:A4E8H         LINE#         349
  -------         ENDPROC       _UART4_SENDBYTE16
  -------         PROC          _UART4_SENDBYTE32
  X:C1EEH         SYMBOL        dat
  -------         DO            
  D:0001H         SYMBOL        data_8
  D:0003H         SYMBOL        data_16
  D:0002H         SYMBOL        data_24
  D:0007H         SYMBOL        data_32
  -------         ENDDO         
  C:9D9DH         LINE#         353
  C:9DA3H         LINE#         354
  C:9DA3H         LINE#         356
  C:9DB3H         LINE#         357
  C:9DC1H         LINE#         358
  C:9DD6H         LINE#         359
  C:9DE9H         LINE#         360
  C:9DECH         LINE#         361
  C:9DF1H         LINE#         362
  C:9DF6H         LINE#         363
  -------         ENDPROC       _UART4_SENDBYTE32
  -------         PROC          UART5T_ISR
  C:9CDEH         LINE#         368
  C:9CEDH         LINE#         370
  C:9CEFH         LINE#         371
  C:9CF2H         LINE#         372
  C:9D06H         LINE#         373
  C:9D06H         LINE#         374
  C:9D13H         LINE#         375
  C:9D21H         LINE#         376
  C:9D28H         LINE#         377
  C:9D2AH         LINE#         379
  C:9D2AH         LINE#         380
  C:9D2FH         LINE#         384
  C:9D2FH         LINE#         385
  C:9D31H         LINE#         386
  -------         ENDPROC       UART5T_ISR
  -------         PROC          UART5R_ISR
  C:A10AH         LINE#         388
  C:A117H         LINE#         390
  C:A119H         LINE#         391
  C:A11CH         LINE#         392
  C:A12FH         LINE#         393
  C:A13DH         LINE#         394
  C:A144H         LINE#         395
  C:A146H         LINE#         396
  -------         ENDPROC       UART5R_ISR
  -------         PROC          UART3_ISR
  C:9210H         LINE#         398
  C:921FH         LINE#         400
  C:9221H         LINE#         401
BL51 BANKED LINKER/LOCATER V6.22.2.0                                                  12/09/2022  13:52:00  PAGE 32


  C:9226H         LINE#         402
  C:9226H         LINE#         403
  C:9229H         LINE#         404
  C:922CH         LINE#         405
  C:923FH         LINE#         406
  C:924DH         LINE#         407
  C:9254H         LINE#         408
  C:9254H         LINE#         409
  C:9259H         LINE#         410
  C:9259H         LINE#         411
  C:925CH         LINE#         412
  C:925FH         LINE#         413
  C:9273H         LINE#         414
  C:9273H         LINE#         415
  C:9280H         LINE#         416
  C:928EH         LINE#         417
  C:9295H         LINE#         418
  C:9297H         LINE#         420
  C:9297H         LINE#         421
  C:929CH         LINE#         425
  C:929CH         LINE#         426
  C:929CH         LINE#         427
  C:929EH         LINE#         428
  -------         ENDPROC       UART3_ISR
  -------         ENDMOD        UART

  -------         MODULE        CANBUS
  C:0000H         SYMBOL        _ICE_DUMMY_
  D:00F1H         PUBLIC        ADR_H
  D:00F3H         PUBLIC        ADR_L
  D:00F2H         PUBLIC        ADR_M
  B:00A8H.7       PUBLIC        EA
  D:00F8H         PUBLIC        RAMMODE
  X:A228H         PUBLIC        CanData
  B:00F8H.4       PUBLIC        APP_ACK
  D:00F4H         PUBLIC        ADR_INC
  C:7CB1H         PUBLIC        LoadOneFrame
  B:00B8H.1       PUBLIC        ECAN
  C:5DB7H         PUBLIC        Can_Isr
  C:A42CH         PUBLIC        CanErrorReset
  D:00C9H         PUBLIC        MUX_SEL
  D:008FH         PUBLIC        CAN_CR
  D:00FDH         PUBLIC        DATA0
  D:00FCH         PUBLIC        DATA1
  D:00E8H         PUBLIC        CAN_ET
  D:00FBH         PUBLIC        DATA2
  D:00FAH         PUBLIC        DATA3
  D:0091H         PUBLIC        CAN_IR
  B:00F8H.6       PUBLIC        APP_EN
  C:93D2H         PUBLIC        _CanBusInit
  C:63FCH         PUBLIC        _CanTx
  -------         PROC          _CANBUSINIT
  X:C119H         SYMBOL        RegCfg
  C:93D2H         LINE#         26
  C:93DDH         LINE#         27
  C:93DDH         LINE#         28
  C:93E4H         LINE#         29
BL51 BANKED LINKER/LOCATER V6.22.2.0                                                  12/09/2022  13:52:00  PAGE 33


  C:93EBH         LINE#         30
  C:93F4H         LINE#         31
  C:93F7H         LINE#         32
  C:93FAH         LINE#         33
  C:93FDH         LINE#         34
  C:9400H         LINE#         35
  C:9403H         LINE#         36
  C:9406H         LINE#         37
  C:9409H         LINE#         44
  C:9419H         LINE#         45
  C:9421H         LINE#         46
  C:9429H         LINE#         47
  C:9431H         LINE#         49
  C:9433H         LINE#         50
  C:9436H         LINE#         51
  C:9439H         LINE#         52
  C:943BH         LINE#         53
  C:943DH         LINE#         54
  C:943FH         LINE#         55
  C:9441H         LINE#         56
  C:9444H         LINE#         57
  C:9447H         LINE#         58
  C:944AH         LINE#         59
  C:944DH         LINE#         60
  C:9450H         LINE#         61
  C:9452H         LINE#         62
  C:9455H         LINE#         63
  C:9458H         LINE#         64
  C:945BH         LINE#         65
  C:9460H         LINE#         66
  C:9462H         LINE#         67
  -------         ENDPROC       _CANBUSINIT
  -------         PROC          CANERRORRESET
  C:A42CH         LINE#         84
  C:A42CH         LINE#         85
  C:A42CH         LINE#         87
  C:A431H         LINE#         88
  C:A431H         LINE#         89
  C:A434H         LINE#         90
  C:A437H         LINE#         91
  C:A43EH         LINE#         92
  C:A441H         LINE#         93
  C:A446H         LINE#         94
  C:A446H         LINE#         96
  -------         ENDPROC       CANERRORRESET
  -------         PROC          LOADONEFRAME
  C:7CB1H         LINE#         99
  C:7CB1H         LINE#         100
  C:7CB1H         LINE#         101
  C:7CB4H         LINE#         102
  C:7CB7H         LINE#         103
  C:7CBAH         LINE#         104
  C:7CBDH         LINE#         105
  C:7CC0H         LINE#         106
  C:7CC3H         LINE#         107
  C:7CD8H         LINE#         108
  C:7CDBH         LINE#         109
BL51 BANKED LINKER/LOCATER V6.22.2.0                                                  12/09/2022  13:52:00  PAGE 34


  C:7CDDH         LINE#         110
  C:7CDFH         LINE#         111
  C:7CE1H         LINE#         112
  C:7CE4H         LINE#         113
  C:7D09H         LINE#         114
  C:7D2AH         LINE#         115
  C:7D4FH         LINE#         116
  C:7D64H         LINE#         117
  C:7D66H         LINE#         118
  C:7D69H         LINE#         119
  C:7D7FH         LINE#         120
  C:7D91H         LINE#         121
  C:7DA7H         LINE#         122
  C:7DB9H         LINE#         123
  C:7DBBH         LINE#         124
  C:7DBEH         LINE#         125
  C:7DD4H         LINE#         126
  C:7DE6H         LINE#         127
  C:7DFCH         LINE#         128
  C:7E0EH         LINE#         129
  C:7E10H         LINE#         130
  C:7E13H         LINE#         131
  C:7E19H         LINE#         132
  C:7E1CH         LINE#         133
  -------         ENDPROC       LOADONEFRAME
  -------         PROC          _CANTX
  X:C10FH         SYMBOL        ID
  X:C113H         SYMBOL        status
  X:C114H         SYMBOL        len
  X:C116H         SYMBOL        pData
  -------         DO            
  X:C119H         SYMBOL        i
  X:C11AH         SYMBOL        j
  X:C11BH         SYMBOL        k
  X:C11CH         SYMBOL        framnum
  X:C11DH         SYMBOL        framoffset
  X:C11EH         SYMBOL        idtmp
  X:C122H         SYMBOL        statustmp
  -------         ENDDO         
  C:63FCH         LINE#         136
  C:6402H         LINE#         137
  C:6402H         LINE#         141
  C:6414H         LINE#         143
  C:641FH         LINE#         144
  C:641FH         LINE#         145
  C:642CH         LINE#         146
  C:642EH         LINE#         148
  C:642EH         LINE#         149
  C:6444H         LINE#         150
  C:6444H         LINE#         151
  C:645BH         LINE#         152
  C:645BH         LINE#         153
  C:647BH         LINE#         154
  C:6490H         LINE#         155
  C:6490H         LINE#         156
  C:6493H         LINE#         158
  C:6493H         LINE#         159
BL51 BANKED LINKER/LOCATER V6.22.2.0                                                  12/09/2022  13:52:00  PAGE 35


  C:64AAH         LINE#         160
  C:64AFH         LINE#         161
  C:64B4H         LINE#         162
  C:64C5H         LINE#         163
  C:64DAH         LINE#         164
  C:64DAH         LINE#         165
  C:64FEH         LINE#         166
  C:651FH         LINE#         167
  C:6532H         LINE#         168
  C:6532H         LINE#         169
  C:6568H         LINE#         170
  C:656EH         LINE#         171
  C:6576H         LINE#         172
  C:657CH         LINE#         173
  C:6585H         LINE#         174
  C:658FH         LINE#         175
  C:658FH         LINE#         176
  C:65B0H         LINE#         177
  C:65D3H         LINE#         178
  C:65E6H         LINE#         179
  C:65E6H         LINE#         180
  C:661CH         LINE#         181
  C:6622H         LINE#         182
  C:662AH         LINE#         183
  C:6638H         LINE#         184
  C:665EH         LINE#         185
  C:6664H         LINE#         186
  C:6664H         LINE#         187
  C:6664H         LINE#         188
  C:666AH         LINE#         189
  C:666AH         LINE#         190
  C:666CH         LINE#         191
  C:666FH         LINE#         192
  C:6671H         LINE#         193
  C:6677H         LINE#         194
  C:667AH         LINE#         195
  C:667AH         LINE#         196
  -------         ENDPROC       _CANTX
  -------         PROC          CAN_ISR
  -------         DO            
  X:C10EH         SYMBOL        status
  -------         ENDDO         
  C:5DB7H         LINE#         198
  C:5DD4H         LINE#         202
  C:5DD6H         LINE#         203
  C:5DDEH         LINE#         204
  C:5DDEH         LINE#         205
  C:5DE1H         LINE#         206
  C:5DE1H         LINE#         207
  C:5DECH         LINE#         208
  C:5DECH         LINE#         209
  C:5DEFH         LINE#         210
  C:5DF2H         LINE#         211
  C:5DF4H         LINE#         212
  C:5DF7H         LINE#         213
  C:5DFAH         LINE#         214
  C:5DFDH         LINE#         215
BL51 BANKED LINKER/LOCATER V6.22.2.0                                                  12/09/2022  13:52:00  PAGE 36


  C:5E00H         LINE#         216
  C:5E02H         LINE#         217
  C:5E05H         LINE#         218
  C:5E0BH         LINE#         219
  C:5E21H         LINE#         220
  C:5E23H         LINE#         221
  C:5E26H         LINE#         222
  C:5E53H         LINE#         223
  C:5E86H         LINE#         224
  C:5EB3H         LINE#         225
  C:5EE6H         LINE#         226
  C:5F13H         LINE#         227
  C:5F46H         LINE#         228
  C:5F73H         LINE#         229
  C:5FA6H         LINE#         230
  C:5FD3H         LINE#         231
  C:5FDBH         LINE#         232
  C:5FDBH         LINE#         233
  C:6008H         LINE#         234
  C:6008H         LINE#         235
  C:6013H         LINE#         236
  C:6013H         LINE#         237
  C:6015H         LINE#         238
  C:6018H         LINE#         239
  C:602EH         LINE#         240
  C:6040H         LINE#         241
  C:6052H         LINE#         242
  C:6064H         LINE#         243
  C:6066H         LINE#         244
  C:6069H         LINE#         245
  C:607FH         LINE#         246
  C:6091H         LINE#         247
  C:60A3H         LINE#         248
  C:60B5H         LINE#         249
  C:60B5H         LINE#         250
  C:60B8H         LINE#         251
  C:60BEH         LINE#         252
  C:60BEH         LINE#         253
  C:60C6H         LINE#         254
  C:60C6H         LINE#         255
  C:60C9H         LINE#         256
  C:60D3H         LINE#         257
  C:60D3H         LINE#         258
  C:60D6H         LINE#         259
  C:60D9H         LINE#         260
  C:60DBH         LINE#         262
  C:60DBH         LINE#         263
  C:60E0H         LINE#         264
  C:60E0H         LINE#         265
  C:60E0H         LINE#         266
  C:60E8H         LINE#         267
  C:60E8H         LINE#         268
  C:60EBH         LINE#         269
  C:60EBH         LINE#         270
  C:60F3H         LINE#         271
  C:60F3H         LINE#         272
  C:60F6H         LINE#         273
BL51 BANKED LINKER/LOCATER V6.22.2.0                                                  12/09/2022  13:52:00  PAGE 37


  C:60F6H         LINE#         274
  C:60FEH         LINE#         275
  C:60FEH         LINE#         276
  C:6101H         LINE#         277
  C:6104H         LINE#         278
  C:6104H         LINE#         279
  C:6107H         LINE#         280
  C:6109H         LINE#         281
  -------         ENDPROC       CAN_ISR
  -------         ENDMOD        CANBUS

  -------         MODULE        MAIN
  C:0000H         SYMBOL        _ICE_DUMMY_
  D:00B0H         PUBLIC        P3
  B:00A8H.7       PUBLIC        EA
  D:00BCH         PUBLIC        P1MDOUT
  C:82C2H         PUBLIC        Sta_Init
  C:99F7H         PUBLIC        main
  D:00F9H         PUBLIC        PORTDRV
  C:A506H         PUBLIC        io_init
  -------         PROC          IO_INIT
  C:A506H         LINE#         15
  C:A506H         LINE#         16
  C:A506H         LINE#         17
  C:A509H         LINE#         27
  C:A50CH         LINE#         28
  -------         ENDPROC       IO_INIT
  -------         PROC          MAIN
  C:99F7H         LINE#         30
  C:99F7H         LINE#         31
  C:99F7H         LINE#         34
  C:99FAH         LINE#         35
  C:99FDH         LINE#         36
  C:9A00H         LINE#         37
  C:9A03H         LINE#         38
  C:9A05H         LINE#         39
  C:9A0EH         LINE#         40
  C:9A17H         LINE#         43
  C:9A1AH         LINE#         44
  C:9A21H         LINE#         45
  C:9A24H         LINE#         47
  C:9A27H         LINE#         49
  C:9A36H         LINE#         50
  C:9A39H         LINE#         51
  C:9A3CH         LINE#         53
  C:9A3CH         LINE#         54
  C:9A3CH         LINE#         71
  C:9A44H         LINE#         72
  C:9A44H         LINE#         73
  C:9A47H         LINE#         74
  C:9A50H         LINE#         75
  C:9A50H         LINE#         76
  C:9A58H         LINE#         77
  C:9A58H         LINE#         78
  C:9A5BH         LINE#         79
  C:9A64H         LINE#         80
  C:9A64H         LINE#         83
BL51 BANKED LINKER/LOCATER V6.22.2.0                                                  12/09/2022  13:52:00  PAGE 38


  C:9A67H         LINE#         85
  -------         ENDPROC       MAIN
  -------         PROC          STA_INIT
  -------         DO            
  X:C10FH         SYMBOL        Dat
  -------         ENDDO         
  C:82C2H         LINE#         89
  C:82C2H         LINE#         90
  C:82C2H         LINE#         94
  C:82C9H         LINE#         95
  C:82DDH         LINE#         96
  C:82E6H         LINE#         97
  C:82FAH         LINE#         98
  C:8303H         LINE#         99
  C:8317H         LINE#         100
  C:831FH         LINE#         101
  C:8333H         LINE#         103
  C:833BH         LINE#         105
  C:834FH         LINE#         109
  C:8357H         LINE#         110
  C:836BH         LINE#         111
  C:8380H         LINE#         112
  C:8395H         LINE#         113
  C:83AAH         LINE#         114
  C:83BFH         LINE#         115
  -------         ENDPROC       STA_INIT
  -------         ENDMOD        MAIN

  -------         MODULE        CONST
  C:0000H         SYMBOL        _ICE_DUMMY_
  -------         ENDMOD        CONST

  -------         MODULE        UI
  C:0000H         SYMBOL        _ICE_DUMMY_
  C:6B14H         PUBLIC        Polling10_12
  D:00F1H         PUBLIC        ADR_H
  C:7B36H         PUBLIC        Touch_Scan_3
  C:767FH         PUBLIC        Touch_Scan_4
  C:81A8H         PUBLIC        Touch_Scan_5
  C:A525H         PUBLIC        P10_12Func
  D:00F3H         PUBLIC        ADR_L
  D:00F2H         PUBLIC        ADR_M
  B:00A8H.7       PUBLIC        EA
  D:00F8H         PUBLIC        RAMMODE
  C:6124H         PUBLIC        Polling15_17
  C:A547H         PUBLIC        Polling2
  C:A543H         PUBLIC        P15_17Func
  C:A50DH         PUBLIC        P0Func
  C:A513H         PUBLIC        P1Func
  C:A519H         PUBLIC        P2Func
  C:A4EDH         PUBLIC        P3Func
  B:00F8H.4       PUBLIC        APP_ACK
  C:A537H         PUBLIC        P4Func
  D:00F4H         PUBLIC        ADR_INC
  C:A51FH         PUBLIC        P5Func
  C:A491H         PUBLIC        P9Func
  C:4E98H         PUBLIC        Polling1_6
BL51 BANKED LINKER/LOCATER V6.22.2.0                                                  12/09/2022  13:52:00  PAGE 39


  C:2031H         PUBLIC        Touch_Scan_1_2_6
  C:7123H         PUBLIC        Touch_Scan_13
  C:980DH         PUBLIC        Touch_Scan_14
  C:86CFH         PUBLIC        Touch_Scan_16
  C:A53AH         PUBLIC        P13Func
  C:A53DH         PUBLIC        P14Func
  C:A540H         PUBLIC        P16Func
  C:A546H         PUBLIC        P18Func
  C:2BC4H         PUBLIC        File_Control
  C:9B4AH         PUBLIC        PageFunction
  D:00FBH         PUBLIC        DATA2
  D:00FAH         PUBLIC        DATA3
  C:599AH         PUBLIC        Coordinate_Control
  B:00F8H.6       PUBLIC        APP_EN
  C:A1D4H         PUBLIC        _PagePointer
  C:8989H         PUBLIC        Contorl
  C:68D7H         PUBLIC        Touch_Scan_10_12
  C:9605H         PUBLIC        Touch_Scan_0
  -------         PROC          P0FUNC
  C:A50DH         LINE#         8
  C:A50DH         LINE#         9
  C:A50DH         LINE#         10
  C:A510H         LINE#         11
  -------         ENDPROC       P0FUNC
  -------         PROC          P1FUNC
  C:A513H         LINE#         15
  C:A513H         LINE#         16
  C:A513H         LINE#         17
  C:A516H         LINE#         18
  -------         ENDPROC       P1FUNC
  -------         PROC          P2FUNC
  C:A519H         LINE#         20
  C:A519H         LINE#         21
  C:A519H         LINE#         22
  C:A51CH         LINE#         23
  -------         ENDPROC       P2FUNC
  -------         PROC          P3FUNC
  C:A4EDH         LINE#         26
  C:A4EDH         LINE#         27
  C:A4EDH         LINE#         28
  C:A4F0H         LINE#         29
  C:A4F3H         LINE#         31
  -------         ENDPROC       P3FUNC
  -------         PROC          P4FUNC
  C:A537H         LINE#         33
  C:A537H         LINE#         34
  C:A537H         LINE#         35
  -------         ENDPROC       P4FUNC
  -------         PROC          P5FUNC
  C:A51FH         LINE#         38
  C:A51FH         LINE#         39
  C:A51FH         LINE#         40
  C:A522H         LINE#         41
  -------         ENDPROC       P5FUNC
  -------         PROC          P9FUNC
  C:A491H         LINE#         43
  C:A491H         LINE#         44
BL51 BANKED LINKER/LOCATER V6.22.2.0                                                  12/09/2022  13:52:00  PAGE 40


  C:A491H         LINE#         45
  C:A498H         LINE#         47
  C:A49EH         LINE#         49
  C:A4A5H         LINE#         50
  -------         ENDPROC       P9FUNC
  -------         PROC          P10_12FUNC
  C:A525H         LINE#         52
  C:A525H         LINE#         53
  C:A525H         LINE#         54
  C:A528H         LINE#         55
  -------         ENDPROC       P10_12FUNC
  -------         PROC          P13FUNC
  C:A53AH         LINE#         58
  C:A53AH         LINE#         59
  C:A53AH         LINE#         60
  -------         ENDPROC       P13FUNC
  -------         PROC          P14FUNC
  C:A53DH         LINE#         63
  C:A53DH         LINE#         64
  C:A53DH         LINE#         65
  -------         ENDPROC       P14FUNC
  -------         PROC          P16FUNC
  C:A540H         LINE#         69
  C:A540H         LINE#         70
  C:A540H         LINE#         71
  -------         ENDPROC       P16FUNC
  -------         PROC          P18FUNC
  C:A546H         LINE#         75
  C:A546H         LINE#         76
  C:A546H         LINE#         78
  -------         ENDPROC       P18FUNC
  -------         PROC          P15_17FUNC
  C:A543H         LINE#         80
  C:A543H         LINE#         81
  C:A543H         LINE#         82
  -------         ENDPROC       P15_17FUNC
  -------         PROC          PAGEFUNCTION
  -------         DO            
  X:C10FH         SYMBOL        pageid
  -------         ENDDO         
  C:9B4AH         LINE#         90
  C:9B4AH         LINE#         91
  C:9B4AH         LINE#         94
  C:9B4CH         LINE#         95
  C:9B4FH         LINE#         96
  C:9B51H         LINE#         97
  C:9B54H         LINE#         98
  C:9B57H         LINE#         99
  C:9B5AH         LINE#         100
  C:9B5DH         LINE#         101
  C:9B5FH         LINE#         102
  C:9B62H         LINE#         103
  C:9B6CH         LINE#         104
  C:9B77H         LINE#         105
  C:9B83H         LINE#         106
  C:9B86H         LINE#         107
  C:9B88H         LINE#         108
BL51 BANKED LINKER/LOCATER V6.22.2.0                                                  12/09/2022  13:52:00  PAGE 41


  C:9BADH         LINE#         109
  C:9BADH         LINE#         110
  C:9BB4H         LINE#         111
  C:9BB4H         LINE#         112
  -------         ENDPROC       PAGEFUNCTION
  -------         PROC          CONTORL
  C:8989H         LINE#         115
  C:8989H         LINE#         116
  C:8989H         LINE#         117
  C:8992H         LINE#         118
  C:8992H         LINE#         119
  C:89A0H         LINE#         120
  C:89B2H         LINE#         121
  C:89B2H         LINE#         122
  C:89B6H         LINE#         123
  C:89BEH         LINE#         124
  C:89CFH         LINE#         126
  C:89D6H         LINE#         127
  C:89EAH         LINE#         129
  C:89F2H         LINE#         130
  C:8A06H         LINE#         131
  C:8A10H         LINE#         132
  C:8A10H         LINE#         133
  C:8A12H         LINE#         135
  C:8A12H         LINE#         136
  C:8A18H         LINE#         137
  C:8A18H         LINE#         138
  C:8A26H         LINE#         139
  C:8A35H         LINE#         140
  C:8A35H         LINE#         141
  C:8A39H         LINE#         142
  C:8A41H         LINE#         143
  C:8A52H         LINE#         145
  C:8A59H         LINE#         146
  C:8A6DH         LINE#         148
  C:8A6DH         LINE#         149
  C:8A6DH         LINE#         150
  C:8A6DH         LINE#         152
  -------         ENDPROC       CONTORL
  -------         PROC          POLLING1_6
  C:4E98H         LINE#         155
  C:4E98H         LINE#         156
  C:4E98H         LINE#         157
  C:4EA3H         LINE#         158
  C:4EA3H         LINE#         159
  C:4EAEH         LINE#         160
  C:4EAEH         LINE#         161
  C:4EEDH         LINE#         162
  C:4EEDH         LINE#         163
  C:4EEDH         LINE#         164
  C:4EF7H         LINE#         166
  C:4F08H         LINE#         167
  C:4F16H         LINE#         168
  C:4F28H         LINE#         169
  C:4F28H         LINE#         170
  C:4F2BH         LINE#         171
  C:4F2BH         LINE#         172
BL51 BANKED LINKER/LOCATER V6.22.2.0                                                  12/09/2022  13:52:00  PAGE 42


  C:4F2BH         LINE#         173
  C:4F2EH         LINE#         174
  C:4F2EH         LINE#         175
  C:4F38H         LINE#         176
  C:4F49H         LINE#         177
  C:4F57H         LINE#         178
  C:4F69H         LINE#         179
  C:4F69H         LINE#         180
  C:4F71H         LINE#         181
  C:4F71H         LINE#         182
  C:4F71H         LINE#         183
  C:4F74H         LINE#         184
  C:4F74H         LINE#         185
  C:4F7EH         LINE#         186
  C:4F8FH         LINE#         187
  C:4F9DH         LINE#         188
  C:4FAFH         LINE#         189
  C:4FAFH         LINE#         190
  C:4FB7H         LINE#         191
  C:4FB7H         LINE#         192
  C:4FB7H         LINE#         193
  C:4FBAH         LINE#         194
  C:4FBAH         LINE#         195
  C:4FC4H         LINE#         196
  C:4FD5H         LINE#         197
  C:4FE3H         LINE#         198
  C:4FF5H         LINE#         199
  C:4FF5H         LINE#         200
  C:4FFDH         LINE#         201
  C:4FFDH         LINE#         202
  C:4FFDH         LINE#         203
  C:5000H         LINE#         204
  C:5000H         LINE#         205
  C:5009H         LINE#         206
  C:501AH         LINE#         207
  C:5028H         LINE#         208
  C:503AH         LINE#         209
  C:503AH         LINE#         210
  C:5042H         LINE#         211
  C:5042H         LINE#         212
  C:5042H         LINE#         213
  C:5045H         LINE#         214
  C:5045H         LINE#         215
  C:504FH         LINE#         216
  C:5060H         LINE#         217
  C:506EH         LINE#         218
  C:5080H         LINE#         219
  C:5080H         LINE#         220
  C:5088H         LINE#         221
  C:5088H         LINE#         222
  C:5088H         LINE#         223
  C:508BH         LINE#         224
  C:508BH         LINE#         225
  C:5095H         LINE#         226
  C:50A6H         LINE#         227
  C:50B4H         LINE#         228
  C:50C6H         LINE#         229
BL51 BANKED LINKER/LOCATER V6.22.2.0                                                  12/09/2022  13:52:00  PAGE 43


  C:50C6H         LINE#         230
  C:50CEH         LINE#         231
  C:50CEH         LINE#         232
  C:50CEH         LINE#         233
  C:50D1H         LINE#         234
  C:50D1H         LINE#         235
  C:50DBH         LINE#         236
  C:50ECH         LINE#         237
  C:50FAH         LINE#         238
  C:510CH         LINE#         239
  C:510CH         LINE#         240
  C:5114H         LINE#         241
  C:5114H         LINE#         242
  C:5114H         LINE#         243
  C:5117H         LINE#         244
  C:5117H         LINE#         245
  C:5121H         LINE#         246
  C:5132H         LINE#         247
  C:5140H         LINE#         248
  C:5152H         LINE#         249
  C:5152H         LINE#         250
  C:515AH         LINE#         251
  C:515AH         LINE#         252
  C:515AH         LINE#         253
  C:515DH         LINE#         254
  C:515DH         LINE#         257
  C:516BH         LINE#         258
  C:517DH         LINE#         259
  C:517DH         LINE#         260
  C:5185H         LINE#         261
  C:5185H         LINE#         262
  C:5185H         LINE#         264
  C:5188H         LINE#         265
  C:5188H         LINE#         266
  C:518CH         LINE#         267
  C:518FH         LINE#         268
  C:518FH         LINE#         269
  C:518FH         LINE#         271
  C:51A5H         LINE#         272
  C:51A5H         LINE#         273
  C:51E1H         LINE#         274
  C:51E1H         LINE#         275
  C:51E1H         LINE#         276
  C:51EDH         LINE#         277
  C:51EDH         LINE#         278
  C:51F4H         LINE#         279
  C:51F5H         LINE#         281
  C:51F5H         LINE#         282
  C:51FFH         LINE#         283
  C:5210H         LINE#         284
  C:521EH         LINE#         285
  C:5230H         LINE#         286
  C:5230H         LINE#         287
  C:5238H         LINE#         288
  C:523CH         LINE#         289
  C:523CH         LINE#         290
  C:523CH         LINE#         291
BL51 BANKED LINKER/LOCATER V6.22.2.0                                                  12/09/2022  13:52:00  PAGE 44


  C:523FH         LINE#         292
  C:523FH         LINE#         293
  C:5248H         LINE#         294
  C:5249H         LINE#         295
  C:5249H         LINE#         296
  C:5253H         LINE#         297
  C:5264H         LINE#         298
  C:5272H         LINE#         299
  C:5284H         LINE#         300
  C:5284H         LINE#         301
  C:528DH         LINE#         302
  C:5291H         LINE#         303
  C:5291H         LINE#         304
  C:5294H         LINE#         305
  C:5294H         LINE#         306
  C:529EH         LINE#         307
  C:52AFH         LINE#         308
  C:52BDH         LINE#         309
  C:52CFH         LINE#         310
  C:52CFH         LINE#         311
  C:52D8H         LINE#         312
  C:52DCH         LINE#         313
  C:52DCH         LINE#         314
  C:52DFH         LINE#         315
  C:52DFH         LINE#         316
  C:52E9H         LINE#         317
  C:52FAH         LINE#         318
  C:5308H         LINE#         319
  C:531AH         LINE#         320
  C:531AH         LINE#         321
  C:5323H         LINE#         322
  C:5327H         LINE#         323
  C:5327H         LINE#         324
  C:532AH         LINE#         325
  C:532AH         LINE#         326
  C:5336H         LINE#         327
  C:5336H         LINE#         328
  C:533EH         LINE#         329
  C:533FH         LINE#         331
  C:533FH         LINE#         332
  C:5349H         LINE#         333
  C:535AH         LINE#         334
  C:5368H         LINE#         335
  C:537AH         LINE#         336
  C:537AH         LINE#         337
  C:5383H         LINE#         338
  C:5387H         LINE#         339
  C:5387H         LINE#         340
  C:5387H         LINE#         341
  C:538AH         LINE#         342
  C:538AH         LINE#         343
  C:5396H         LINE#         344
  C:5396H         LINE#         345
  C:53A0H         LINE#         346
  C:53B1H         LINE#         347
  C:53B1H         LINE#         349
  C:53B1H         LINE#         350
BL51 BANKED LINKER/LOCATER V6.22.2.0                                                  12/09/2022  13:52:00  PAGE 45


  C:53BAH         LINE#         351
  C:53BAH         LINE#         352
  C:53BBH         LINE#         353
  C:53BBH         LINE#         356
  C:53C9H         LINE#         357
  C:53DBH         LINE#         358
  C:53DBH         LINE#         359
  C:53E4H         LINE#         360
  C:53E8H         LINE#         361
  C:53E8H         LINE#         363
  C:53EAH         LINE#         365
  C:53EAH         LINE#         366
  C:53F3H         LINE#         367
  C:5404H         LINE#         368
  C:5412H         LINE#         369
  C:5421H         LINE#         370
  C:5421H         LINE#         371
  C:542AH         LINE#         372
  C:5431H         LINE#         373
  C:5431H         LINE#         374
  C:5432H         LINE#         375
  C:5432H         LINE#         376
  C:5439H         LINE#         377
  C:543FH         LINE#         378
  C:5440H         LINE#         379
  C:5440H         LINE#         380
  C:5440H         LINE#         381
  C:544DH         LINE#         382
  C:544DH         LINE#         383
  C:5450H         LINE#         384
  C:545AH         LINE#         385
  C:545AH         LINE#         386
  C:545DH         LINE#         387
  C:545DH         LINE#         388
  C:545DH         LINE#         390
  C:545DH         LINE#         391
  -------         ENDPROC       POLLING1_6
  -------         PROC          POLLING2
  C:A547H         LINE#         394
  C:A547H         LINE#         395
  C:A547H         LINE#         396
  C:A547H         LINE#         397
  C:A547H         LINE#         399
  C:A547H         LINE#         400
  -------         ENDPROC       POLLING2
  -------         PROC          POLLING10_12
  C:6B14H         LINE#         403
  C:6B14H         LINE#         404
  C:6B14H         LINE#         405
  C:6B1FH         LINE#         406
  C:6B1FH         LINE#         407
  C:6B31H         LINE#         408
  C:6B31H         LINE#         409
  C:6B64H         LINE#         410
  C:6B64H         LINE#         411
  C:6B64H         LINE#         412
  C:6B6DH         LINE#         413
BL51 BANKED LINKER/LOCATER V6.22.2.0                                                  12/09/2022  13:52:00  PAGE 46


  C:6B7EH         LINE#         414
  C:6B8CH         LINE#         415
  C:6B9EH         LINE#         416
  C:6B9EH         LINE#         417
  C:6BA5H         LINE#         418
  C:6BA5H         LINE#         419
  C:6BA5H         LINE#         420
  C:6BA8H         LINE#         422
  C:6BA8H         LINE#         423
  C:6BB1H         LINE#         424
  C:6BC2H         LINE#         425
  C:6BD0H         LINE#         426
  C:6BE2H         LINE#         427
  C:6BE2H         LINE#         428
  C:6BEAH         LINE#         429
  C:6BEAH         LINE#         430
  C:6BEAH         LINE#         431
  C:6BEDH         LINE#         433
  C:6BEDH         LINE#         434
  C:6BF6H         LINE#         435
  C:6C07H         LINE#         436
  C:6C15H         LINE#         437
  C:6C27H         LINE#         438
  C:6C27H         LINE#         439
  C:6C2FH         LINE#         440
  C:6C2FH         LINE#         441
  C:6C2FH         LINE#         442
  C:6C32H         LINE#         444
  C:6C32H         LINE#         445
  C:6C3BH         LINE#         446
  C:6C4CH         LINE#         447
  C:6C5AH         LINE#         448
  C:6C6CH         LINE#         449
  C:6C6CH         LINE#         450
  C:6C74H         LINE#         451
  C:6C74H         LINE#         452
  C:6C74H         LINE#         453
  C:6C77H         LINE#         455
  C:6C77H         LINE#         456
  C:6C80H         LINE#         457
  C:6C91H         LINE#         458
  C:6C9FH         LINE#         459
  C:6CAEH         LINE#         460
  C:6CAEH         LINE#         461
  C:6CB6H         LINE#         462
  C:6CB6H         LINE#         463
  C:6CB6H         LINE#         464
  C:6CB8H         LINE#         466
  C:6CB8H         LINE#         467
  C:6CC1H         LINE#         468
  C:6CD2H         LINE#         469
  C:6CE0H         LINE#         470
  C:6CEFH         LINE#         471
  C:6CEFH         LINE#         472
  C:6CF8H         LINE#         473
  C:6CFFH         LINE#         474
  C:6CFFH         LINE#         475
BL51 BANKED LINKER/LOCATER V6.22.2.0                                                  12/09/2022  13:52:00  PAGE 47


  C:6D00H         LINE#         477
  C:6D00H         LINE#         478
  C:6D07H         LINE#         479
  C:6D15H         LINE#         480
  C:6D24H         LINE#         481
  C:6D24H         LINE#         482
  C:6D2AH         LINE#         483
  C:6D2AH         LINE#         484
  C:6D2AH         LINE#         485
  C:6D2AH         LINE#         486
  C:6D2AH         LINE#         487
  C:6D2AH         LINE#         488
  -------         ENDPROC       POLLING10_12
  -------         PROC          POLLING15_17
  C:6124H         LINE#         491
  C:6124H         LINE#         492
  C:6124H         LINE#         494
  C:612FH         LINE#         495
  C:612FH         LINE#         496
  C:6141H         LINE#         497
  C:6141H         LINE#         498
  C:617AH         LINE#         499
  C:617AH         LINE#         500
  C:617AH         LINE#         501
  C:6183H         LINE#         502
  C:6194H         LINE#         503
  C:61A2H         LINE#         504
  C:61B4H         LINE#         505
  C:61B4H         LINE#         506
  C:61BBH         LINE#         507
  C:61BBH         LINE#         508
  C:61BBH         LINE#         509
  C:61BEH         LINE#         511
  C:61BEH         LINE#         512
  C:61C8H         LINE#         513
  C:61DAH         LINE#         514
  C:61E8H         LINE#         515
  C:61FAH         LINE#         516
  C:61FAH         LINE#         517
  C:6202H         LINE#         518
  C:6202H         LINE#         519
  C:6202H         LINE#         520
  C:6205H         LINE#         522
  C:6205H         LINE#         523
  C:620FH         LINE#         524
  C:6221H         LINE#         525
  C:622FH         LINE#         526
  C:6241H         LINE#         527
  C:6241H         LINE#         528
  C:6249H         LINE#         529
  C:6249H         LINE#         530
  C:6249H         LINE#         531
  C:624CH         LINE#         533
  C:624CH         LINE#         534
  C:6256H         LINE#         535
  C:6268H         LINE#         536
  C:6276H         LINE#         537
BL51 BANKED LINKER/LOCATER V6.22.2.0                                                  12/09/2022  13:52:00  PAGE 48


  C:6288H         LINE#         538
  C:6288H         LINE#         539
  C:6290H         LINE#         540
  C:6290H         LINE#         541
  C:6290H         LINE#         542
  C:6293H         LINE#         544
  C:6293H         LINE#         545
  C:629DH         LINE#         546
  C:62AFH         LINE#         547
  C:62BDH         LINE#         548
  C:62CFH         LINE#         549
  C:62CFH         LINE#         550
  C:62D7H         LINE#         551
  C:62D7H         LINE#         552
  C:62D7H         LINE#         553
  C:62DAH         LINE#         555
  C:62DAH         LINE#         556
  C:62E4H         LINE#         557
  C:62F6H         LINE#         558
  C:6304H         LINE#         559
  C:6316H         LINE#         560
  C:6316H         LINE#         561
  C:631EH         LINE#         562
  C:631EH         LINE#         563
  C:631EH         LINE#         564
  C:6321H         LINE#         567
  C:6321H         LINE#         568
  C:632BH         LINE#         569
  C:633DH         LINE#         570
  C:634BH         LINE#         571
  C:635DH         LINE#         572
  C:635DH         LINE#         573
  C:6365H         LINE#         574
  C:6365H         LINE#         575
  C:6365H         LINE#         576
  C:6367H         LINE#         579
  C:6367H         LINE#         580
  C:6371H         LINE#         581
  C:6383H         LINE#         582
  C:6391H         LINE#         583
  C:63A0H         LINE#         584
  C:63A0H         LINE#         585
  C:63A9H         LINE#         586
  C:63ADH         LINE#         587
  C:63ADH         LINE#         588
  C:63AFH         LINE#         602
  C:63AFH         LINE#         604
  C:63B6H         LINE#         605
  C:63C4H         LINE#         606
  C:63D3H         LINE#         607
  C:63D3H         LINE#         608
  C:63D9H         LINE#         609
  C:63D9H         LINE#         610
  C:63DAH         LINE#         611
  C:63DAH         LINE#         612
  C:63DAH         LINE#         614
  C:63DAH         LINE#         615
BL51 BANKED LINKER/LOCATER V6.22.2.0                                                  12/09/2022  13:52:00  PAGE 49


  C:63E8H         LINE#         616
  C:63F7H         LINE#         617
  C:63F7H         LINE#         618
  C:63FBH         LINE#         619
  C:63FBH         LINE#         621
  C:63FBH         LINE#         622
  C:63FBH         LINE#         623
  -------         ENDPROC       POLLING15_17
  -------         PROC          TOUCH_SCAN_0
  -------         DO            
  X:C111H         SYMBOL        i
  -------         ENDDO         
  C:9605H         LINE#         625
  C:9605H         LINE#         626
  C:9605H         LINE#         629
  C:9617H         LINE#         630
  C:9617H         LINE#         631
  C:962BH         LINE#         632
  C:9633H         LINE#         633
  C:963FH         LINE#         634
  C:963FH         LINE#         635
  C:9652H         LINE#         636
  C:965EH         LINE#         637
  C:965EH         LINE#         638
  C:966DH         LINE#         639
  C:9674H         LINE#         640
  C:9687H         LINE#         641
  C:9687H         LINE#         642
  C:9687H         LINE#         643
  -------         ENDPROC       TOUCH_SCAN_0
  -------         PROC          TOUCH_SCAN_3
  -------         DO            
  X:C111H         SYMBOL        i
  X:C112H         SYMBOL        j
  -------         ENDDO         
  C:7B36H         LINE#         646
  C:7B36H         LINE#         647
  C:7B36H         LINE#         651
  C:7B4CH         LINE#         652
  C:7B4CH         LINE#         653
  C:7B65H         LINE#         655
  C:7B74H         LINE#         656
  C:7B74H         LINE#         657
  C:7B86H         LINE#         658
  C:7B86H         LINE#         659
  C:7B9FH         LINE#         660
  C:7BA7H         LINE#         662
  C:7BC3H         LINE#         663
  C:7BD4H         LINE#         664
  C:7BF5H         LINE#         667
  C:7C0EH         LINE#         668
  C:7C0EH         LINE#         669
  C:7C17H         LINE#         672
  C:7C29H         LINE#         673
  C:7C29H         LINE#         674
  C:7C3EH         LINE#         675
  C:7C46H         LINE#         676
BL51 BANKED LINKER/LOCATER V6.22.2.0                                                  12/09/2022  13:52:00  PAGE 50


  C:7C5DH         LINE#         677
  C:7C5DH         LINE#         678
  C:7C6CH         LINE#         680
  C:7C79H         LINE#         681
  C:7C79H         LINE#         682
  C:7C80H         LINE#         683
  C:7C82H         LINE#         685
  C:7C82H         LINE#         686
  C:7C8FH         LINE#         687
  C:7C8FH         LINE#         689
  C:7CB0H         LINE#         692
  C:7CB0H         LINE#         695
  -------         ENDPROC       TOUCH_SCAN_3
  -------         PROC          TOUCH_SCAN_4
  -------         DO            
  X:C111H         SYMBOL        i
  -------         ENDDO         
  C:767FH         LINE#         697
  C:767FH         LINE#         698
  C:767FH         LINE#         701
  C:7686H         LINE#         702
  C:768CH         LINE#         703
  C:7692H         LINE#         706
  C:76A3H         LINE#         707
  C:76A3H         LINE#         708
  C:76B8H         LINE#         709
  C:76C0H         LINE#         710
  C:76CCH         LINE#         711
  C:76CCH         LINE#         712
  C:76E0H         LINE#         713
  C:76ECH         LINE#         714
  C:76ECH         LINE#         715
  C:76F0H         LINE#         716
  C:76F2H         LINE#         717
  C:76F7H         LINE#         719
  C:76FEH         LINE#         720
  C:7712H         LINE#         721
  C:7712H         LINE#         722
  C:7712H         LINE#         725
  C:7724H         LINE#         726
  C:7724H         LINE#         727
  C:7738H         LINE#         728
  C:7740H         LINE#         729
  C:774CH         LINE#         730
  C:774CH         LINE#         731
  C:775FH         LINE#         732
  C:776BH         LINE#         733
  C:776BH         LINE#         734
  C:7771H         LINE#         736
  C:7778H         LINE#         737
  C:778BH         LINE#         738
  C:778BH         LINE#         739
  C:778BH         LINE#         742
  C:779DH         LINE#         743
  C:779DH         LINE#         744
  C:77B2H         LINE#         745
  C:77BAH         LINE#         746
BL51 BANKED LINKER/LOCATER V6.22.2.0                                                  12/09/2022  13:52:00  PAGE 51


  C:77C6H         LINE#         747
  C:77C6H         LINE#         749
  C:77DAH         LINE#         750
  C:77E6H         LINE#         751
  C:77E6H         LINE#         752
  C:77F0H         LINE#         754
  C:7801H         LINE#         755
  C:7808H         LINE#         756
  C:781CH         LINE#         757
  C:781CH         LINE#         758
  C:781CH         LINE#         760
  -------         ENDPROC       TOUCH_SCAN_4
  -------         PROC          TOUCH_SCAN_5
  -------         DO            
  X:C111H         SYMBOL        i
  -------         ENDDO         
  C:81A8H         LINE#         762
  C:81A8H         LINE#         763
  C:81A8H         LINE#         766
  C:81BAH         LINE#         767
  C:81BAH         LINE#         768
  C:81CFH         LINE#         769
  C:81D7H         LINE#         770
  C:81E3H         LINE#         771
  C:81E3H         LINE#         772
  C:81F7H         LINE#         773
  C:8203H         LINE#         774
  C:8203H         LINE#         775
  C:820AH         LINE#         776
  C:821AH         LINE#         777
  C:8221H         LINE#         778
  C:8235H         LINE#         779
  C:8235H         LINE#         780
  C:8235H         LINE#         783
  C:8247H         LINE#         784
  C:8247H         LINE#         785
  C:825CH         LINE#         786
  C:8264H         LINE#         787
  C:8270H         LINE#         788
  C:8270H         LINE#         789
  C:8284H         LINE#         790
  C:8290H         LINE#         791
  C:8290H         LINE#         792
  C:8297H         LINE#         793
  C:82A6H         LINE#         794
  C:82ADH         LINE#         795
  C:82C1H         LINE#         796
  C:82C1H         LINE#         797
  C:82C1H         LINE#         799
  -------         ENDPROC       TOUCH_SCAN_5
  -------         PROC          TOUCH_SCAN_1_2_6
  -------         DO            
  X:C111H         SYMBOL        i
  -------         ENDDO         
  C:2031H         LINE#         801
  C:2031H         LINE#         802
  C:2031H         LINE#         805
BL51 BANKED LINKER/LOCATER V6.22.2.0                                                  12/09/2022  13:52:00  PAGE 52


  C:2038H         LINE#         809
  C:2049H         LINE#         810
  C:2049H         LINE#         811
  C:205EH         LINE#         812
  C:2066H         LINE#         813
  C:2072H         LINE#         814
  C:2072H         LINE#         815
  C:2086H         LINE#         816
  C:2092H         LINE#         817
  C:2092H         LINE#         818
  C:2099H         LINE#         819
  C:20A3H         LINE#         820
  C:20ABH         LINE#         822
  C:20BBH         LINE#         823
  C:20C2H         LINE#         824
  C:20D6H         LINE#         825
  C:20D6H         LINE#         826
  C:20D6H         LINE#         829
  C:20E8H         LINE#         830
  C:20E8H         LINE#         831
  C:20FDH         LINE#         832
  C:2105H         LINE#         833
  C:2111H         LINE#         834
  C:2111H         LINE#         835
  C:2125H         LINE#         836
  C:2131H         LINE#         837
  C:2131H         LINE#         838
  C:2140H         LINE#         839
  C:2147H         LINE#         840
  C:215BH         LINE#         841
  C:215BH         LINE#         842
  C:215BH         LINE#         845
  C:216DH         LINE#         846
  C:216DH         LINE#         847
  C:2182H         LINE#         848
  C:218AH         LINE#         849
  C:2199H         LINE#         850
  C:2199H         LINE#         851
  C:21ADH         LINE#         852
  C:21B9H         LINE#         853
  C:21B9H         LINE#         854
  C:21C7H         LINE#         855
  C:21CEH         LINE#         856
  C:21E2H         LINE#         858
  C:21E8H         LINE#         859
  C:21F7H         LINE#         860
  C:21F7H         LINE#         862
  C:21FFH         LINE#         863
  C:2208H         LINE#         864
  C:220AH         LINE#         866
  C:220AH         LINE#         868
  C:2211H         LINE#         869
  C:2225H         LINE#         870
  C:2225H         LINE#         872
  C:2225H         LINE#         873
  C:2225H         LINE#         877
  C:2237H         LINE#         878
BL51 BANKED LINKER/LOCATER V6.22.2.0                                                  12/09/2022  13:52:00  PAGE 53


  C:2237H         LINE#         879
  C:224CH         LINE#         880
  C:2254H         LINE#         881
  C:2263H         LINE#         882
  C:2263H         LINE#         883
  C:2277H         LINE#         884
  C:2286H         LINE#         885
  C:2286H         LINE#         886
  C:2295H         LINE#         887
  C:229CH         LINE#         888
  C:22B0H         LINE#         889
  C:22B6H         LINE#         891
  C:22BDH         LINE#         892
  C:22D1H         LINE#         894
  C:22D8H         LINE#         895
  C:22ECH         LINE#         896
  C:22F3H         LINE#         897
  C:2307H         LINE#         898
  C:230EH         LINE#         899
  C:2322H         LINE#         901
  C:2329H         LINE#         902
  C:233DH         LINE#         904
  C:2344H         LINE#         909
  C:234BH         LINE#         910
  C:234BH         LINE#         911
  C:234BH         LINE#         914
  C:235DH         LINE#         915
  C:235DH         LINE#         916
  C:2372H         LINE#         917
  C:237AH         LINE#         918
  C:2386H         LINE#         919
  C:2386H         LINE#         920
  C:239AH         LINE#         921
  C:23A6H         LINE#         922
  C:23A6H         LINE#         923
  C:23B5H         LINE#         924
  C:23BCH         LINE#         925
  C:23D0H         LINE#         927
  C:23D6H         LINE#         928
  C:23D6H         LINE#         929
  C:23D6H         LINE#         932
  C:23E8H         LINE#         933
  C:23E8H         LINE#         934
  C:23FDH         LINE#         935
  C:2405H         LINE#         936
  C:2411H         LINE#         937
  C:2411H         LINE#         938
  C:2425H         LINE#         939
  C:2431H         LINE#         940
  C:2431H         LINE#         941
  C:243FH         LINE#         942
  C:2446H         LINE#         943
  C:245AH         LINE#         944
  C:245AH         LINE#         945
  C:245AH         LINE#         948
  C:246CH         LINE#         949
  C:246CH         LINE#         950
BL51 BANKED LINKER/LOCATER V6.22.2.0                                                  12/09/2022  13:52:00  PAGE 54


  C:2481H         LINE#         951
  C:2489H         LINE#         952
  C:2495H         LINE#         953
  C:2495H         LINE#         954
  C:24A9H         LINE#         955
  C:24B5H         LINE#         956
  C:24B5H         LINE#         957
  C:24C4H         LINE#         958
  C:24CBH         LINE#         959
  C:24DFH         LINE#         961
  C:24E5H         LINE#         962
  C:24E5H         LINE#         963
  C:24E5H         LINE#         966
  C:24F7H         LINE#         967
  C:24F7H         LINE#         968
  C:250CH         LINE#         969
  C:2514H         LINE#         970
  C:2520H         LINE#         971
  C:2520H         LINE#         972
  C:2534H         LINE#         973
  C:2540H         LINE#         974
  C:2540H         LINE#         975
  C:254EH         LINE#         976
  C:2555H         LINE#         977
  C:2569H         LINE#         978
  C:2569H         LINE#         979
  C:2569H         LINE#         982
  C:257BH         LINE#         983
  C:257BH         LINE#         984
  C:2590H         LINE#         985
  C:2598H         LINE#         986
  C:25A4H         LINE#         987
  C:25A4H         LINE#         988
  C:25B8H         LINE#         989
  C:25C4H         LINE#         990
  C:25C4H         LINE#         991
  C:25D3H         LINE#         992
  C:25DAH         LINE#         993
  C:25EEH         LINE#         995
  C:25F4H         LINE#         996
  C:25F4H         LINE#         997
  C:25F4H         LINE#         1001
  C:2606H         LINE#         1002
  C:2606H         LINE#         1003
  C:261BH         LINE#         1004
  C:2623H         LINE#         1005
  C:262FH         LINE#         1006
  C:262FH         LINE#         1007
  C:2643H         LINE#         1008
  C:264FH         LINE#         1009
  C:264FH         LINE#         1010
  C:265DH         LINE#         1011
  C:2664H         LINE#         1012
  C:2678H         LINE#         1013
  C:2678H         LINE#         1014
  C:2678H         LINE#         1017
  C:268AH         LINE#         1018
BL51 BANKED LINKER/LOCATER V6.22.2.0                                                  12/09/2022  13:52:00  PAGE 55


  C:268AH         LINE#         1019
  C:269FH         LINE#         1020
  C:26A7H         LINE#         1021
  C:26B3H         LINE#         1022
  C:26B3H         LINE#         1023
  C:26C7H         LINE#         1024
  C:26D3H         LINE#         1025
  C:26D3H         LINE#         1026
  C:26E2H         LINE#         1027
  C:26E9H         LINE#         1028
  C:26FDH         LINE#         1030
  C:2703H         LINE#         1031
  C:2703H         LINE#         1032
  C:2703H         LINE#         1036
  C:2715H         LINE#         1037
  C:2715H         LINE#         1038
  C:272AH         LINE#         1039
  C:2732H         LINE#         1040
  C:273EH         LINE#         1041
  C:273EH         LINE#         1042
  C:2752H         LINE#         1043
  C:275EH         LINE#         1044
  C:275EH         LINE#         1045
  C:276CH         LINE#         1046
  C:2773H         LINE#         1047
  C:2787H         LINE#         1048
  C:2787H         LINE#         1049
  C:2787H         LINE#         1052
  C:2799H         LINE#         1053
  C:2799H         LINE#         1054
  C:27AEH         LINE#         1055
  C:27B6H         LINE#         1056
  C:27C2H         LINE#         1057
  C:27C2H         LINE#         1058
  C:27D6H         LINE#         1059
  C:27E2H         LINE#         1060
  C:27E2H         LINE#         1061
  C:27F1H         LINE#         1062
  C:27F8H         LINE#         1063
  C:280CH         LINE#         1065
  C:2812H         LINE#         1066
  C:2812H         LINE#         1067
  C:2812H         LINE#         1070
  C:2824H         LINE#         1071
  C:2824H         LINE#         1072
  C:2839H         LINE#         1073
  C:2841H         LINE#         1074
  C:284DH         LINE#         1075
  C:284DH         LINE#         1076
  C:2861H         LINE#         1077
  C:286DH         LINE#         1078
  C:286DH         LINE#         1079
  C:287BH         LINE#         1080
  C:2882H         LINE#         1081
  C:2896H         LINE#         1082
  C:2896H         LINE#         1083
  C:2896H         LINE#         1086
BL51 BANKED LINKER/LOCATER V6.22.2.0                                                  12/09/2022  13:52:00  PAGE 56


  C:28A8H         LINE#         1087
  C:28A8H         LINE#         1088
  C:28BDH         LINE#         1089
  C:28C5H         LINE#         1090
  C:28D1H         LINE#         1091
  C:28D1H         LINE#         1092
  C:28E5H         LINE#         1093
  C:28F1H         LINE#         1094
  C:28F1H         LINE#         1095
  C:2900H         LINE#         1096
  C:2907H         LINE#         1097
  C:291BH         LINE#         1099
  C:2921H         LINE#         1100
  C:2921H         LINE#         1101
  C:2921H         LINE#         1104
  C:2933H         LINE#         1105
  C:2933H         LINE#         1106
  C:2948H         LINE#         1107
  C:2950H         LINE#         1108
  C:295CH         LINE#         1109
  C:295CH         LINE#         1110
  C:2970H         LINE#         1111
  C:297CH         LINE#         1112
  C:297CH         LINE#         1113
  C:298AH         LINE#         1114
  C:2991H         LINE#         1115
  C:29A5H         LINE#         1116
  C:29A5H         LINE#         1117
  C:29A5H         LINE#         1120
  C:29B7H         LINE#         1121
  C:29B7H         LINE#         1122
  C:29CCH         LINE#         1123
  C:29D4H         LINE#         1124
  C:29E0H         LINE#         1125
  C:29E0H         LINE#         1126
  C:29F4H         LINE#         1127
  C:2A00H         LINE#         1128
  C:2A00H         LINE#         1129
  C:2A0FH         LINE#         1130
  C:2A16H         LINE#         1131
  C:2A2AH         LINE#         1133
  C:2A30H         LINE#         1134
  C:2A30H         LINE#         1135
  C:2A30H         LINE#         1138
  C:2A42H         LINE#         1139
  C:2A42H         LINE#         1140
  C:2A57H         LINE#         1141
  C:2A5FH         LINE#         1142
  C:2A6BH         LINE#         1143
  C:2A6BH         LINE#         1145
  C:2A7FH         LINE#         1146
  C:2A8BH         LINE#         1147
  C:2A8BH         LINE#         1148
  C:2A99H         LINE#         1149
  C:2AA0H         LINE#         1150
  C:2AB4H         LINE#         1152
  C:2AB4H         LINE#         1153
BL51 BANKED LINKER/LOCATER V6.22.2.0                                                  12/09/2022  13:52:00  PAGE 57


  C:2AB4H         LINE#         1156
  C:2AC6H         LINE#         1157
  C:2AC6H         LINE#         1158
  C:2ADBH         LINE#         1159
  C:2AE3H         LINE#         1160
  C:2AEFH         LINE#         1161
  C:2AEFH         LINE#         1162
  C:2B03H         LINE#         1163
  C:2B0FH         LINE#         1164
  C:2B0FH         LINE#         1165
  C:2B1EH         LINE#         1166
  C:2B25H         LINE#         1167
  C:2B39H         LINE#         1169
  C:2B3FH         LINE#         1170
  C:2B3FH         LINE#         1171
  C:2B3FH         LINE#         1174
  C:2B51H         LINE#         1175
  C:2B51H         LINE#         1176
  C:2B66H         LINE#         1177
  C:2B6EH         LINE#         1178
  C:2B7AH         LINE#         1179
  C:2B7AH         LINE#         1180
  C:2B8EH         LINE#         1181
  C:2B9AH         LINE#         1182
  C:2B9AH         LINE#         1183
  C:2BA8H         LINE#         1184
  C:2BAFH         LINE#         1185
  C:2BC3H         LINE#         1186
  C:2BC3H         LINE#         1187
  C:2BC3H         LINE#         1188
  -------         ENDPROC       TOUCH_SCAN_1_2_6
  -------         PROC          TOUCH_SCAN_10_12
  -------         DO            
  X:C111H         SYMBOL        i
  -------         ENDDO         
  C:68D7H         LINE#         1189
  C:68D7H         LINE#         1190
  C:68D7H         LINE#         1193
  C:68E9H         LINE#         1194
  C:68E9H         LINE#         1195
  C:68FEH         LINE#         1196
  C:6906H         LINE#         1197
  C:691DH         LINE#         1198
  C:691DH         LINE#         1199
  C:6932H         LINE#         1200
  C:694CH         LINE#         1201
  C:694CH         LINE#         1203
  C:6952H         LINE#         1204
  C:6952H         LINE#         1205
  C:695AH         LINE#         1206
  C:697AH         LINE#         1207
  C:6981H         LINE#         1208
  C:698CH         LINE#         1210
  C:698FH         LINE#         1211
  C:699BH         LINE#         1212
  C:699BH         LINE#         1213
  C:69A3H         LINE#         1214
BL51 BANKED LINKER/LOCATER V6.22.2.0                                                  12/09/2022  13:52:00  PAGE 58


  C:69C3H         LINE#         1216
  C:69CAH         LINE#         1217
  C:69D5H         LINE#         1218
  C:69D8H         LINE#         1219
  C:69E4H         LINE#         1220
  C:69E4H         LINE#         1221
  C:69ECH         LINE#         1222
  C:6A0CH         LINE#         1224
  C:6A13H         LINE#         1225
  C:6A1EH         LINE#         1226
  C:6A21H         LINE#         1227
  C:6A2DH         LINE#         1228
  C:6A2DH         LINE#         1229
  C:6A35H         LINE#         1230
  C:6A55H         LINE#         1232
  C:6A5CH         LINE#         1233
  C:6A67H         LINE#         1234
  C:6A6AH         LINE#         1235
  C:6A76H         LINE#         1236
  C:6A76H         LINE#         1237
  C:6A7EH         LINE#         1238
  C:6A9EH         LINE#         1240
  C:6AA5H         LINE#         1241
  C:6AB0H         LINE#         1242
  C:6AB2H         LINE#         1243
  C:6ABEH         LINE#         1244
  C:6ABEH         LINE#         1245
  C:6AC6H         LINE#         1246
  C:6AE6H         LINE#         1248
  C:6AEDH         LINE#         1249
  C:6AFEH         LINE#         1250
  C:6AFEH         LINE#         1252
  C:6B13H         LINE#         1253
  C:6B13H         LINE#         1254
  C:6B13H         LINE#         1255
  -------         ENDPROC       TOUCH_SCAN_10_12
  -------         PROC          TOUCH_SCAN_13
  -------         DO            
  X:C111H         SYMBOL        i
  -------         ENDDO         
  C:7123H         LINE#         1284
  C:7123H         LINE#         1285
  C:7123H         LINE#         1287
  C:7132H         LINE#         1288
  C:7132H         LINE#         1289
  C:7143H         LINE#         1290
  C:7143H         LINE#         1291
  C:7158H         LINE#         1292
  C:7160H         LINE#         1293
  C:7165H         LINE#         1295
  C:717BH         LINE#         1296
  C:717BH         LINE#         1297
  C:7181H         LINE#         1298
  C:7182H         LINE#         1299
  C:7184H         LINE#         1300
  C:719DH         LINE#         1301
  C:719DH         LINE#         1302
BL51 BANKED LINKER/LOCATER V6.22.2.0                                                  12/09/2022  13:52:00  PAGE 59


  C:71A4H         LINE#         1303
  C:71A6H         LINE#         1304
  C:71A8H         LINE#         1305
  C:71C1H         LINE#         1306
  C:71C1H         LINE#         1307
  C:71C8H         LINE#         1308
  C:71DDH         LINE#         1309
  C:71DDH         LINE#         1311
  C:71E4H         LINE#         1312
  C:71E4H         LINE#         1314
  C:71F6H         LINE#         1315
  C:71F6H         LINE#         1316
  C:720BH         LINE#         1317
  C:7213H         LINE#         1318
  C:7222H         LINE#         1319
  C:7222H         LINE#         1320
  C:7236H         LINE#         1321
  C:7245H         LINE#         1322
  C:7245H         LINE#         1324
  C:7259H         LINE#         1325
  C:7263H         LINE#         1326
  C:7263H         LINE#         1327
  C:7263H         LINE#         1328
  C:7265H         LINE#         1329
  C:7271H         LINE#         1330
  C:7271H         LINE#         1331
  C:7285H         LINE#         1332
  C:7285H         LINE#         1334
  C:729AH         LINE#         1335
  C:72A6H         LINE#         1336
  C:72A6H         LINE#         1337
  C:72A8H         LINE#         1338
  C:72A8H         LINE#         1340
  C:72AAH         LINE#         1341
  C:72B6H         LINE#         1342
  C:72B6H         LINE#         1343
  C:72B8H         LINE#         1344
  C:72B8H         LINE#         1346
  C:72BAH         LINE#         1347
  C:72C6H         LINE#         1348
  C:72C6H         LINE#         1349
  C:72CEH         LINE#         1350
  C:72E3H         LINE#         1352
  C:72E3H         LINE#         1354
  C:72EAH         LINE#         1355
  C:72FEH         LINE#         1356
  C:72FEH         LINE#         1357
  C:72FEH         LINE#         1359
  -------         ENDPROC       TOUCH_SCAN_13
  -------         PROC          TOUCH_SCAN_14
  -------         DO            
  X:C111H         SYMBOL        i
  -------         ENDDO         
  C:980DH         LINE#         1361
  C:980DH         LINE#         1362
  C:980DH         LINE#         1365
  C:981FH         LINE#         1366
BL51 BANKED LINKER/LOCATER V6.22.2.0                                                  12/09/2022  13:52:00  PAGE 60


  C:981FH         LINE#         1367
  C:9834H         LINE#         1368
  C:983CH         LINE#         1369
  C:9848H         LINE#         1370
  C:9848H         LINE#         1371
  C:985CH         LINE#         1372
  C:9868H         LINE#         1373
  C:9868H         LINE#         1374
  C:986BH         LINE#         1375
  C:9872H         LINE#         1376
  C:9879H         LINE#         1377
  C:988DH         LINE#         1378
  C:988DH         LINE#         1379
  C:988DH         LINE#         1380
  -------         ENDPROC       TOUCH_SCAN_14
  -------         PROC          TOUCH_SCAN_16
  -------         DO            
  X:C111H         SYMBOL        i
  -------         ENDDO         
  C:86CFH         LINE#         1383
  C:86CFH         LINE#         1384
  C:86CFH         LINE#         1387
  C:86E1H         LINE#         1388
  C:86E1H         LINE#         1389
  C:86F6H         LINE#         1390
  C:86FEH         LINE#         1391
  C:870DH         LINE#         1392
  C:870DH         LINE#         1393
  C:8721H         LINE#         1394
  C:8730H         LINE#         1395
  C:8730H         LINE#         1396
  C:8744H         LINE#         1397
  C:8759H         LINE#         1398
  C:876EH         LINE#         1399
  C:8783H         LINE#         1401
  C:87B3H         LINE#         1402
  C:87B3H         LINE#         1403
  C:87B9H         LINE#         1404
  C:87B9H         LINE#         1405
  C:87B9H         LINE#         1406
  C:87B9H         LINE#         1407
  -------         ENDPROC       TOUCH_SCAN_16
  -------         PROC          COORDINATE_CONTROL
  C:599AH         LINE#         1436
  C:599AH         LINE#         1437
  C:599AH         LINE#         1438
  C:59B0H         LINE#         1439
  C:59CBH         LINE#         1440
  C:59D1H         LINE#         1441
  C:59D1H         LINE#         1442
  C:59DCH         LINE#         1443
  C:59DCH         LINE#         1444
  C:59EFH         LINE#         1445
  C:5A02H         LINE#         1448
  C:5A21H         LINE#         1449
  C:5A21H         LINE#         1451
  C:5A43H         LINE#         1452
BL51 BANKED LINKER/LOCATER V6.22.2.0                                                  12/09/2022  13:52:00  PAGE 61


  C:5A43H         LINE#         1453
  C:5A43H         LINE#         1454
  C:5A43H         LINE#         1456
  C:5A43H         LINE#         1457
  C:5A43H         LINE#         1459
  C:5A46H         LINE#         1461
  C:5A6BH         LINE#         1462
  C:5A6BH         LINE#         1463
  C:5A6BH         LINE#         1464
  C:5A6BH         LINE#         1466
  C:5A6BH         LINE#         1467
  C:5A6BH         LINE#         1468
  C:5A6EH         LINE#         1469
  C:5A93H         LINE#         1470
  C:5A93H         LINE#         1471
  C:5A93H         LINE#         1472
  C:5A93H         LINE#         1474
  C:5A93H         LINE#         1475
  C:5A93H         LINE#         1476
  C:5A96H         LINE#         1477
  C:5ABBH         LINE#         1478
  C:5ABBH         LINE#         1479
  C:5ABBH         LINE#         1480
  C:5ABBH         LINE#         1482
  C:5ABBH         LINE#         1483
  C:5ABBH         LINE#         1484
  C:5ABDH         LINE#         1485
  C:5AE2H         LINE#         1486
  C:5AE2H         LINE#         1487
  C:5AE2H         LINE#         1488
  C:5AE2H         LINE#         1490
  C:5AE2H         LINE#         1491
  C:5AE2H         LINE#         1492
  C:5AE4H         LINE#         1493
  C:5B09H         LINE#         1494
  C:5B09H         LINE#         1495
  C:5B09H         LINE#         1496
  C:5B09H         LINE#         1498
  C:5B09H         LINE#         1499
  C:5B09H         LINE#         1500
  C:5B0BH         LINE#         1501
  C:5B39H         LINE#         1502
  C:5B39H         LINE#         1503
  C:5B43H         LINE#         1504
  C:5B63H         LINE#         1506
  C:5B6AH         LINE#         1507
  C:5B71H         LINE#         1508
  C:5B71H         LINE#         1510
  C:5B74H         LINE#         1511
  C:5B92H         LINE#         1512
  C:5B92H         LINE#         1514
  C:5BB4H         LINE#         1515
  C:5BB4H         LINE#         1516
  C:5BB4H         LINE#         1517
  C:5BB4H         LINE#         1518
  C:5BB4H         LINE#         1519
  C:5BB4H         LINE#         1520
BL51 BANKED LINKER/LOCATER V6.22.2.0                                                  12/09/2022  13:52:00  PAGE 62


  C:5BB7H         LINE#         1522
  C:5BDCH         LINE#         1523
  C:5BDCH         LINE#         1524
  C:5BE4H         LINE#         1525
  C:5C03H         LINE#         1527
  C:5C05H         LINE#         1528
  C:5C05H         LINE#         1529
  C:5C08H         LINE#         1530
  C:5C2DH         LINE#         1531
  C:5C2DH         LINE#         1532
  C:5C35H         LINE#         1533
  C:5C54H         LINE#         1534
  C:5C56H         LINE#         1535
  C:5C56H         LINE#         1536
  C:5C59H         LINE#         1537
  C:5C7EH         LINE#         1538
  C:5C7EH         LINE#         1539
  C:5C86H         LINE#         1540
  C:5CA5H         LINE#         1541
  C:5CA7H         LINE#         1542
  C:5CA7H         LINE#         1543
  C:5CAAH         LINE#         1544
  C:5CCFH         LINE#         1545
  C:5CCFH         LINE#         1546
  C:5CD7H         LINE#         1547
  C:5CF6H         LINE#         1548
  C:5CF8H         LINE#         1549
  C:5CF8H         LINE#         1550
  C:5CFBH         LINE#         1551
  C:5D20H         LINE#         1552
  C:5D20H         LINE#         1553
  C:5D28H         LINE#         1554
  C:5D47H         LINE#         1555
  C:5D49H         LINE#         1556
  C:5D49H         LINE#         1557
  C:5D4BH         LINE#         1558
  C:5D70H         LINE#         1559
  C:5D70H         LINE#         1560
  C:5D78H         LINE#         1561
  C:5D97H         LINE#         1562
  C:5D9CH         LINE#         1563
  C:5DA3H         LINE#         1564
  C:5DA3H         LINE#         1565
  C:5DA3H         LINE#         1574
  C:5DA3H         LINE#         1575
  C:5DB6H         LINE#         1576
  C:5DB6H         LINE#         1578
  C:5DB6H         LINE#         1580
  C:5DB6H         LINE#         1583
  -------         ENDPROC       COORDINATE_CONTROL
  -------         PROC          FILE_CONTROL
  -------         DO            
  X:C111H         SYMBOL        i
  -------         ENDDO         
  C:2BC4H         LINE#         1586
  C:2BC4H         LINE#         1587
  C:2BC4H         LINE#         1591
BL51 BANKED LINKER/LOCATER V6.22.2.0                                                  12/09/2022  13:52:00  PAGE 63


  C:2BD3H         LINE#         1592
  C:2BD3H         LINE#         1594
  C:2BFBH         LINE#         1595
  C:2BFBH         LINE#         1601
  C:2C05H         LINE#         1602
  C:2C05H         LINE#         1604
  C:2C0FH         LINE#         1605
  C:2C20H         LINE#         1606
  C:2C20H         LINE#         1608
  C:2C32H         LINE#         1609
  C:2C32H         LINE#         1610
  C:2C56H         LINE#         1611
  C:2C56H         LINE#         1612
  C:2C92H         LINE#         1613
  C:2C92H         LINE#         1614
  C:2C92H         LINE#         1615
  C:2C92H         LINE#         1617
  C:2CA0H         LINE#         1618
  C:2CAAH         LINE#         1619
  C:2CCEH         LINE#         1620
  C:2CDCH         LINE#         1621
  C:2CEEH         LINE#         1622
  C:2CEEH         LINE#         1623
  C:2CEEH         LINE#         1624
  C:2CEEH         LINE#         1625
  C:2CEEH         LINE#         1626
  C:2CEEH         LINE#         1627
  C:2CF1H         LINE#         1628
  C:2CF1H         LINE#         1629
  C:2CF1H         LINE#         1631
  C:2CFFH         LINE#         1632
  C:2D08H         LINE#         1633
  C:2D2CH         LINE#         1634
  C:2D3AH         LINE#         1635
  C:2D4CH         LINE#         1636
  C:2D4CH         LINE#         1637
  C:2D4CH         LINE#         1638
  C:2D4CH         LINE#         1639
  C:2D4CH         LINE#         1640
  C:2D4CH         LINE#         1641
  C:2D4FH         LINE#         1643
  C:2D4FH         LINE#         1644
  C:2D4FH         LINE#         1646
  C:2D5DH         LINE#         1647
  C:2D67H         LINE#         1648
  C:2D8BH         LINE#         1649
  C:2D99H         LINE#         1650
  C:2DABH         LINE#         1651
  C:2DABH         LINE#         1652
  C:2DABH         LINE#         1653
  C:2DABH         LINE#         1654
  C:2DABH         LINE#         1655
  C:2DABH         LINE#         1656
  C:2DAEH         LINE#         1657
  C:2DAEH         LINE#         1658
  C:2DAEH         LINE#         1660
  C:2DBCH         LINE#         1661
BL51 BANKED LINKER/LOCATER V6.22.2.0                                                  12/09/2022  13:52:00  PAGE 64


  C:2DC6H         LINE#         1662
  C:2DEAH         LINE#         1663
  C:2DF8H         LINE#         1664
  C:2E0AH         LINE#         1665
  C:2E0AH         LINE#         1666
  C:2E0AH         LINE#         1667
  C:2E0AH         LINE#         1668
  C:2E0AH         LINE#         1669
  C:2E0AH         LINE#         1670
  C:2E0DH         LINE#         1671
  C:2E0DH         LINE#         1672
  C:2E0DH         LINE#         1674
  C:2E1BH         LINE#         1675
  C:2E25H         LINE#         1676
  C:2E49H         LINE#         1677
  C:2E57H         LINE#         1678
  C:2E69H         LINE#         1679
  C:2E69H         LINE#         1680
  C:2E69H         LINE#         1681
  C:2E69H         LINE#         1682
  C:2E69H         LINE#         1683
  C:2E69H         LINE#         1684
  C:2E6CH         LINE#         1685
  C:2E6CH         LINE#         1686
  C:2E6CH         LINE#         1688
  C:2E7AH         LINE#         1689
  C:2E84H         LINE#         1690
  C:2EA8H         LINE#         1691
  C:2EB6H         LINE#         1692
  C:2EC8H         LINE#         1693
  C:2EC8H         LINE#         1694
  C:2EC8H         LINE#         1695
  C:2EC8H         LINE#         1696
  C:2EC8H         LINE#         1697
  C:2EC8H         LINE#         1698
  C:2ECBH         LINE#         1699
  C:2ECBH         LINE#         1700
  C:2ECBH         LINE#         1702
  C:2ED9H         LINE#         1703
  C:2EE3H         LINE#         1704
  C:2F07H         LINE#         1705
  C:2F15H         LINE#         1706
  C:2F27H         LINE#         1707
  C:2F27H         LINE#         1708
  C:2F27H         LINE#         1709
  C:2F27H         LINE#         1710
  C:2F27H         LINE#         1711
  C:2F27H         LINE#         1712
  C:2F2AH         LINE#         1713
  C:2F2AH         LINE#         1714
  C:2F2AH         LINE#         1715
  C:2F37H         LINE#         1717
  C:2F45H         LINE#         1718
  C:2F54H         LINE#         1719
  C:2F54H         LINE#         1720
  C:2F5AH         LINE#         1722
  C:2F5AH         LINE#         1724
BL51 BANKED LINKER/LOCATER V6.22.2.0                                                  12/09/2022  13:52:00  PAGE 65


  C:2F61H         LINE#         1725
  C:2F65H         LINE#         1727
  C:2F6BH         LINE#         1728
  C:2F6BH         LINE#         1729
  C:2F6EH         LINE#         1730
  C:2F6EH         LINE#         1731
  C:2F6EH         LINE#         1732
  C:2F9EH         LINE#         1733
  C:2F9EH         LINE#         1734
  C:2FB3H         LINE#         1735
  C:2FB3H         LINE#         1736
  C:2FC0H         LINE#         1738
  C:2FCEH         LINE#         1739
  C:2FDDH         LINE#         1740
  C:2FDDH         LINE#         1741
  C:2FE3H         LINE#         1743
  C:2FE3H         LINE#         1745
  C:2FEAH         LINE#         1746
  C:2FEEH         LINE#         1749
  C:2FF4H         LINE#         1750
  C:2FF4H         LINE#         1752
  C:302FH         LINE#         1753
  C:302FH         LINE#         1754
  C:302FH         LINE#         1755
  C:302FH         LINE#         1757
  C:303DH         LINE#         1758
  C:3047H         LINE#         1759
  C:306BH         LINE#         1760
  C:3079H         LINE#         1761
  C:308BH         LINE#         1762
  C:308BH         LINE#         1763
  C:308FH         LINE#         1764
  C:3097H         LINE#         1765
  C:3097H         LINE#         1766
  C:3097H         LINE#         1767
  C:309AH         LINE#         1768
  C:309AH         LINE#         1769
  C:309AH         LINE#         1771
  C:30A8H         LINE#         1772
  C:30B1H         LINE#         1773
  C:30D5H         LINE#         1774
  C:30E3H         LINE#         1775
  C:30F5H         LINE#         1776
  C:30F5H         LINE#         1777
  C:30F9H         LINE#         1778
  C:3101H         LINE#         1779
  C:3101H         LINE#         1780
  C:3101H         LINE#         1781
  C:3104H         LINE#         1782
  C:3104H         LINE#         1783
  C:3104H         LINE#         1785
  C:3112H         LINE#         1786
  C:311CH         LINE#         1787
  C:3140H         LINE#         1788
  C:314EH         LINE#         1789
  C:3160H         LINE#         1790
  C:3160H         LINE#         1791
BL51 BANKED LINKER/LOCATER V6.22.2.0                                                  12/09/2022  13:52:00  PAGE 66


  C:3164H         LINE#         1792
  C:316CH         LINE#         1793
  C:316CH         LINE#         1794
  C:316CH         LINE#         1795
  C:316FH         LINE#         1796
  C:316FH         LINE#         1797
  C:316FH         LINE#         1799
  C:317DH         LINE#         1800
  C:3187H         LINE#         1801
  C:31ABH         LINE#         1802
  C:31B9H         LINE#         1803
  C:31CBH         LINE#         1804
  C:31CBH         LINE#         1805
  C:31CFH         LINE#         1806
  C:31D7H         LINE#         1807
  C:31D7H         LINE#         1808
  C:31D7H         LINE#         1809
  C:31DAH         LINE#         1810
  C:31DAH         LINE#         1811
  C:31DAH         LINE#         1813
  C:31E8H         LINE#         1814
  C:31F2H         LINE#         1815
  C:3216H         LINE#         1816
  C:3224H         LINE#         1817
  C:3236H         LINE#         1818
  C:3236H         LINE#         1819
  C:323AH         LINE#         1820
  C:3242H         LINE#         1821
  C:3242H         LINE#         1822
  C:3242H         LINE#         1823
  C:3245H         LINE#         1824
  C:3245H         LINE#         1825
  C:3245H         LINE#         1827
  C:3253H         LINE#         1828
  C:325DH         LINE#         1829
  C:3281H         LINE#         1830
  C:328FH         LINE#         1831
  C:329EH         LINE#         1832
  C:329EH         LINE#         1833
  C:32A2H         LINE#         1834
  C:32AAH         LINE#         1835
  C:32AAH         LINE#         1836
  C:32AAH         LINE#         1837
  C:32ACH         LINE#         1838
  C:32ACH         LINE#         1839
  C:32ACH         LINE#         1841
  C:32BAH         LINE#         1842
  C:32C4H         LINE#         1843
  C:32E8H         LINE#         1844
  C:32F6H         LINE#         1845
  C:3305H         LINE#         1846
  C:3305H         LINE#         1847
  C:3309H         LINE#         1848
  C:3311H         LINE#         1849
  C:3311H         LINE#         1850
  C:3311H         LINE#         1851
  C:3311H         LINE#         1852
BL51 BANKED LINKER/LOCATER V6.22.2.0                                                  12/09/2022  13:52:00  PAGE 67


  C:3311H         LINE#         1853
  C:3311H         LINE#         1855
  C:331EH         LINE#         1856
  C:331EH         LINE#         1857
  C:3333H         LINE#         1858
  C:3333H         LINE#         1859
  C:334CH         LINE#         1860
  C:334CH         LINE#         1861
  C:3353H         LINE#         1862
  C:336CH         LINE#         1864
  C:3388H         LINE#         1865
  C:3390H         LINE#         1866
  C:33AAH         LINE#         1867
  C:33AAH         LINE#         1868
  C:33B2H         LINE#         1869
  C:33CBH         LINE#         1870
  C:33D3H         LINE#         1871
  C:33E0H         LINE#         1872
  C:33E0H         LINE#         1873
  C:33E0H         LINE#         1874
  C:33E1H         LINE#         1876
  C:33E1H         LINE#         1877
  C:33EDH         LINE#         1878
  C:33EDH         LINE#         1880
  C:33FFH         LINE#         1881
  C:33FFH         LINE#         1882
  C:3407H         LINE#         1883
  C:3420H         LINE#         1885
  C:343CH         LINE#         1886
  C:3444H         LINE#         1888
  C:344BH         LINE#         1889
  C:344BH         LINE#         1890
  C:344BH         LINE#         1894
  C:344BH         LINE#         1895
  C:344BH         LINE#         1896
  -------         ENDPROC       FILE_CONTROL
  -------         ENDMOD        UI

  -------         MODULE        DWIN8283
  C:0000H         SYMBOL        _ICE_DUMMY_
  C:7E1DH         PUBLIC        Pro8283Deal
  X:BC2DH         PUBLIC        DwinFrame
  C:957EH         PUBLIC        AutoUploadValue
  B:00A8H.7       PUBLIC        EA
  X:BC43H         PUBLIC        DataBuf
  C:8DB4H         PUBLIC        Pro8283Init
  X:BD47H         PUBLIC        SendTmp
  C:A52BH         SYMBOL        _?ix1000
  C:545EH         PUBLIC        _Pro8283RxTreat
  -------         PROC          PRO8283INIT
  -------         DO            
  X:C10FH         SYMBOL        buf
  X:C111H         SYMBOL        baud
  X:C115H         SYMBOL        CanReg
  -------         ENDDO         
  C:8DB4H         LINE#         20
  C:8DB4H         LINE#         21
BL51 BANKED LINKER/LOCATER V6.22.2.0                                                  12/09/2022  13:52:00  PAGE 68


  C:8DB4H         LINE#         24
  C:8DC7H         LINE#         26
  C:8DDDH         LINE#         27
  C:8E00H         LINE#         30
  C:8E19H         LINE#         31
  C:8E22H         LINE#         33
  C:8E30H         LINE#         34
  C:8E3CH         LINE#         35
  C:8E48H         LINE#         36
  C:8E4FH         LINE#         38
  C:8E5CH         LINE#         39
  C:8E67H         LINE#         40
  C:8E72H         LINE#         41
  C:8E79H         LINE#         42
  -------         ENDPROC       PRO8283INIT
  -------         PROC          AUTOUPLOADVALUE
  -------         DO            
  D:0002H         SYMBOL        address
  D:0005H         SYMBOL        len
  -------         ENDDO         
  C:957EH         LINE#         76
  C:957EH         LINE#         77
  C:957EH         LINE#         82
  C:9594H         LINE#         83
  C:959CH         LINE#         84
  C:959CH         LINE#         85
  C:959DH         LINE#         86
  C:95B2H         LINE#         87
  C:95B7H         LINE#         88
  C:95C0H         LINE#         89
  C:95C2H         LINE#         90
  C:95CCH         LINE#         91
  C:95D2H         LINE#         92
  C:95D6H         LINE#         93
  C:95DDH         LINE#         94
  C:95E1H         LINE#         95
  C:95E4H         LINE#         96
  C:95E7H         LINE#         97
  C:95EAH         LINE#         98
  C:95FFH         LINE#         104
  C:9602H         LINE#         105
  C:9602H         LINE#         106
  C:9604H         LINE#         107
  -------         ENDPROC       AUTOUPLOADVALUE
  -------         PROC          _PRO8283RXTREAT
  X:C10FH         SYMBOL        pBuf
  -------         DO            
  X:C112H         SYMBOL        len
  X:C114H         SYMBOL        len1
  X:C116H         SYMBOL        i
  X:C118H         SYMBOL        tmp16
  X:C11AH         SYMBOL        headtmp
  X:C11CH         SYMBOL        tailtmp
  -------         ENDDO         
  C:545EH         LINE#         110
  C:5469H         LINE#         111
  C:5469H         LINE#         116
BL51 BANKED LINKER/LOCATER V6.22.2.0                                                  12/09/2022  13:52:00  PAGE 69


  C:546BH         LINE#         117
  C:547FH         LINE#         118
  C:5481H         LINE#         119
  C:54A2H         LINE#         120
  C:54A2H         LINE#         121
  C:54BAH         LINE#         122
  C:54BAH         LINE#         123
  C:54D9H         LINE#         124
  C:54DBH         LINE#         126
  C:54DBH         LINE#         127
  C:54F9H         LINE#         128
  C:54F9H         LINE#         129
  C:5508H         LINE#         130
  C:550BH         LINE#         131
  C:5540H         LINE#         132
  C:5549H         LINE#         133
  C:5557H         LINE#         134
  C:5571H         LINE#         135
  C:5571H         LINE#         136
  C:5578H         LINE#         137
  C:5578H         LINE#         138
  C:559CH         LINE#         139
  C:55A8H         LINE#         140
  C:55A8H         LINE#         141
  C:55CAH         LINE#         142
  C:55E4H         LINE#         143
  C:55E4H         LINE#         144
  C:55EBH         LINE#         145
  C:55EBH         LINE#         146
  C:5603H         LINE#         147
  C:5603H         LINE#         148
  C:5625H         LINE#         149
  C:563FH         LINE#         150
  C:563FH         LINE#         151
  C:5646H         LINE#         152
  C:5646H         LINE#         153
  C:566FH         LINE#         154
  C:567FH         LINE#         155
  C:567FH         LINE#         156
  C:569DH         LINE#         157
  C:569DH         LINE#         158
  C:56D6H         LINE#         159
  C:56EEH         LINE#         160
  C:571FH         LINE#         161
  C:571FH         LINE#         162
  C:572BH         LINE#         163
  C:572BH         LINE#         164
  C:573CH         LINE#         170
  C:575EH         LINE#         171
  C:5764H         LINE#         172
  C:576DH         LINE#         178
  C:5770H         LINE#         182
  C:5770H         LINE#         183
  C:5770H         LINE#         184
  C:5793H         LINE#         185
  C:5793H         LINE#         186
  C:57B5H         LINE#         187
BL51 BANKED LINKER/LOCATER V6.22.2.0                                                  12/09/2022  13:52:00  PAGE 70


  C:57CFH         LINE#         188
  C:57CFH         LINE#         189
  C:57D6H         LINE#         190
  C:57D6H         LINE#         191
  C:57FFH         LINE#         192
  C:580FH         LINE#         193
  C:580FH         LINE#         194
  C:582DH         LINE#         195
  C:582DH         LINE#         196
  C:5866H         LINE#         197
  C:587EH         LINE#         198
  C:58AFH         LINE#         199
  C:58AFH         LINE#         200
  C:58BBH         LINE#         201
  C:58BBH         LINE#         202
  C:58CCH         LINE#         207
  C:58E8H         LINE#         208
  C:58F4H         LINE#         214
  C:58F7H         LINE#         218
  C:58F7H         LINE#         219
  C:58F7H         LINE#         221
  C:58F7H         LINE#         222
  C:590FH         LINE#         223
  C:5940H         LINE#         224
  C:5940H         LINE#         225
  C:5940H         LINE#         226
  C:5940H         LINE#         227
  C:5940H         LINE#         228
  C:5942H         LINE#         230
  C:5942H         LINE#         231
  C:595AH         LINE#         232
  C:598BH         LINE#         233
  C:598BH         LINE#         234
  C:5997H         LINE#         235
  C:5997H         LINE#         236
  C:5997H         LINE#         237
  C:5997H         LINE#         238
  C:5999H         LINE#         239
  -------         ENDPROC       _PRO8283RXTREAT
  -------         PROC          PRO8283DEAL
  -------         DO            
  D:0006H         SYMBOL        i
  D:0007H         SYMBOL        len
  -------         ENDDO         
  C:7E1DH         LINE#         243
  C:7E1DH         LINE#         244
  C:7E1DH         LINE#         248
  C:7E2CH         LINE#         249
  C:7E2CH         LINE#         250
  C:7E52H         LINE#         251
  C:7E52H         LINE#         252
  C:7E68H         LINE#         253
  C:7E6FH         LINE#         254
  C:7E6FH         LINE#         255
  C:7E9FH         LINE#         256
  C:7EADH         LINE#         257
  C:7EB0H         LINE#         258
BL51 BANKED LINKER/LOCATER V6.22.2.0                                                  12/09/2022  13:52:00  PAGE 71


  C:7EB0H         LINE#         259
  C:7EB6H         LINE#         260
  C:7EB6H         LINE#         262
  C:7EBEH         LINE#         263
  C:7EBEH         LINE#         264
  C:7ED3H         LINE#         265
  C:7EFFH         LINE#         266
  C:7EFFH         LINE#         268
  C:7F0DH         LINE#         269
  C:7F0DH         LINE#         270
  C:7F22H         LINE#         271
  C:7F22H         LINE#         272
  C:7F30H         LINE#         273
  C:7F30H         LINE#         274
  C:7F5BH         LINE#         275
  C:7F5BH         LINE#         276
  -------         ENDPROC       PRO8283DEAL
  -------         ENDMOD        DWIN8283

  -------         MODULE        SSD2828
  C:0000H         SYMBOL        _ICE_DUMMY_
  C:7AA2H         PUBLIC        pa_tab120
  C:7A8EH         PUBLIC        pa_tab111
  C:7A7CH         PUBLIC        pa_tab102
  C:7AB8H         PUBLIC        pa_tab130
  C:7AA4H         PUBLIC        pa_tab121
  C:7A90H         PUBLIC        pa_tab112
  C:7A7EH         PUBLIC        pa_tab103
  C:7ACEH         PUBLIC        pa_tab140
  C:7ABAH         PUBLIC        pa_tab131
  C:7AA6H         PUBLIC        pa_tab122
  C:7A92H         PUBLIC        pa_tab113
  C:7A80H         PUBLIC        pa_tab104
  D:0090H         PUBLIC        P1
  C:916DH         PUBLIC        _ssd2828_writepackage
  C:7B1AH         PUBLIC        pa_tab150
  C:7AD0H         PUBLIC        pa_tab141
  C:7ABCH         PUBLIC        pa_tab132
  C:7AA8H         PUBLIC        pa_tab123
  C:7A94H         PUBLIC        pa_tab114
  C:7A82H         PUBLIC        pa_tab105
  C:7B32H         PUBLIC        pa_tab160
  C:7B1CH         PUBLIC        pa_tab151
  C:7AD2H         PUBLIC        pa_tab142
  C:7ABEH         PUBLIC        pa_tab133
  C:7AAAH         PUBLIC        pa_tab124
  C:7A96H         PUBLIC        pa_tab115
  C:7A84H         PUBLIC        pa_tab106
  C:7B34H         PUBLIC        pa_tab161
  C:7B1EH         PUBLIC        pa_tab152
  C:7AD4H         PUBLIC        pa_tab143
  C:7AC0H         PUBLIC        pa_tab134
  C:7AACH         PUBLIC        pa_tab125
  C:7A98H         PUBLIC        pa_tab116
  C:7A86H         PUBLIC        pa_tab107
  C:7B20H         PUBLIC        pa_tab153
  C:7AD8H         PUBLIC        pa_tab144
BL51 BANKED LINKER/LOCATER V6.22.2.0                                                  12/09/2022  13:52:00  PAGE 72


  C:7AC2H         PUBLIC        pa_tab135
  C:7AAEH         PUBLIC        pa_tab126
  C:7A9AH         PUBLIC        pa_tab117
  C:7A88H         PUBLIC        pa_tab108
  C:7B22H         PUBLIC        pa_tab154
  C:7AF4H         PUBLIC        pa_tab145
  C:7AC4H         PUBLIC        pa_tab136
  C:7AB0H         PUBLIC        pa_tab127
  C:7A9EH         PUBLIC        pa_tab118
  C:7A8AH         PUBLIC        pa_tab109
  C:7B26H         PUBLIC        pa_tab155
  C:7B10H         PUBLIC        pa_tab146
  C:7AC6H         PUBLIC        pa_tab137
  C:7AB2H         PUBLIC        pa_tab128
  C:7AA0H         PUBLIC        pa_tab119
  C:7B28H         PUBLIC        pa_tab156
  C:7B14H         PUBLIC        pa_tab147
  C:7AC8H         PUBLIC        pa_tab138
  C:7AB6H         PUBLIC        pa_tab129
  C:7B2AH         PUBLIC        pa_tab157
  C:7B16H         PUBLIC        pa_tab148
  C:7ACAH         PUBLIC        pa_tab139
  C:7B2CH         PUBLIC        pa_tab158
  C:7B18H         PUBLIC        pa_tab149
  C:7B30H         PUBLIC        pa_tab159
  C:9BB5H         PUBLIC        lcd_pa_set
  C:8FFAH         PUBLIC        _W_COM
  C:48BDH         PUBLIC        C055_code_download
  C:79B0H         PUBLIC        pa_tab1
  C:79B4H         PUBLIC        pa_tab2
  C:79B6H         PUBLIC        pa_tab3
  C:79B8H         PUBLIC        pa_tab4
  C:79BAH         PUBLIC        pa_tab5
  C:79BCH         PUBLIC        pa_tab6
  C:79BEH         PUBLIC        pa_tab7
  C:79C0H         PUBLIC        pa_tab8
  C:79C2H         PUBLIC        pa_tab9
  C:8F3BH         PUBLIC        ssd2828_readID
  C:988EH         PUBLIC        _ssd2828_read_mipi
  C:83D4H         PUBLIC        ssd2828_init
  B:0090H.4       PUBLIC        sdc
  C:87BEH         PUBLIC        _ssd2828_regconfig
  C:8E7AH         PUBLIC        _ssd2828_readReg
  B:0090H.2       PUBLIC        sdi
  B:0090H.3       PUBLIC        sck
  B:0090H.1       PUBLIC        sdo
  C:79C4H         PUBLIC        pa_tab10
  C:79D8H         PUBLIC        pa_tab20
  C:79C6H         PUBLIC        pa_tab11
  C:79ECH         PUBLIC        pa_tab30
  C:79DAH         PUBLIC        pa_tab21
  C:79C8H         PUBLIC        pa_tab12
  C:7A00H         PUBLIC        pa_tab40
  C:79EEH         PUBLIC        pa_tab31
  C:79DCH         PUBLIC        pa_tab22
  C:79CAH         PUBLIC        pa_tab13
  B:0090H.0       PUBLIC        csx
BL51 BANKED LINKER/LOCATER V6.22.2.0                                                  12/09/2022  13:52:00  PAGE 73


  C:7A14H         PUBLIC        pa_tab50
  C:7A02H         PUBLIC        pa_tab41
  C:79F0H         PUBLIC        pa_tab32
  C:79DEH         PUBLIC        pa_tab23
  C:79CCH         PUBLIC        pa_tab14
  C:7A28H         PUBLIC        pa_tab60
  C:7A16H         PUBLIC        pa_tab51
  C:7A04H         PUBLIC        pa_tab42
  C:79F2H         PUBLIC        pa_tab33
  C:79E0H         PUBLIC        pa_tab24
  C:79CEH         PUBLIC        pa_tab15
  C:7A3CH         PUBLIC        pa_tab70
  C:7A2AH         PUBLIC        pa_tab61
  C:7A18H         PUBLIC        pa_tab52
  C:7A06H         PUBLIC        pa_tab43
  C:79F4H         PUBLIC        pa_tab34
  C:79E2H         PUBLIC        pa_tab25
  C:79D0H         PUBLIC        pa_tab16
  C:7A50H         PUBLIC        pa_tab80
  C:7A3EH         PUBLIC        pa_tab71
  C:7A2CH         PUBLIC        pa_tab62
  C:7A1AH         PUBLIC        pa_tab53
  C:7A08H         PUBLIC        pa_tab44
  C:79F6H         PUBLIC        pa_tab35
  C:79E4H         PUBLIC        pa_tab26
  C:79D2H         PUBLIC        pa_tab17
  C:7A64H         PUBLIC        pa_tab90
  C:7A52H         PUBLIC        pa_tab81
  C:7A40H         PUBLIC        pa_tab72
  C:7A2EH         PUBLIC        pa_tab63
  C:7A1CH         PUBLIC        pa_tab54
  C:7A0AH         PUBLIC        pa_tab45
  C:79F8H         PUBLIC        pa_tab36
  C:79E6H         PUBLIC        pa_tab27
  C:79D4H         PUBLIC        pa_tab18
  C:7A66H         PUBLIC        pa_tab91
  C:7A54H         PUBLIC        pa_tab82
  C:7A42H         PUBLIC        pa_tab73
  C:7A30H         PUBLIC        pa_tab64
  C:7A1EH         PUBLIC        pa_tab55
  C:7A0CH         PUBLIC        pa_tab46
  C:79FAH         PUBLIC        pa_tab37
  C:79E8H         PUBLIC        pa_tab28
  C:79D6H         PUBLIC        pa_tab19
  C:7A68H         PUBLIC        pa_tab92
  C:7A56H         PUBLIC        pa_tab83
  C:7A44H         PUBLIC        pa_tab74
  C:7A32H         PUBLIC        pa_tab65
  C:7A20H         PUBLIC        pa_tab56
  C:7A0EH         PUBLIC        pa_tab47
  C:79FCH         PUBLIC        pa_tab38
  C:79EAH         PUBLIC        pa_tab29
  C:7A6AH         PUBLIC        pa_tab93
  C:7A58H         PUBLIC        pa_tab84
  C:7A46H         PUBLIC        pa_tab75
  C:7A34H         PUBLIC        pa_tab66
  C:7A22H         PUBLIC        pa_tab57
BL51 BANKED LINKER/LOCATER V6.22.2.0                                                  12/09/2022  13:52:00  PAGE 74


  C:7A10H         PUBLIC        pa_tab48
  C:79FEH         PUBLIC        pa_tab39
  C:7A6CH         PUBLIC        pa_tab94
  C:7A5AH         PUBLIC        pa_tab85
  C:7A48H         PUBLIC        pa_tab76
  C:7A36H         PUBLIC        pa_tab67
  C:7A24H         PUBLIC        pa_tab58
  C:7A12H         PUBLIC        pa_tab49
  C:7A6EH         PUBLIC        pa_tab95
  C:7A5CH         PUBLIC        pa_tab86
  C:7A4AH         PUBLIC        pa_tab77
  C:7A38H         PUBLIC        pa_tab68
  C:7A26H         PUBLIC        pa_tab59
  C:7A70H         PUBLIC        pa_tab96
  C:7A5EH         PUBLIC        pa_tab87
  C:7A4CH         PUBLIC        pa_tab78
  C:7A3AH         PUBLIC        pa_tab69
  C:7A72H         PUBLIC        pa_tab97
  C:7A60H         PUBLIC        pa_tab88
  C:7A4EH         PUBLIC        pa_tab79
  C:7A74H         PUBLIC        pa_tab98
  C:7A62H         PUBLIC        pa_tab89
  C:7A76H         PUBLIC        pa_tab99
  C:3B82H         PUBLIC        W_write
  C:9DFBH         PUBLIC        _ssd2828_writecmd
  B:0020H.0       PUBLIC        ssd2828_cfg_ok
  C:7A78H         PUBLIC        pa_tab100
  C:7A8CH         PUBLIC        pa_tab110
  C:7A7AH         PUBLIC        pa_tab101
  -------         PROC          SSD2828_READID
  -------         DO            
  X:C10FH         SYMBOL        ssd2828_id
  X:C111H         SYMBOL        reg_temp
  X:C113H         SYMBOL        i
  -------         ENDDO         
  C:8F3BH         LINE#         205
  C:8F3BH         LINE#         206
  C:8F4AH         LINE#         208
  C:8F4CH         LINE#         209
  C:8F4EH         LINE#         210
  C:8F55H         LINE#         211
  C:8F67H         LINE#         213
  C:8F6FH         LINE#         214
  C:8F73H         LINE#         216
  C:8F75H         LINE#         217
  C:8F77H         LINE#         218
  C:8F7EH         LINE#         219
  C:8F80H         LINE#         220
  C:8F87H         LINE#         221
  C:8F94H         LINE#         222
  C:8F9CH         LINE#         223
  C:8F9EH         LINE#         224
  C:8FA5H         LINE#         225
  C:8FB7H         LINE#         226
  C:8FB9H         LINE#         227
  C:8FC0H         LINE#         228
  C:8FC2H         LINE#         229
BL51 BANKED LINKER/LOCATER V6.22.2.0                                                  12/09/2022  13:52:00  PAGE 75


  C:8FC9H         LINE#         230
  C:8FD6H         LINE#         231
  C:8FD9H         LINE#         232
  C:8FE0H         LINE#         233
  C:8FE8H         LINE#         234
  C:8FEAH         LINE#         235
  C:8FF1H         LINE#         236
  C:8FF9H         LINE#         237
  -------         ENDPROC       SSD2828_READID
  -------         PROC          _SSD2828_READREG
  D:0007H         SYMBOL        addr_reg
  -------         DO            
  X:C1DBH         SYMBOL        reg_value
  X:C1DDH         SYMBOL        reg_temp
  X:C1DFH         SYMBOL        i
  -------         ENDDO         
  C:8E7AH         LINE#         239
  C:8E7AH         LINE#         240
  C:8E81H         LINE#         242
  C:8E8BH         LINE#         243
  C:8E8DH         LINE#         244
  C:8E8FH         LINE#         245
  C:8E96H         LINE#         246
  C:8EA8H         LINE#         248
  C:8EB0H         LINE#         249
  C:8EB4H         LINE#         251
  C:8EB6H         LINE#         252
  C:8EB8H         LINE#         253
  C:8EBFH         LINE#         254
  C:8EC1H         LINE#         255
  C:8EC8H         LINE#         256
  C:8ED5H         LINE#         257
  C:8EDDH         LINE#         258
  C:8EDFH         LINE#         259
  C:8EE6H         LINE#         260
  C:8EF8H         LINE#         261
  C:8EFAH         LINE#         262
  C:8F01H         LINE#         263
  C:8F03H         LINE#         264
  C:8F0AH         LINE#         265
  C:8F17H         LINE#         266
  C:8F1AH         LINE#         267
  C:8F21H         LINE#         268
  C:8F29H         LINE#         269
  C:8F2BH         LINE#         270
  C:8F32H         LINE#         271
  C:8F3AH         LINE#         272
  -------         ENDPROC       _SSD2828_READREG
  -------         PROC          _SSD2828_WRITECMD
  D:0007H         SYMBOL        cmd
  -------         DO            
  X:C116H         SYMBOL        i
  X:C117H         SYMBOL        ssd2828_cmd
  -------         ENDDO         
  C:9DFBH         LINE#         274
  C:9DFBH         LINE#         276
  C:9E00H         LINE#         277
BL51 BANKED LINKER/LOCATER V6.22.2.0                                                  12/09/2022  13:52:00  PAGE 76


  C:9E02H         LINE#         278
  C:9E04H         LINE#         279
  C:9E0BH         LINE#         280
  C:9E1DH         LINE#         281
  C:9E22H         LINE#         282
  C:9E26H         LINE#         284
  C:9E28H         LINE#         285
  C:9E2AH         LINE#         286
  C:9E31H         LINE#         287
  C:9E33H         LINE#         288
  C:9E3AH         LINE#         289
  C:9E41H         LINE#         290
  C:9E49H         LINE#         291
  C:9E4BH         LINE#         292
  -------         ENDPROC       _SSD2828_WRITECMD
  -------         PROC          L?0075
  -------         ENDPROC       L?0075
  -------         PROC          _SSD2828_REGCONFIG
  D:0007H         SYMBOL        reg_addr
  D:0004H         SYMBOL        reg_data
  -------         DO            
  X:C116H         SYMBOL        i
  X:C117H         SYMBOL        addr_temp
  X:C118H         SYMBOL        data_H
  X:C119H         SYMBOL        data_L
  -------         ENDDO         
  C:87BEH         LINE#         295
  C:87BEH         LINE#         297
  C:87C3H         LINE#         298
  C:87C6H         LINE#         299
  C:87C9H         LINE#         300
  C:87CBH         LINE#         301
  C:87CDH         LINE#         302
  C:87D4H         LINE#         303
  C:87E6H         LINE#         304
  C:87EBH         LINE#         305
  C:87EFH         LINE#         307
  C:87F1H         LINE#         308
  C:87F3H         LINE#         309
  C:87FAH         LINE#         310
  C:87FCH         LINE#         311
  C:8803H         LINE#         312
  C:880AH         LINE#         313
  C:8812H         LINE#         314
  C:8814H         LINE#         315
  C:881BH         LINE#         316
  C:882DH         LINE#         317
  C:8834H         LINE#         318
  C:8838H         LINE#         320
  C:883AH         LINE#         321
  C:883CH         LINE#         322
  C:8843H         LINE#         323
  C:8845H         LINE#         324
  C:884CH         LINE#         325
  C:8853H         LINE#         326
  C:885BH         LINE#         327
  C:886DH         LINE#         328
BL51 BANKED LINKER/LOCATER V6.22.2.0                                                  12/09/2022  13:52:00  PAGE 77


  C:8874H         LINE#         329
  C:8878H         LINE#         331
  C:887AH         LINE#         332
  C:887CH         LINE#         333
  C:8883H         LINE#         334
  C:8885H         LINE#         335
  C:888CH         LINE#         336
  C:8893H         LINE#         337
  C:889BH         LINE#         338
  C:889DH         LINE#         339
  -------         ENDPROC       _SSD2828_REGCONFIG
  C:9169H         SYMBOL        L?0074
  -------         PROC          L?0073
  -------         ENDPROC       L?0073
  C:9169H         SYMBOL        L?0074
  -------         PROC          _SSD2828_WRITEPACKAGE
  X:C10FH         SYMBOL        pbuf
  D:0004H         SYMBOL        len
  -------         DO            
  X:C112H         SYMBOL        lenth
  X:C114H         SYMBOL        i
  X:C115H         SYMBOL        temp
  -------         ENDDO         
  C:916DH         LINE#         342
  C:9178H         LINE#         345
  C:9182H         LINE#         346
  C:9187H         LINE#         347
  C:9194H         LINE#         348
  C:9199H         LINE#         349
  C:919BH         LINE#         350
  C:919DH         LINE#         351
  C:91A4H         LINE#         352
  C:91B2H         LINE#         353
  C:91C9H         LINE#         354
  C:91DBH         LINE#         355
  C:91E0H         LINE#         356
  C:91E4H         LINE#         358
  C:91E6H         LINE#         359
  C:91E8H         LINE#         360
  C:91EFH         LINE#         361
  C:91F1H         LINE#         362
  C:91F8H         LINE#         363
  C:91FFH         LINE#         364
  C:9207H         LINE#         365
  C:9207H         LINE#         366
  C:9209H         LINE#         367
  -------         ENDPROC       _SSD2828_WRITEPACKAGE
  -------         PROC          _W_COM
  X:C1F2H         SYMBOL        cmd
  X:C1F3H         SYMBOL        val
  -------         DO            
  X:C1F4H         SYMBOL        i
  -------         ENDDO         
  C:8FFAH         LINE#         451
  C:9002H         LINE#         452
  C:9002H         LINE#         454
  C:900BH         LINE#         455
BL51 BANKED LINKER/LOCATER V6.22.2.0                                                  12/09/2022  13:52:00  PAGE 78


  C:9010H         LINE#         456
  C:9018H         LINE#         457
  C:901DH         LINE#         458
  C:901FH         LINE#         459
  C:9021H         LINE#         460
  C:9033H         LINE#         461
  C:9033H         LINE#         462
  C:903AH         LINE#         463
  C:903EH         LINE#         465
  C:9040H         LINE#         466
  C:9042H         LINE#         467
  C:9049H         LINE#         468
  C:904BH         LINE#         469
  C:9052H         LINE#         470
  C:9059H         LINE#         471
  C:9061H         LINE#         472
  C:9063H         LINE#         473
  C:906AH         LINE#         474
  C:907CH         LINE#         475
  C:907CH         LINE#         476
  C:9083H         LINE#         477
  C:9087H         LINE#         479
  C:9089H         LINE#         480
  C:908BH         LINE#         481
  C:9092H         LINE#         482
  C:9094H         LINE#         483
  C:909BH         LINE#         484
  C:90A2H         LINE#         485
  C:90A8H         LINE#         486
  C:90AAH         LINE#         487
  C:90B1H         LINE#         489
  -------         ENDPROC       _W_COM
  -------         PROC          _SSD2828_READ_MIPI
  X:C1E0H         SYMBOL        mipi_reg
  -------         DO            
  D:0006H         SYMBOL        reg_value
  X:C1E2H         SYMBOL        mipi_reg_value
  X:C1E4H         SYMBOL        mipi_read_cnt
  -------         ENDDO         
  C:988EH         LINE#         496
  C:9896H         LINE#         497
  C:989CH         LINE#         498
  C:989EH         LINE#         499
  C:989EH         LINE#         500
  C:98A7H         LINE#         502
  C:98B0H         LINE#         504
  C:98B5H         LINE#         505
  C:98C2H         LINE#         506
  C:98CBH         LINE#         507
  C:98D0H         LINE#         508
  C:98D6H         LINE#         509
  C:98DCH         LINE#         510
  C:98E9H         LINE#         512
  C:98F6H         LINE#         513
  C:98FFH         LINE#         514
  C:9907H         LINE#         515
  -------         ENDPROC       _SSD2828_READ_MIPI
BL51 BANKED LINKER/LOCATER V6.22.2.0                                                  12/09/2022  13:52:00  PAGE 79


  -------         PROC          W_WRITE
  C:3B82H         LINE#         517
  C:3B82H         LINE#         518
  C:3B82H         LINE#         519
  C:3B89H         LINE#         521
  C:3B90H         LINE#         522
  C:3B97H         LINE#         523
  C:3B9EH         LINE#         524
  C:3BA5H         LINE#         525
  C:3BACH         LINE#         527
  C:3BB3H         LINE#         528
  C:3BBAH         LINE#         529
  C:3BC1H         LINE#         530
  C:3BC8H         LINE#         531
  C:3BCFH         LINE#         532
  C:3BD6H         LINE#         533
  C:3BDDH         LINE#         534
  C:3BE4H         LINE#         535
  C:3BEBH         LINE#         536
  C:3BF2H         LINE#         537
  C:3BF9H         LINE#         538
  C:3C00H         LINE#         539
  C:3C07H         LINE#         540
  C:3C0EH         LINE#         541
  C:3C15H         LINE#         542
  C:3C1CH         LINE#         543
  C:3C23H         LINE#         544
  C:3C2AH         LINE#         545
  C:3C31H         LINE#         546
  C:3C38H         LINE#         547
  C:3C3FH         LINE#         548
  C:3C46H         LINE#         549
  C:3C4DH         LINE#         550
  C:3C54H         LINE#         551
  C:3C5BH         LINE#         552
  C:3C62H         LINE#         553
  C:3C69H         LINE#         554
  C:3C70H         LINE#         555
  C:3C77H         LINE#         556
  C:3C7EH         LINE#         557
  C:3C85H         LINE#         558
  C:3C8CH         LINE#         559
  C:3C93H         LINE#         560
  C:3C9AH         LINE#         561
  C:3CA1H         LINE#         562
  C:3CA8H         LINE#         563
  C:3CAFH         LINE#         564
  C:3CB6H         LINE#         565
  C:3CBDH         LINE#         566
  C:3CC4H         LINE#         567
  C:3CCBH         LINE#         568
  C:3CD2H         LINE#         569
  C:3CD9H         LINE#         570
  C:3CE0H         LINE#         571
  C:3CE7H         LINE#         572
  C:3CEEH         LINE#         573
  C:3CF5H         LINE#         574
BL51 BANKED LINKER/LOCATER V6.22.2.0                                                  12/09/2022  13:52:00  PAGE 80


  C:3CFCH         LINE#         575
  C:3D03H         LINE#         576
  C:3D0AH         LINE#         577
  C:3D11H         LINE#         578
  C:3D18H         LINE#         579
  C:3D1FH         LINE#         580
  C:3D26H         LINE#         581
  C:3D2DH         LINE#         582
  C:3D34H         LINE#         583
  C:3D3BH         LINE#         584
  C:3D42H         LINE#         585
  C:3D49H         LINE#         586
  C:3D50H         LINE#         587
  C:3D57H         LINE#         588
  C:3D5EH         LINE#         589
  C:3D65H         LINE#         590
  C:3D6CH         LINE#         591
  C:3D73H         LINE#         592
  C:3D7AH         LINE#         593
  C:3D81H         LINE#         594
  C:3D88H         LINE#         595
  C:3D8FH         LINE#         596
  C:3D96H         LINE#         597
  C:3D9DH         LINE#         598
  C:3DA4H         LINE#         599
  C:3DABH         LINE#         600
  C:3DB2H         LINE#         601
  C:3DB9H         LINE#         602
  C:3DC0H         LINE#         603
  C:3DC7H         LINE#         604
  C:3DCEH         LINE#         605
  C:3DD5H         LINE#         606
  C:3DDCH         LINE#         607
  C:3DE3H         LINE#         608
  C:3DEAH         LINE#         609
  C:3DF1H         LINE#         610
  C:3DF8H         LINE#         611
  C:3DFFH         LINE#         612
  C:3E06H         LINE#         613
  C:3E0DH         LINE#         614
  C:3E14H         LINE#         615
  C:3E1BH         LINE#         616
  C:3E22H         LINE#         617
  C:3E29H         LINE#         618
  C:3E30H         LINE#         619
  C:3E37H         LINE#         620
  C:3E3EH         LINE#         621
  C:3E45H         LINE#         622
  C:3E4CH         LINE#         623
  C:3E53H         LINE#         624
  C:3E5AH         LINE#         625
  C:3E61H         LINE#         626
  C:3E68H         LINE#         627
  C:3E6FH         LINE#         628
  C:3E76H         LINE#         629
  C:3E7DH         LINE#         630
  C:3E84H         LINE#         631
BL51 BANKED LINKER/LOCATER V6.22.2.0                                                  12/09/2022  13:52:00  PAGE 81


  C:3E8BH         LINE#         632
  C:3E92H         LINE#         633
  C:3E99H         LINE#         634
  C:3EA0H         LINE#         635
  C:3EA7H         LINE#         636
  C:3EAEH         LINE#         637
  C:3EB5H         LINE#         638
  C:3EBCH         LINE#         639
  C:3EC3H         LINE#         640
  C:3ECAH         LINE#         641
  C:3ED1H         LINE#         642
  C:3ED8H         LINE#         643
  C:3EDFH         LINE#         644
  C:3EE6H         LINE#         645
  C:3EEDH         LINE#         646
  C:3EF4H         LINE#         647
  C:3EFBH         LINE#         648
  C:3F02H         LINE#         650
  C:3F09H         LINE#         652
  C:3F10H         LINE#         653
  C:3F17H         LINE#         654
  C:3F1EH         LINE#         655
  C:3F25H         LINE#         656
  C:3F2CH         LINE#         657
  C:3F33H         LINE#         658
  C:3F3AH         LINE#         659
  C:3F41H         LINE#         660
  C:3F48H         LINE#         661
  C:3F4FH         LINE#         662
  C:3F56H         LINE#         663
  C:3F5DH         LINE#         664
  C:3F64H         LINE#         665
  C:3F6BH         LINE#         666
  C:3F72H         LINE#         667
  C:3F79H         LINE#         668
  C:3F80H         LINE#         669
  C:3F87H         LINE#         670
  C:3F8EH         LINE#         671
  C:3F95H         LINE#         672
  C:3F9CH         LINE#         673
  C:3FA3H         LINE#         674
  C:3FAAH         LINE#         675
  C:3FB1H         LINE#         676
  C:3FB8H         LINE#         677
  C:3FBFH         LINE#         678
  C:3FC6H         LINE#         679
  C:3FCDH         LINE#         680
  C:3FD4H         LINE#         681
  C:3FDBH         LINE#         682
  C:3FE2H         LINE#         683
  C:3FE9H         LINE#         684
  C:3FF0H         LINE#         685
  C:3FF7H         LINE#         686
  C:3FFEH         LINE#         687
  C:4005H         LINE#         688
  C:400CH         LINE#         689
  C:4013H         LINE#         690
BL51 BANKED LINKER/LOCATER V6.22.2.0                                                  12/09/2022  13:52:00  PAGE 82


  C:401AH         LINE#         691
  C:4021H         LINE#         692
  C:4028H         LINE#         693
  C:402FH         LINE#         694
  C:4036H         LINE#         695
  C:403DH         LINE#         696
  C:4044H         LINE#         697
  C:404BH         LINE#         698
  C:4052H         LINE#         699
  C:4059H         LINE#         700
  C:4060H         LINE#         701
  C:4067H         LINE#         702
  C:406EH         LINE#         703
  C:4075H         LINE#         704
  C:407CH         LINE#         705
  C:4083H         LINE#         706
  C:408AH         LINE#         707
  C:4091H         LINE#         708
  C:4098H         LINE#         709
  C:409FH         LINE#         710
  C:40A6H         LINE#         711
  C:40ADH         LINE#         712
  C:40B4H         LINE#         713
  C:40BBH         LINE#         714
  C:40C2H         LINE#         715
  C:40C9H         LINE#         716
  C:40D0H         LINE#         717
  C:40D7H         LINE#         718
  C:40DEH         LINE#         719
  C:40E5H         LINE#         720
  C:40ECH         LINE#         721
  C:40F3H         LINE#         722
  C:40FAH         LINE#         723
  C:4101H         LINE#         724
  C:4108H         LINE#         725
  C:410FH         LINE#         726
  C:4116H         LINE#         727
  C:411DH         LINE#         728
  C:4124H         LINE#         729
  C:412BH         LINE#         730
  C:4132H         LINE#         731
  C:4139H         LINE#         732
  C:4140H         LINE#         733
  C:4147H         LINE#         734
  C:414EH         LINE#         735
  C:4155H         LINE#         736
  C:415CH         LINE#         737
  C:4163H         LINE#         738
  C:416AH         LINE#         739
  C:4171H         LINE#         740
  C:4178H         LINE#         741
  C:417FH         LINE#         742
  C:4186H         LINE#         743
  C:418DH         LINE#         744
  C:4194H         LINE#         745
  C:419BH         LINE#         746
  C:41A2H         LINE#         747
BL51 BANKED LINKER/LOCATER V6.22.2.0                                                  12/09/2022  13:52:00  PAGE 83


  C:41A9H         LINE#         748
  C:41B0H         LINE#         749
  C:41B7H         LINE#         750
  C:41BEH         LINE#         751
  C:41C5H         LINE#         752
  C:41CCH         LINE#         753
  C:41D3H         LINE#         754
  C:41DAH         LINE#         755
  C:41E1H         LINE#         756
  C:41E8H         LINE#         757
  C:41EFH         LINE#         758
  C:41F6H         LINE#         759
  C:41FDH         LINE#         760
  C:4204H         LINE#         761
  C:420BH         LINE#         762
  C:4212H         LINE#         763
  C:4219H         LINE#         764
  C:4220H         LINE#         765
  C:4227H         LINE#         766
  C:422EH         LINE#         767
  C:4235H         LINE#         768
  C:423CH         LINE#         769
  C:4243H         LINE#         770
  C:424AH         LINE#         771
  C:4251H         LINE#         773
  C:4258H         LINE#         774
  C:425FH         LINE#         776
  C:4266H         LINE#         777
  -------         ENDPROC       W_WRITE
  -------         PROC          C055_CODE_DOWNLOAD
  C:48BDH         LINE#         781
  C:48BDH         LINE#         782
  C:48BDH         LINE#         783
  C:48CAH         LINE#         784
  C:48D1H         LINE#         785
  C:48D8H         LINE#         786
  C:48E1H         LINE#         787
  C:48EAH         LINE#         788
  C:48F3H         LINE#         789
  C:48FCH         LINE#         790
  C:4905H         LINE#         791
  C:490EH         LINE#         792
  C:4917H         LINE#         793
  C:4920H         LINE#         794
  C:4929H         LINE#         795
  C:4932H         LINE#         796
  C:493BH         LINE#         797
  C:4944H         LINE#         798
  C:494DH         LINE#         799
  C:4956H         LINE#         800
  C:495FH         LINE#         801
  C:4968H         LINE#         802
  C:4971H         LINE#         803
  C:497AH         LINE#         804
  C:4983H         LINE#         805
  C:498CH         LINE#         806
  C:4995H         LINE#         807
BL51 BANKED LINKER/LOCATER V6.22.2.0                                                  12/09/2022  13:52:00  PAGE 84


  C:499EH         LINE#         808
  C:49A7H         LINE#         809
  C:49B0H         LINE#         810
  C:49B9H         LINE#         811
  C:49C2H         LINE#         812
  C:49CBH         LINE#         813
  C:49D4H         LINE#         814
  C:49DDH         LINE#         815
  C:49E6H         LINE#         816
  C:49EFH         LINE#         817
  C:49F8H         LINE#         818
  C:4A01H         LINE#         819
  C:4A0AH         LINE#         820
  C:4A13H         LINE#         821
  C:4A1CH         LINE#         822
  C:4A25H         LINE#         823
  C:4A2EH         LINE#         824
  C:4A37H         LINE#         825
  C:4A40H         LINE#         826
  C:4A49H         LINE#         827
  C:4A52H         LINE#         828
  C:4A5BH         LINE#         829
  C:4A64H         LINE#         830
  C:4A6DH         LINE#         831
  C:4A76H         LINE#         832
  C:4A7FH         LINE#         833
  C:4A88H         LINE#         834
  C:4A91H         LINE#         835
  C:4A9AH         LINE#         836
  C:4AA3H         LINE#         837
  C:4AACH         LINE#         838
  C:4AB5H         LINE#         839
  C:4ABEH         LINE#         840
  C:4AC7H         LINE#         841
  C:4AD0H         LINE#         842
  C:4AD9H         LINE#         843
  C:4AE2H         LINE#         844
  C:4AEBH         LINE#         845
  C:4AF4H         LINE#         846
  C:4AFDH         LINE#         847
  C:4B06H         LINE#         848
  C:4B0FH         LINE#         849
  C:4B18H         LINE#         850
  C:4B21H         LINE#         851
  C:4B2AH         LINE#         852
  C:4B33H         LINE#         853
  C:4B3CH         LINE#         854
  C:4B45H         LINE#         855
  C:4B4EH         LINE#         856
  C:4B57H         LINE#         857
  C:4B60H         LINE#         858
  C:4B69H         LINE#         859
  C:4B72H         LINE#         860
  C:4B7BH         LINE#         861
  C:4B84H         LINE#         862
  C:4B8DH         LINE#         863
  C:4B96H         LINE#         864
BL51 BANKED LINKER/LOCATER V6.22.2.0                                                  12/09/2022  13:52:00  PAGE 85


  C:4B9FH         LINE#         865
  C:4BA8H         LINE#         866
  C:4BB1H         LINE#         867
  C:4BBAH         LINE#         868
  C:4BC3H         LINE#         869
  C:4BCCH         LINE#         870
  C:4BD5H         LINE#         871
  C:4BDEH         LINE#         872
  C:4BE7H         LINE#         873
  C:4BF0H         LINE#         874
  C:4BF9H         LINE#         875
  C:4C02H         LINE#         876
  C:4C0BH         LINE#         877
  C:4C14H         LINE#         878
  C:4C1DH         LINE#         879
  C:4C26H         LINE#         880
  C:4C2FH         LINE#         881
  C:4C38H         LINE#         882
  C:4C41H         LINE#         883
  C:4C4AH         LINE#         884
  C:4C53H         LINE#         885
  C:4C5CH         LINE#         886
  C:4C65H         LINE#         887
  C:4C6EH         LINE#         888
  C:4C77H         LINE#         889
  C:4C80H         LINE#         890
  C:4C89H         LINE#         891
  C:4C92H         LINE#         892
  C:4C9BH         LINE#         893
  C:4CA4H         LINE#         894
  C:4CADH         LINE#         895
  C:4CB6H         LINE#         896
  C:4CBFH         LINE#         897
  C:4CC8H         LINE#         898
  C:4CD1H         LINE#         899
  C:4CDEH         LINE#         900
  C:4CE7H         LINE#         901
  C:4CF0H         LINE#         902
  C:4CF9H         LINE#         903
  C:4D02H         LINE#         904
  C:4D0BH         LINE#         905
  C:4D14H         LINE#         906
  C:4D1DH         LINE#         907
  C:4D26H         LINE#         908
  C:4D2FH         LINE#         909
  C:4D38H         LINE#         910
  C:4D45H         LINE#         911
  C:4D4EH         LINE#         912
  C:4D57H         LINE#         913
  C:4D60H         LINE#         914
  C:4D69H         LINE#         915
  C:4D72H         LINE#         916
  C:4D7BH         LINE#         917
  C:4D84H         LINE#         918
  C:4D8DH         LINE#         919
  C:4D96H         LINE#         920
  C:4D9FH         LINE#         921
BL51 BANKED LINKER/LOCATER V6.22.2.0                                                  12/09/2022  13:52:00  PAGE 86


  C:4DACH         LINE#         922
  C:4DB5H         LINE#         923
  C:4DBEH         LINE#         924
  C:4DC7H         LINE#         925
  C:4DD4H         LINE#         926
  C:4DE1H         LINE#         927
  C:4DEEH         LINE#         928
  C:4DFBH         LINE#         929
  C:4E04H         LINE#         930
  C:4E0DH         LINE#         931
  C:4E16H         LINE#         932
  C:4E1FH         LINE#         933
  C:4E28H         LINE#         934
  C:4E31H         LINE#         935
  C:4E3AH         LINE#         936
  C:4E47H         LINE#         937
  C:4E50H         LINE#         938
  C:4E59H         LINE#         939
  C:4E62H         LINE#         940
  C:4E6FH         LINE#         941
  C:4E78H         LINE#         942
  C:4E81H         LINE#         943
  C:4E88H         LINE#         944
  C:4E91H         LINE#         945
  -------         ENDPROC       C055_CODE_DOWNLOAD
  -------         PROC          LCD_PA_SET
  -------         DO            
  D:0007H         SYMBOL        lcd_vs
  D:0005H         SYMBOL        lcd_hs
  X:C10FH         SYMBOL        lcd_vbp
  X:C110H         SYMBOL        lcd_hbp
  X:C111H         SYMBOL        lcd_vfp
  D:0001H         SYMBOL        lcd_hfp
  D:0004H         SYMBOL        lcd_sw
  X:C112H         SYMBOL        lcd_bp
  X:C114H         SYMBOL        lcd_fp
  -------         ENDDO         
  C:9BB5H         LINE#         948
  C:9BB5H         LINE#         951
  C:9BB5H         LINE#         952
  C:9BB5H         LINE#         953
  C:9BBBH         LINE#         954
  C:9BBFH         LINE#         955
  C:9BC3H         LINE#         956
  C:9BC5H         LINE#         957
  C:9BCAH         LINE#         958
  C:9BDCH         LINE#         959
  C:9BEBH         LINE#         960
  C:9BF0H         LINE#         961
  C:9BFDH         LINE#         962
  C:9C0AH         LINE#         963
  C:9C13H         LINE#         964
  -------         ENDPROC       LCD_PA_SET
  -------         PROC          SSD2828_INIT
  -------         DO            
  D:0006H         SYMBOL        temp
  -------         ENDDO         
BL51 BANKED LINKER/LOCATER V6.22.2.0                                                  12/09/2022  13:52:00  PAGE 87


  C:83D4H         LINE#         967
  C:83D4H         LINE#         969
  C:83D7H         LINE#         970
  C:83DAH         LINE#         971
  C:83E7H         LINE#         975
  C:83EFH         LINE#         976
  C:83F7H         LINE#         977
  C:83FFH         LINE#         979
  C:8408H         LINE#         980
  C:8411H         LINE#         981
  C:841AH         LINE#         983
  C:8423H         LINE#         984
  C:842CH         LINE#         985
  C:8433H         LINE#         987
  C:843CH         LINE#         989
  C:8443H         LINE#         992
  C:8446H         LINE#         996
  C:844FH         LINE#         997
  C:8457H         LINE#         998
  C:845FH         LINE#         1001
  C:8468H         LINE#         1003
  C:8471H         LINE#         1004
  C:847AH         LINE#         1005
  C:8483H         LINE#         1006
  C:848AH         LINE#         1007
  C:8493H         LINE#         1008
  C:849CH         LINE#         1009
  C:84A5H         LINE#         1010
  C:84ADH         LINE#         1011
  C:84B0H         LINE#         1014
  C:84B9H         LINE#         1015
  C:84C2H         LINE#         1017
  C:84CBH         LINE#         1019
  C:84D4H         LINE#         1020
  C:84DBH         LINE#         1021
  C:84E0H         LINE#         1027
  C:84E2H         LINE#         1028
  -------         ENDPROC       SSD2828_INIT
  -------         ENDMOD        SSD2828

  -------         MODULE        RTC
  C:0000H         SYMBOL        _ICE_DUMMY_
  D:00B0H         PUBLIC        P3
  X:C1CEH         PUBLIC        RTCdata
  C:8B4FH         PUBLIC        rdtime
  D:00BEH         PUBLIC        P3MDOUT
  C:A36AH         PUBLIC        cack
  C:A247H         PUBLIC        _Hex_to_BCD
  C:A4B9H         PUBLIC        mack
  B:00B0H.3       PUBLIC        RTC_SDA
  C:A4C8H         PUBLIC        mnak
  B:00B0H.2       PUBLIC        RTC_SCL
  C:A462H         PUBLIC        i2cstart
  C:A533H         PUBLIC        SDA_OUT
  C:A44CH         PUBLIC        i2cstop
  C:A52FH         PUBLIC        SDA_IN
  C:A20DH         PUBLIC        i2cbr
BL51 BANKED LINKER/LOCATER V6.22.2.0                                                  12/09/2022  13:52:00  PAGE 88


  C:8C1EH         PUBLIC        _Write_RTC
  C:99C1H         PUBLIC        _i2cbw
  C:9A69H         PUBLIC        init_rtc
  C:90B8H         PUBLIC        Write_wifi_RTC
  C:A4F6H         PUBLIC        RTC_Read_and_Set
  B:0020H.1       PUBLIC        is_time_flag
  C:92ABH         PUBLIC        _rtc_get_week
  C:A34DH         PUBLIC        _delayus
  -------         PROC          SDA_IN
  C:A52FH         LINE#         11
  C:A52FH         LINE#         12
  C:A52FH         LINE#         13
  C:A532H         LINE#         14
  -------         ENDPROC       SDA_IN
  -------         PROC          SDA_OUT
  C:A533H         LINE#         16
  C:A533H         LINE#         17
  C:A533H         LINE#         19
  C:A536H         LINE#         20
  -------         ENDPROC       SDA_OUT
  C:A344H         SYMBOL        L?0061
  -------         PROC          L?0060
  -------         ENDPROC       L?0060
  C:A344H         SYMBOL        L?0061
  -------         PROC          _DELAYUS
  D:0007H         SYMBOL        t
  -------         DO            
  D:0006H         SYMBOL        i
  -------         ENDDO         
  C:A34DH         LINE#         23
  C:A34DH         LINE#         24
  C:A34DH         LINE#         26
  C:A350H         LINE#         27
  C:A350H         LINE#         28
  C:A363H         LINE#         29
  C:A363H         LINE#         30
  C:A363H         LINE#         31
  C:A366H         LINE#         32
  C:A367H         LINE#         33
  C:A369H         LINE#         34
  -------         ENDPROC       _DELAYUS
  -------         PROC          I2CSTART
  C:A462H         LINE#         36
  C:A462H         LINE#         37
  C:A462H         LINE#         38
  C:A465H         LINE#         39
  C:A467H         LINE#         40
  C:A469H         LINE#         41
  C:A46EH         LINE#         42
  C:A470H         LINE#         43
  C:A475H         LINE#         44
  C:A477H         LINE#         45
  -------         ENDPROC       I2CSTART
  -------         PROC          L?0062
  -------         ENDPROC       L?0062
  -------         PROC          I2CSTOP
  C:A44CH         LINE#         48
BL51 BANKED LINKER/LOCATER V6.22.2.0                                                  12/09/2022  13:52:00  PAGE 89


  C:A44CH         LINE#         49
  C:A44CH         LINE#         50
  C:A44FH         LINE#         51
  C:A451H         LINE#         52
  C:A453H         LINE#         53
  C:A458H         LINE#         54
  C:A45AH         LINE#         55
  C:A45FH         LINE#         56
  -------         ENDPROC       I2CSTOP
  -------         PROC          MACK
  C:A4B9H         LINE#         59
  C:A4B9H         LINE#         60
  C:A4B9H         LINE#         61
  C:A4BCH         LINE#         62
  C:A4BEH         LINE#         63
  C:A4BEH         LINE#         64
  C:A4BEH         LINE#         65
  C:A4C1H         LINE#         66
  C:A4C3H         LINE#         67
  -------         ENDPROC       MACK
  -------         PROC          MNAK
  C:A4C8H         LINE#         70
  C:A4C8H         LINE#         71
  C:A4C8H         LINE#         72
  C:A4CBH         LINE#         73
  C:A4CBH         LINE#         74
  C:A4CBH         LINE#         75
  C:A4CBH         LINE#         76
  C:A4CEH         LINE#         77
  C:A4D0H         LINE#         78
  -------         ENDPROC       MNAK
  -------         PROC          CACK
  -------         DO            
  D:0003H         SYMBOL        i
  -------         ENDDO         
  C:A36AH         LINE#         81
  C:A36AH         LINE#         82
  C:A36AH         LINE#         84
  C:A36DH         LINE#         85
  C:A36DH         LINE#         86
  C:A36DH         LINE#         87
  C:A36DH         LINE#         88
  C:A370H         LINE#         89
  C:A37CH         LINE#         90
  C:A37CH         LINE#         91
  C:A37FH         LINE#         92
  C:A384H         LINE#         93
  C:A387H         LINE#         94
  C:A389H         LINE#         95
  C:A38EH         LINE#         96
  -------         ENDPROC       CACK
  C:9983H         SYMBOL        L?0055
  C:99B6H         SYMBOL        L?0056
  C:99BCH         SYMBOL        L?0057
  -------         PROC          L?0054
  -------         ENDPROC       L?0054
  C:9983H         SYMBOL        L?0055
BL51 BANKED LINKER/LOCATER V6.22.2.0                                                  12/09/2022  13:52:00  PAGE 90


  C:99B6H         SYMBOL        L?0056
  C:99BCH         SYMBOL        L?0057
  -------         PROC          _I2CBW
  D:0003H         SYMBOL        dat
  -------         DO            
  D:0002H         SYMBOL        i
  -------         ENDDO         
  C:99C1H         LINE#         100
  C:99C3H         LINE#         101
  C:99C3H         LINE#         102
  C:99C6H         LINE#         103
  C:99D9H         LINE#         104
  C:99D9H         LINE#         105
  C:99DDH         LINE#         106
  C:99E1H         LINE#         108
  C:99E3H         LINE#         109
  C:99E7H         LINE#         110
  C:99E7H         LINE#         111
  C:99E7H         LINE#         112
  C:99EAH         LINE#         113
  C:99ECH         LINE#         114
  C:99F1H         LINE#         115
  C:99F4H         LINE#         116
  -------         ENDPROC       _I2CBW
  -------         PROC          I2CBR
  -------         DO            
  D:0002H         SYMBOL        i
  D:0003H         SYMBOL        dat
  -------         ENDDO         
  C:A20DH         LINE#         120
  C:A20DH         LINE#         121
  C:A20DH         LINE#         124
  C:A210H         LINE#         125
  C:A223H         LINE#         126
  C:A223H         LINE#         127
  C:A223H         LINE#         128
  C:A223H         LINE#         129
  C:A226H         LINE#         130
  C:A22AH         LINE#         131
  C:A22DH         LINE#         132
  C:A232H         LINE#         134
  C:A236H         LINE#         135
  C:A238H         LINE#         136
  C:A23DH         LINE#         137
  C:A240H         LINE#         138
  C:A242H         LINE#         139
  -------         ENDPROC       I2CBR
  -------         PROC          INIT_RTC
  -------         DO            
  D:0001H         SYMBOL        i
  -------         ENDDO         
  C:9A69H         LINE#         142
  C:9A69H         LINE#         143
  C:9A69H         LINE#         146
  C:9A70H         LINE#         147
  C:9A77H         LINE#         150
  C:9A77H         LINE#         151
BL51 BANKED LINKER/LOCATER V6.22.2.0                                                  12/09/2022  13:52:00  PAGE 91


  C:9A7AH         LINE#         152
  C:9A7FH         LINE#         153
  C:9A82H         LINE#         154
  C:9A85H         LINE#         155
  C:9A8AH         LINE#         156
  C:9A8FH         LINE#         157
  C:9A92H         LINE#         158
  C:9A95H         LINE#         159
  C:9A98H         LINE#         160
  C:9A9BH         LINE#         161
  C:9AA2H         LINE#         162
  C:9AA2H         LINE#         163
  C:9AA2H         LINE#         164
  C:9AA2H         LINE#         165
  C:9AA2H         LINE#         166
  C:9AA2H         LINE#         167
  C:9AA2H         LINE#         168
  C:9AA2H         LINE#         169
  C:9AA2H         LINE#         170
  C:9AA2H         LINE#         171
  C:9AA2H         LINE#         172
  C:9AA2H         LINE#         173
  C:9AA2H         LINE#         174
  C:9AA2H         LINE#         175
  C:9AA2H         LINE#         176
  C:9AA2H         LINE#         177
  C:9AA5H         LINE#         178
  C:9AAAH         LINE#         179
  C:9AAFH         LINE#         180
  C:9AB4H         LINE#         181
  C:9AB9H         LINE#         182
  C:9ABEH         LINE#         183
  C:9AC3H         LINE#         184
  C:9AC8H         LINE#         185
  C:9ACAH         LINE#         186
  C:9ACAH         LINE#         187
  C:9ACAH         LINE#         188
  C:9ACDH         LINE#         189
  C:9AD2H         LINE#         190
  C:9AD7H         LINE#         191
  C:9AD7H         LINE#         192
  C:9ADAH         LINE#         193
  C:9ADAH         LINE#         194
  -------         ENDPROC       INIT_RTC
  -------         PROC          RDTIME
  -------         DO            
  D:0001H         SYMBOL        i
  X:C10FH         SYMBOL        n
  X:C110H         SYMBOL        m
  -------         ENDDO         
  C:8B4FH         LINE#         197
  C:8B4FH         LINE#         198
  C:8B4FH         LINE#         201
  C:8B4FH         LINE#         202
  C:8B52H         LINE#         203
  C:8B52H         LINE#         204
  C:8B55H         LINE#         205
BL51 BANKED LINKER/LOCATER V6.22.2.0                                                  12/09/2022  13:52:00  PAGE 92


  C:8B58H         LINE#         206
  C:8B5DH         LINE#         207
  C:8B69H         LINE#         208
  C:8B69H         LINE#         209
  C:8B78H         LINE#         210
  C:8B7BH         LINE#         211
  C:8B7EH         LINE#         212
  C:8B86H         LINE#         213
  C:8B89H         LINE#         214
  C:8B8CH         LINE#         215
  C:8B98H         LINE#         216
  C:8B98H         LINE#         217
  C:8BACH         LINE#         218
  C:8BB2H         LINE#         219
  C:8BC5H         LINE#         220
  C:8BC8H         LINE#         221
  C:8BD4H         LINE#         222
  C:8BD4H         LINE#         223
  C:8BE8H         LINE#         224
  C:8BEEH         LINE#         225
  C:8C01H         LINE#         226
  C:8C04H         LINE#         242
  C:8C09H         LINE#         243
  -------         ENDPROC       RDTIME
  C:A243H         SYMBOL        L?0059
  -------         PROC          L?0058
  -------         ENDPROC       L?0058
  C:A243H         SYMBOL        L?0059
  -------         PROC          _HEX_TO_BCD
  D:0002H         SYMBOL        value
  C:A247H         LINE#         246
  C:A24BH         LINE#         247
  C:A24BH         LINE#         248
  C:A274H         LINE#         249
  C:A277H         LINE#         250
  -------         ENDPROC       _HEX_TO_BCD
  -------         PROC          _RTC_GET_WEEK
  D:0004H         SYMBOL        year
  D:0005H         SYMBOL        month
  X:C1E5H         SYMBOL        day
  -------         DO            
  D:0006H         SYMBOL        tmp
  X:C1E6H         SYMBOL        mon
  X:C1E8H         SYMBOL        y
  D:0007H         SYMBOL        week
  -------         ENDDO         
  C:92ABH         LINE#         253
  C:92B2H         LINE#         254
  C:92B2H         LINE#         257
  C:92BFH         LINE#         258
  C:92BFH         LINE#         259
  C:92CCH         LINE#         260
  C:92D8H         LINE#         261
  C:92DAH         LINE#         263
  C:92DAH         LINE#         264
  C:92E4H         LINE#         265
  C:92ECH         LINE#         266
BL51 BANKED LINKER/LOCATER V6.22.2.0                                                  12/09/2022  13:52:00  PAGE 93


  C:92ECH         LINE#         267
  C:9337H         LINE#         268
  C:933EH         LINE#         269
  C:933EH         LINE#         270
  -------         ENDPROC       _RTC_GET_WEEK
  -------         PROC          _WRITE_RTC
  D:0006H         SYMBOL        time_addr
  X:C161H         SYMBOL        week_addr
  -------         DO            
  X:C163H         SYMBOL        rtcdata
  X:C16BH         SYMBOL        Rtc_Set
  X:C171H         SYMBOL        week
  -------         ENDDO         
  C:8C1EH         LINE#         273
  C:8C26H         LINE#         274
  C:8C26H         LINE#         279
  C:8C38H         LINE#         280
  C:8C51H         LINE#         282
  C:8C5CH         LINE#         283
  C:8C67H         LINE#         284
  C:8C72H         LINE#         285
  C:8C7DH         LINE#         286
  C:8C88H         LINE#         287
  C:8C93H         LINE#         296
  C:8CA5H         LINE#         298
  C:8CA5H         LINE#         299
  C:8CA5H         LINE#         300
  C:8CA5H         LINE#         301
  C:8CA5H         LINE#         302
  C:8CA5H         LINE#         303
  C:8CA5H         LINE#         304
  C:8CA5H         LINE#         305
  C:8CA5H         LINE#         306
  C:8CA5H         LINE#         307
  C:8CA5H         LINE#         308
  C:8CA5H         LINE#         309
  C:8CA5H         LINE#         310
  C:8CA5H         LINE#         311
  C:8CA5H         LINE#         312
  C:8CA8H         LINE#         313
  C:8CADH         LINE#         316
  C:8CB5H         LINE#         317
  C:8CBBH         LINE#         318
  C:8CC1H         LINE#         319
  C:8CC7H         LINE#         320
  C:8CCDH         LINE#         321
  C:8CD3H         LINE#         322
  C:8CD6H         LINE#         326
  C:8CD6H         LINE#         327
  C:8CD6H         LINE#         328
  C:8CD9H         LINE#         329
  C:8CDEH         LINE#         330
  C:8CE3H         LINE#         331
  C:8CE8H         LINE#         332
  -------         ENDPROC       _WRITE_RTC
  -------         PROC          WRITE_WIFI_RTC
  -------         DO            
BL51 BANKED LINKER/LOCATER V6.22.2.0                                                  12/09/2022  13:52:00  PAGE 94


  X:C173H         SYMBOL        rtcdata
  X:C17AH         SYMBOL        Rtc_Set
  -------         ENDDO         
  C:90B8H         LINE#         335
  C:90B8H         LINE#         336
  C:90B8H         LINE#         340
  C:90CDH         LINE#         343
  C:90D8H         LINE#         344
  C:90E3H         LINE#         345
  C:90EEH         LINE#         346
  C:90F9H         LINE#         347
  C:9104H         LINE#         348
  C:910FH         LINE#         350
  C:9121H         LINE#         352
  C:9121H         LINE#         353
  C:9121H         LINE#         354
  C:9121H         LINE#         355
  C:9121H         LINE#         356
  C:9121H         LINE#         357
  C:9121H         LINE#         358
  C:9121H         LINE#         359
  C:9121H         LINE#         360
  C:9121H         LINE#         361
  C:9121H         LINE#         362
  C:9121H         LINE#         363
  C:9121H         LINE#         364
  C:9121H         LINE#         365
  C:9121H         LINE#         366
  C:9124H         LINE#         367
  C:9129H         LINE#         370
  C:9131H         LINE#         371
  C:9137H         LINE#         372
  C:913DH         LINE#         373
  C:9143H         LINE#         374
  C:9149H         LINE#         375
  C:914FH         LINE#         376
  C:9152H         LINE#         380
  C:9152H         LINE#         381
  C:9152H         LINE#         382
  C:9155H         LINE#         383
  C:915AH         LINE#         384
  C:915FH         LINE#         385
  C:9164H         LINE#         386
  -------         ENDPROC       WRITE_WIFI_RTC
  -------         PROC          RTC_READ_AND_SET
  C:A4F6H         LINE#         390
  C:A4F6H         LINE#         391
  C:A4F6H         LINE#         392
  C:A4F9H         LINE#         393
  C:A4F9H         LINE#         394
  C:A4FBH         LINE#         395
  C:A4FEH         LINE#         396
  C:A4FEH         LINE#         397
  -------         ENDPROC       RTC_READ_AND_SET
  -------         ENDMOD        RTC

  -------         MODULE        MYMODBUS
BL51 BANKED LINKER/LOCATER V6.22.2.0                                                  12/09/2022  13:52:00  PAGE 95


  C:0000H         SYMBOL        _ICE_DUMMY_
  C:9F97H         PUBLIC        _SendString
  X:C14AH         PUBLIC        Send_Buf
  X:C15EH         PUBLIC        ID
  C:969DH         PUBLIC        _crc16
  C:6D2BH         PUBLIC        auchCRCHi
  C:8CEBH         PUBLIC        Send_ModBus_IP
  C:6E2BH         PUBLIC        auchCRCLo
  C:85D9H         PUBLIC        _Send_ModBus
  C:9ADBH         PUBLIC        _Send_ModBus04_10
  C:9908H         PUBLIC        _Send_ModBus08_10
  X:C15FH         PUBLIC        CRC_C
  C:9D3EH         PUBLIC        _Send_ModBus_10
  -------         PROC          L?0020
  -------         ENDPROC       L?0020
  -------         PROC          _CRC16
  X:C139H         SYMBOL        puchMsg
  X:C13CH         SYMBOL        usDataLen
  -------         DO            
  X:C13DH         SYMBOL        uchCRCHi
  X:C13EH         SYMBOL        uchCRCLo
  X:C13FH         SYMBOL        uIndex
  -------         ENDDO         
  C:969DH         LINE#         74
  C:96ABH         LINE#         75
  C:96ABH         LINE#         76
  C:96AFH         LINE#         77
  C:96B1H         LINE#         80
  C:96BBH         LINE#         81
  C:96BBH         LINE#         82
  C:96DFH         LINE#         83
  C:96F5H         LINE#         84
  C:96FEH         LINE#         85
  C:9700H         LINE#         86
  C:970AH         LINE#         88
  -------         ENDPROC       _CRC16
  -------         PROC          _SENDSTRING
  X:C139H         SYMBOL        str
  X:C13CH         SYMBOL        len
  -------         DO            
  X:C13DH         SYMBOL        k
  -------         ENDDO         
  C:9F97H         LINE#         94
  C:9FA5H         LINE#         95
  C:9FA5H         LINE#         96
  C:9FAAH         LINE#         98
  C:9FAAH         LINE#         99
  C:9FC7H         LINE#         100
  C:9FD5H         LINE#         101
  C:9FDFH         LINE#         102
  -------         ENDPROC       _SENDSTRING
  -------         PROC          _SEND_MODBUS
  X:C131H         SYMBOL        CMD
  X:C132H         SYMBOL        Address
  X:C134H         SYMBOL        dat
  X:C136H         SYMBOL        count
  C:85D9H         LINE#         107
BL51 BANKED LINKER/LOCATER V6.22.2.0                                                  12/09/2022  13:52:00  PAGE 96


  C:85ECH         LINE#         108
  C:85ECH         LINE#         110
  C:85F2H         LINE#         112
  C:8605H         LINE#         113
  C:8605H         LINE#         114
  C:8605H         LINE#         115
  C:860DH         LINE#         116
  C:8615H         LINE#         117
  C:8622H         LINE#         118
  C:8625H         LINE#         119
  C:8628H         LINE#         120
  C:862FH         LINE#         122
  C:862FH         LINE#         123
  C:862FH         LINE#         124
  C:862FH         LINE#         125
  C:862FH         LINE#         126
  C:8631H         LINE#         127
  C:8631H         LINE#         128
  C:8631H         LINE#         129
  C:8631H         LINE#         130
  C:8639H         LINE#         131
  C:8641H         LINE#         132
  C:864EH         LINE#         133
  C:8651H         LINE#         134
  C:865EH         LINE#         135
  C:8661H         LINE#         137
  C:8674H         LINE#         138
  C:8681H         LINE#         139
  C:8682H         LINE#         140
  C:8682H         LINE#         141
  C:8684H         LINE#         142
  C:8684H         LINE#         143
  C:8684H         LINE#         144
  C:8684H         LINE#         145
  C:868CH         LINE#         146
  C:8694H         LINE#         147
  C:869DH         LINE#         148
  C:869FH         LINE#         149
  C:86A8H         LINE#         150
  C:86AAH         LINE#         152
  C:86BDH         LINE#         153
  C:86C1H         LINE#         154
  C:86C3H         LINE#         156
  C:86CEH         LINE#         157
  C:86CEH         LINE#         158
  C:86CEH         LINE#         159
  C:86CEH         LINE#         161
  -------         ENDPROC       _SEND_MODBUS
  -------         PROC          _SEND_MODBUS_10
  D:0007H         SYMBOL        CMD
  D:0004H         SYMBOL        Address
  D:0002H         SYMBOL        Register_num
  X:C136H         SYMBOL        dat
  X:C138H         SYMBOL        count
  C:9D3EH         LINE#         163
  C:9D3EH         LINE#         164
  C:9D3EH         LINE#         166
BL51 BANKED LINKER/LOCATER V6.22.2.0                                                  12/09/2022  13:52:00  PAGE 97


  C:9D44H         LINE#         168
  C:9D48H         LINE#         169
  C:9D4BH         LINE#         170
  C:9D4EH         LINE#         171
  C:9D51H         LINE#         172
  C:9D54H         LINE#         173
  C:9D57H         LINE#         174
  C:9D5FH         LINE#         175
  C:9D6CH         LINE#         176
  C:9D6FH         LINE#         178
  C:9D82H         LINE#         179
  C:9D8FH         LINE#         180
  C:9D92H         LINE#         181
  -------         ENDPROC       _SEND_MODBUS_10
  -------         PROC          _SEND_MODBUS04_10
  D:0007H         SYMBOL        CMD
  D:0004H         SYMBOL        Address
  D:0002H         SYMBOL        Register_num
  X:C1B9H         SYMBOL        datH
  X:C1BBH         SYMBOL        datL
  X:C1BDH         SYMBOL        count
  C:9ADBH         LINE#         185
  C:9ADBH         LINE#         186
  C:9ADBH         LINE#         188
  C:9AE1H         LINE#         190
  C:9AE5H         LINE#         191
  C:9AE8H         LINE#         192
  C:9AEBH         LINE#         193
  C:9AEEH         LINE#         194
  C:9AF1H         LINE#         195
  C:9AF4H         LINE#         196
  C:9AFCH         LINE#         197
  C:9B09H         LINE#         198
  C:9B0CH         LINE#         199
  C:9B19H         LINE#         200
  C:9B1CH         LINE#         202
  C:9B2FH         LINE#         203
  C:9B3CH         LINE#         204
  C:9B3FH         LINE#         205
  -------         ENDPROC       _SEND_MODBUS04_10
  -------         PROC          SEND_MODBUS_IP
  C:8CEBH         LINE#         210
  C:8CEBH         LINE#         211
  C:8CEBH         LINE#         212
  C:8D00H         LINE#         213
  C:8D15H         LINE#         214
  C:8D2AH         LINE#         215
  C:8D3FH         LINE#         217
  C:8D45H         LINE#         218
  C:8D49H         LINE#         219
  C:8D4CH         LINE#         220
  C:8D50H         LINE#         221
  C:8D53H         LINE#         222
  C:8D57H         LINE#         223
  C:8D5BH         LINE#         224
  C:8D68H         LINE#         225
  C:8D6BH         LINE#         226
BL51 BANKED LINKER/LOCATER V6.22.2.0                                                  12/09/2022  13:52:00  PAGE 98


  C:8D78H         LINE#         227
  C:8D7BH         LINE#         228
  C:8D88H         LINE#         229
  C:8D8BH         LINE#         230
  C:8D8EH         LINE#         231
  C:8D8EH         LINE#         233
  C:8D99H         LINE#         234
  C:8DA6H         LINE#         235
  C:8DA9H         LINE#         236
  -------         ENDPROC       SEND_MODBUS_IP
  -------         PROC          _SEND_MODBUS08_10
  D:0007H         SYMBOL        CMD
  D:0004H         SYMBOL        Address
  D:0002H         SYMBOL        Register_num
  X:C187H         SYMBOL        datH
  X:C189H         SYMBOL        datL
  X:C18BH         SYMBOL        dat1H
  X:C18DH         SYMBOL        dat1L
  X:C18FH         SYMBOL        count
  C:9908H         LINE#         240
  C:9908H         LINE#         241
  C:9908H         LINE#         243
  C:990EH         LINE#         245
  C:9912H         LINE#         246
  C:9915H         LINE#         247
  C:9918H         LINE#         248
  C:991BH         LINE#         249
  C:991EH         LINE#         250
  C:9921H         LINE#         251
  C:9929H         LINE#         252
  C:9936H         LINE#         253
  C:9939H         LINE#         254
  C:9946H         LINE#         255
  C:9949H         LINE#         256
  C:9956H         LINE#         257
  C:9959H         LINE#         258
  C:995CH         LINE#         259
  C:995CH         LINE#         261
  C:9967H         LINE#         262
  C:9974H         LINE#         263
  C:9977H         LINE#         264
  -------         ENDPROC       _SEND_MODBUS08_10
  -------         ENDMOD        MYMODBUS

  -------         MODULE        RECEIVEDATA
  C:0000H         SYMBOL        _ICE_DUMMY_
  C:0103H         PUBLIC        Receive_Modbus
  C:344CH         PUBLIC        _ALm_Init
  -------         PROC          RECEIVE_MODBUS
  -------         DO            
  X:C10FH         SYMBOL        iRxReadPt
  D:0006H         SYMBOL        RxHead_PC
  X:C111H         SYMBOL        Check_Nodbus
  X:C113H         SYMBOL        CheckNumber
  X:C115H         SYMBOL        i
  X:C116H         SYMBOL        Length
  X:C117H         SYMBOL        buf
BL51 BANKED LINKER/LOCATER V6.22.2.0                                                  12/09/2022  13:52:00  PAGE 99


  X:C123H         SYMBOL        RxCommon
  X:C125H         SYMBOL        Dat1
  X:C127H         SYMBOL        Dat2
  X:C129H         SYMBOL        Dat3
  X:C12BH         SYMBOL        Dat4
  X:C12DH         SYMBOL        Dat5
  X:C12FH         SYMBOL        Dat6
  D:0004H         SYMBOL        Addr
  -------         ENDDO         
  C:0103H         LINE#         10
  C:0103H         LINE#         11
  C:0103H         LINE#         31
  C:0124H         LINE#         32
  C:0124H         LINE#         33
  C:0133H         LINE#         35
  C:014CH         LINE#         37
  C:0150H         LINE#         38
  C:0150H         LINE#         40
  C:018EH         LINE#         41
  C:018EH         LINE#         42
  C:01B0H         LINE#         43
  C:01B2H         LINE#         45
  C:01B2H         LINE#         47
  C:01C0H         LINE#         48
  C:01C3H         LINE#         49
  C:01C3H         LINE#         51
  C:01C3H         LINE#         53
  C:01C3H         LINE#         55
  C:01D1H         LINE#         56
  C:01D4H         LINE#         57
  C:01D4H         LINE#         60
  C:01E3H         LINE#         61
  C:01EAH         LINE#         63
  C:0207H         LINE#         64
  C:0207H         LINE#         65
  C:0207H         LINE#         66
  C:0207H         LINE#         67
  C:0224H         LINE#         68
  C:0229H         LINE#         69
  C:0229H         LINE#         70
  C:022FH         LINE#         71
  C:022FH         LINE#         72
  C:0248H         LINE#         73
  C:0248H         LINE#         74
  C:0248H         LINE#         75
  C:0248H         LINE#         76
  C:0266H         LINE#         77
  C:0266H         LINE#         78
  C:0268H         LINE#         79
  C:0268H         LINE#         80
  C:026BH         LINE#         81
  C:026BH         LINE#         82
  C:0271H         LINE#         83
  C:027AH         LINE#         84
  C:0282H         LINE#         85
  C:029FH         LINE#         86
  C:02BCH         LINE#         88
BL51 BANKED LINKER/LOCATER V6.22.2.0                                                  12/09/2022  13:52:00  PAGE 100


  C:02FDH         LINE#         89
  C:031EH         LINE#         91
  C:0335H         LINE#         92
  C:0335H         LINE#         95
  C:0341H         LINE#         96
  C:0341H         LINE#         98
  C:0346H         LINE#         99
  C:035EH         LINE#         101
  C:0366H         LINE#         102
  C:0377H         LINE#         104
  C:037AH         LINE#         105
  C:037AH         LINE#         106
  C:0386H         LINE#         107
  C:0386H         LINE#         108
  C:0391H         LINE#         109
  C:0391H         LINE#         110
  C:0396H         LINE#         112
  C:0398H         LINE#         114
  C:03A0H         LINE#         115
  C:03B4H         LINE#         116
  C:03C9H         LINE#         119
  C:03D0H         LINE#         121
  C:03D0H         LINE#         122
  C:03D3H         LINE#         123
  C:03D3H         LINE#         125
  C:03E4H         LINE#         126
  C:03E4H         LINE#         127
  C:03ECH         LINE#         135
  C:03EEH         LINE#         136
  C:03EEH         LINE#         137
  C:03EEH         LINE#         138
  C:03EEH         LINE#         140
  C:03EEH         LINE#         141
  C:03EEH         LINE#         143
  C:03EEH         LINE#         144
  C:03EEH         LINE#         146
  C:03F1H         LINE#         147
  C:03F9H         LINE#         148
  C:03F9H         LINE#         150
  C:0403H         LINE#         151
  C:040BH         LINE#         152
  C:0420H         LINE#         153
  C:0435H         LINE#         154
  C:043DH         LINE#         155
  C:0446H         LINE#         157
  C:0449H         LINE#         158
  C:0451H         LINE#         159
  C:0451H         LINE#         161
  C:045BH         LINE#         162
  C:0463H         LINE#         163
  C:046AH         LINE#         164
  C:047EH         LINE#         165
  C:0493H         LINE#         166
  C:04A8H         LINE#         167
  C:04AFH         LINE#         168
  C:04B8H         LINE#         169
  C:04BAH         LINE#         170
BL51 BANKED LINKER/LOCATER V6.22.2.0                                                  12/09/2022  13:52:00  PAGE 101


  C:04C2H         LINE#         171
  C:04C2H         LINE#         172
  C:04CCH         LINE#         173
  C:04D4H         LINE#         174
  C:04E9H         LINE#         175
  C:04FEH         LINE#         178
  C:0505H         LINE#         179
  C:0519H         LINE#         180
  C:0519H         LINE#         183
  C:0520H         LINE#         184
  C:0527H         LINE#         185
  C:0528H         LINE#         186
  C:052BH         LINE#         187
  C:052BH         LINE#         190
  C:053AH         LINE#         191
  C:053AH         LINE#         192
  C:054FH         LINE#         193
  C:055FH         LINE#         195
  C:0565H         LINE#         196
  C:0565H         LINE#         197
  C:056BH         LINE#         198
  C:056FH         LINE#         199
  C:0573H         LINE#         200
  C:0577H         LINE#         201
  C:057BH         LINE#         202
  C:057FH         LINE#         203
  C:0583H         LINE#         205
  C:0597H         LINE#         206
  C:05ACH         LINE#         207
  C:05C1H         LINE#         208
  C:05D6H         LINE#         209
  C:05EBH         LINE#         210
  C:0600H         LINE#         211
  C:0615H         LINE#         213
  C:0617H         LINE#         215
  C:0617H         LINE#         216
  C:0622H         LINE#         217
  C:0622H         LINE#         220
  C:0629H         LINE#         221
  C:0631H         LINE#         222
  C:0633H         LINE#         223
  C:0636H         LINE#         225
  C:0636H         LINE#         228
  C:0647H         LINE#         229
  C:0647H         LINE#         230
  C:065CH         LINE#         232
  C:0669H         LINE#         233
  C:0669H         LINE#         234
  C:0669H         LINE#         235
  C:066FH         LINE#         236
  C:066FH         LINE#         238
  C:0675H         LINE#         239
  C:067CH         LINE#         240
  C:067CH         LINE#         241
  C:067FH         LINE#         242
  C:0682H         LINE#         243
  C:0682H         LINE#         245
BL51 BANKED LINKER/LOCATER V6.22.2.0                                                  12/09/2022  13:52:00  PAGE 102


  C:068CH         LINE#         246
  C:068CH         LINE#         247
  C:06A1H         LINE#         248
  C:06B0H         LINE#         249
  C:06C5H         LINE#         251
  C:06CCH         LINE#         252
  C:06CFH         LINE#         253
  C:06D2H         LINE#         254
  C:06D2H         LINE#         257
  C:06E0H         LINE#         258
  C:06E0H         LINE#         259
  C:06F5H         LINE#         260
  C:0704H         LINE#         261
  C:0719H         LINE#         263
  C:0720H         LINE#         264
  C:0723H         LINE#         265
  C:0726H         LINE#         266
  C:0726H         LINE#         269
  C:0734H         LINE#         270
  C:0734H         LINE#         271
  C:0749H         LINE#         272
  C:0758H         LINE#         273
  C:076DH         LINE#         275
  C:0774H         LINE#         276
  C:0777H         LINE#         277
  C:077AH         LINE#         279
  C:077AH         LINE#         282
  C:078BH         LINE#         283
  C:078BH         LINE#         284
  C:07A0H         LINE#         286
  C:07ABH         LINE#         287
  C:07ABH         LINE#         288
  C:07BBH         LINE#         289
  C:07BBH         LINE#         290
  C:07C2H         LINE#         291
  C:07C5H         LINE#         292
  C:07D6H         LINE#         293
  C:07D6H         LINE#         294
  C:07DEH         LINE#         295
  C:07E1H         LINE#         296
  C:07F2H         LINE#         297
  C:07F2H         LINE#         298
  C:07FBH         LINE#         299
  C:07FEH         LINE#         300
  C:080FH         LINE#         301
  C:080FH         LINE#         302
  C:0818H         LINE#         303
  C:081BH         LINE#         304
  C:082CH         LINE#         305
  C:082CH         LINE#         306
  C:0835H         LINE#         307
  C:0838H         LINE#         308
  C:0849H         LINE#         309
  C:0849H         LINE#         310
  C:0852H         LINE#         311
  C:0855H         LINE#         312
  C:0866H         LINE#         313
BL51 BANKED LINKER/LOCATER V6.22.2.0                                                  12/09/2022  13:52:00  PAGE 103


  C:0866H         LINE#         314
  C:086FH         LINE#         315
  C:0872H         LINE#         316
  C:0883H         LINE#         317
  C:0883H         LINE#         318
  C:088CH         LINE#         319
  C:088EH         LINE#         320
  C:089FH         LINE#         321
  C:089FH         LINE#         322
  C:08A8H         LINE#         323
  C:08AAH         LINE#         324
  C:08BBH         LINE#         325
  C:08BBH         LINE#         326
  C:08C4H         LINE#         327
  C:08C6H         LINE#         328
  C:08CFH         LINE#         329
  C:08CFH         LINE#         330
  C:08D8H         LINE#         331
  C:08D8H         LINE#         333
  C:08D8H         LINE#         334
  C:08DAH         LINE#         335
  C:08E0H         LINE#         336
  C:08E0H         LINE#         337
  C:08E6H         LINE#         338
  C:08EFH         LINE#         339
  C:08F1H         LINE#         340
  C:08F9H         LINE#         341
  C:08F9H         LINE#         342
  C:0901H         LINE#         343
  C:0916H         LINE#         344
  C:0916H         LINE#         345
  C:091DH         LINE#         346
  C:0925H         LINE#         347
  C:0928H         LINE#         348
  C:0928H         LINE#         351
  C:0936H         LINE#         352
  C:0936H         LINE#         353
  C:094BH         LINE#         354
  C:095BH         LINE#         356
  C:0968H         LINE#         357
  C:097FH         LINE#         359
  C:0994H         LINE#         360
  C:099CH         LINE#         363
  C:09A3H         LINE#         365
  C:09A6H         LINE#         366
  C:09A6H         LINE#         368
  C:09B2H         LINE#         369
  C:09B2H         LINE#         370
  C:09C7H         LINE#         372
  C:09DCH         LINE#         374
  C:09E4H         LINE#         375
  C:09E4H         LINE#         376
  C:09F0H         LINE#         377
  C:09F0H         LINE#         378
  C:0A05H         LINE#         380
  C:0A1AH         LINE#         382
  C:0A23H         LINE#         383
BL51 BANKED LINKER/LOCATER V6.22.2.0                                                  12/09/2022  13:52:00  PAGE 104


  C:0A23H         LINE#         384
  C:0A2FH         LINE#         385
  C:0A2FH         LINE#         386
  C:0A44H         LINE#         388
  C:0A59H         LINE#         390
  C:0A62H         LINE#         391
  C:0A62H         LINE#         392
  C:0A6EH         LINE#         393
  C:0A6EH         LINE#         394
  C:0A83H         LINE#         396
  C:0A98H         LINE#         398
  C:0AA1H         LINE#         399
  C:0AA1H         LINE#         400
  C:0AADH         LINE#         401
  C:0AADH         LINE#         402
  C:0AC2H         LINE#         404
  C:0AD7H         LINE#         406
  C:0AE0H         LINE#         407
  C:0AE0H         LINE#         408
  C:0AECH         LINE#         409
  C:0AECH         LINE#         410
  C:0B01H         LINE#         412
  C:0B16H         LINE#         414
  C:0B1FH         LINE#         415
  C:0B1FH         LINE#         417
  C:0B1FH         LINE#         418
  C:0B35H         LINE#         419
  C:0B35H         LINE#         420
  C:0B41H         LINE#         421
  C:0B49H         LINE#         423
  C:0B49H         LINE#         425
  C:0B49H         LINE#         426
  C:0B49H         LINE#         427
  C:0B67H         LINE#         428
  C:0B67H         LINE#         429
  C:0B69H         LINE#         430
  C:0B69H         LINE#         431
  C:0B6CH         LINE#         432
  C:0B6CH         LINE#         433
  C:0B72H         LINE#         434
  C:0B7BH         LINE#         435
  C:0B83H         LINE#         436
  C:0BA0H         LINE#         437
  C:0BBDH         LINE#         438
  C:0BDAH         LINE#         439
  C:0BF7H         LINE#         441
  C:0C38H         LINE#         442
  C:0C59H         LINE#         445
  C:0C70H         LINE#         446
  C:0C70H         LINE#         449
  C:0C7EH         LINE#         450
  C:0C7EH         LINE#         451
  C:0C93H         LINE#         452
  C:0CA6H         LINE#         454
  C:0CBBH         LINE#         455
  C:0CD0H         LINE#         457
  C:0CD7H         LINE#         458
BL51 BANKED LINKER/LOCATER V6.22.2.0                                                  12/09/2022  13:52:00  PAGE 105


  C:0CDFH         LINE#         459
  C:0CE0H         LINE#         460
  C:0CE3H         LINE#         461
  C:0CE3H         LINE#         464
  C:0CF1H         LINE#         465
  C:0CF1H         LINE#         466
  C:0D06H         LINE#         467
  C:0D19H         LINE#         469
  C:0D2EH         LINE#         470
  C:0D43H         LINE#         472
  C:0D4AH         LINE#         473
  C:0D52H         LINE#         474
  C:0D53H         LINE#         475
  C:0D56H         LINE#         476
  C:0D56H         LINE#         479
  C:0D64H         LINE#         480
  C:0D64H         LINE#         481
  C:0D79H         LINE#         482
  C:0D8CH         LINE#         484
  C:0DA1H         LINE#         485
  C:0DB6H         LINE#         487
  C:0DBDH         LINE#         488
  C:0DC5H         LINE#         489
  C:0DC6H         LINE#         490
  C:0DC9H         LINE#         492
  C:0DC9H         LINE#         495
  C:0DD7H         LINE#         496
  C:0DD7H         LINE#         497
  C:0DECH         LINE#         498
  C:0DFFH         LINE#         500
  C:0E14H         LINE#         501
  C:0E29H         LINE#         503
  C:0E30H         LINE#         504
  C:0E38H         LINE#         505
  C:0E3FH         LINE#         507
  C:0E3FH         LINE#         510
  C:0E4BH         LINE#         511
  C:0E4BH         LINE#         512
  C:0E60H         LINE#         513
  C:0E73H         LINE#         515
  C:0E88H         LINE#         516
  C:0E9DH         LINE#         518
  C:0EA5H         LINE#         519
  C:0EA8H         LINE#         520
  C:0EA8H         LINE#         523
  C:0EB9H         LINE#         524
  C:0EB9H         LINE#         525
  C:0ECEH         LINE#         526
  C:0EE3H         LINE#         528
  C:0F03H         LINE#         530
  C:0F1EH         LINE#         531
  C:0F3DH         LINE#         532
  C:0F5CH         LINE#         533
  C:0F72H         LINE#         537
  C:0F87H         LINE#         538
  C:0F9CH         LINE#         539
  C:0FB1H         LINE#         540
BL51 BANKED LINKER/LOCATER V6.22.2.0                                                  12/09/2022  13:52:00  PAGE 106


  C:0FC6H         LINE#         542
  C:0FCFH         LINE#         544
  C:0FD2H         LINE#         545
  C:0FD2H         LINE#         548
  C:0FE3H         LINE#         549
  C:0FE3H         LINE#         550
  C:0FF8H         LINE#         551
  C:100DH         LINE#         553
  C:102DH         LINE#         555
  C:1048H         LINE#         556
  C:1067H         LINE#         557
  C:1086H         LINE#         558
  C:109CH         LINE#         560
  C:10B1H         LINE#         561
  C:10C6H         LINE#         562
  C:10DBH         LINE#         563
  C:10F0H         LINE#         565
  C:10F9H         LINE#         567
  C:10FCH         LINE#         568
  C:10FCH         LINE#         571
  C:110DH         LINE#         572
  C:110DH         LINE#         573
  C:1122H         LINE#         574
  C:1137H         LINE#         576
  C:1157H         LINE#         578
  C:1172H         LINE#         579
  C:1191H         LINE#         580
  C:11B0H         LINE#         581
  C:11C6H         LINE#         584
  C:11DBH         LINE#         585
  C:11F0H         LINE#         586
  C:1205H         LINE#         587
  C:121AH         LINE#         589
  C:1223H         LINE#         591
  C:1226H         LINE#         592
  C:1226H         LINE#         595
  C:1237H         LINE#         596
  C:1237H         LINE#         597
  C:124CH         LINE#         598
  C:1261H         LINE#         600
  C:1281H         LINE#         602
  C:129CH         LINE#         603
  C:12BBH         LINE#         604
  C:12DAH         LINE#         605
  C:12F0H         LINE#         607
  C:1305H         LINE#         608
  C:131AH         LINE#         609
  C:132FH         LINE#         610
  C:1344H         LINE#         612
  C:134DH         LINE#         614
  C:1350H         LINE#         615
  C:1350H         LINE#         618
  C:135EH         LINE#         619
  C:135EH         LINE#         620
  C:1373H         LINE#         621
  C:1386H         LINE#         623
  C:139BH         LINE#         624
BL51 BANKED LINKER/LOCATER V6.22.2.0                                                  12/09/2022  13:52:00  PAGE 107


  C:13B0H         LINE#         626
  C:13B4H         LINE#         628
  C:13B7H         LINE#         629
  C:13B7H         LINE#         632
  C:13C5H         LINE#         633
  C:13C5H         LINE#         634
  C:13DAH         LINE#         635
  C:13EDH         LINE#         637
  C:1402H         LINE#         638
  C:1417H         LINE#         640
  C:1420H         LINE#         642
  C:1423H         LINE#         643
  C:1423H         LINE#         646
  C:1431H         LINE#         647
  C:1431H         LINE#         648
  C:1446H         LINE#         649
  C:1459H         LINE#         651
  C:146EH         LINE#         652
  C:1483H         LINE#         654
  C:148CH         LINE#         656
  C:148FH         LINE#         657
  C:148FH         LINE#         658
  C:148FH         LINE#         659
  C:14A5H         LINE#         660
  C:14A5H         LINE#         661
  C:14B1H         LINE#         662
  C:14B9H         LINE#         664
  C:14B9H         LINE#         666
  C:14B9H         LINE#         667
  C:14B9H         LINE#         668
  C:14D7H         LINE#         669
  C:14D7H         LINE#         670
  C:14DEH         LINE#         671
  C:14DEH         LINE#         672
  C:14E1H         LINE#         673
  C:14E1H         LINE#         674
  C:14E7H         LINE#         675
  C:14F0H         LINE#         676
  C:14F8H         LINE#         677
  C:1515H         LINE#         678
  C:1532H         LINE#         679
  C:154FH         LINE#         680
  C:156CH         LINE#         681
  C:1589H         LINE#         682
  C:15A6H         LINE#         683
  C:15C3H         LINE#         684
  C:15E0H         LINE#         686
  C:1621H         LINE#         687
  C:1642H         LINE#         689
  C:1659H         LINE#         690
  C:1659H         LINE#         693
  C:166AH         LINE#         694
  C:166AH         LINE#         695
  C:167FH         LINE#         696
  C:1692H         LINE#         697
  C:16A5H         LINE#         698
  C:16B8H         LINE#         700
BL51 BANKED LINKER/LOCATER V6.22.2.0                                                  12/09/2022  13:52:00  PAGE 108


  C:16CDH         LINE#         701
  C:16E2H         LINE#         702
  C:16F7H         LINE#         703
  C:170CH         LINE#         705
  C:1713H         LINE#         706
  C:171BH         LINE#         708
  C:171EH         LINE#         709
  C:171EH         LINE#         713
  C:172FH         LINE#         714
  C:172FH         LINE#         715
  C:1744H         LINE#         716
  C:1757H         LINE#         717
  C:176AH         LINE#         718
  C:177DH         LINE#         720
  C:1792H         LINE#         721
  C:17A7H         LINE#         722
  C:17BCH         LINE#         723
  C:17D1H         LINE#         725
  C:17D4H         LINE#         726
  C:17D4H         LINE#         729
  C:17E5H         LINE#         730
  C:17E5H         LINE#         731
  C:17FAH         LINE#         732
  C:180DH         LINE#         733
  C:1820H         LINE#         734
  C:1833H         LINE#         736
  C:1848H         LINE#         737
  C:185DH         LINE#         738
  C:1872H         LINE#         739
  C:1887H         LINE#         741
  C:188FH         LINE#         742
  C:188FH         LINE#         744
  C:1892H         LINE#         745
  C:1892H         LINE#         748
  C:18A3H         LINE#         749
  C:18A3H         LINE#         750
  C:18B8H         LINE#         751
  C:18CBH         LINE#         752
  C:18DEH         LINE#         753
  C:18F1H         LINE#         755
  C:1906H         LINE#         756
  C:191BH         LINE#         757
  C:1930H         LINE#         758
  C:1945H         LINE#         760
  C:194DH         LINE#         761
  C:194DH         LINE#         763
  C:1950H         LINE#         764
  C:1950H         LINE#         767
  C:1961H         LINE#         768
  C:1961H         LINE#         769
  C:1976H         LINE#         770
  C:1989H         LINE#         771
  C:199CH         LINE#         772
  C:19AFH         LINE#         774
  C:19C4H         LINE#         775
  C:19D9H         LINE#         776
  C:19EEH         LINE#         777
BL51 BANKED LINKER/LOCATER V6.22.2.0                                                  12/09/2022  13:52:00  PAGE 109


  C:1A03H         LINE#         779
  C:1A0BH         LINE#         780
  C:1A0BH         LINE#         782
  C:1A0EH         LINE#         783
  C:1A0EH         LINE#         786
  C:1A1FH         LINE#         787
  C:1A1FH         LINE#         788
  C:1A34H         LINE#         789
  C:1A47H         LINE#         790
  C:1A5AH         LINE#         791
  C:1A6DH         LINE#         793
  C:1A82H         LINE#         794
  C:1A97H         LINE#         795
  C:1AACH         LINE#         796
  C:1AC1H         LINE#         798
  C:1AC9H         LINE#         799
  C:1AC9H         LINE#         801
  C:1ACCH         LINE#         802
  C:1ACCH         LINE#         805
  C:1ADDH         LINE#         806
  C:1ADDH         LINE#         807
  C:1AF2H         LINE#         808
  C:1B05H         LINE#         809
  C:1B18H         LINE#         810
  C:1B2BH         LINE#         812
  C:1B40H         LINE#         813
  C:1B55H         LINE#         814
  C:1B6AH         LINE#         815
  C:1B7FH         LINE#         817
  C:1B87H         LINE#         818
  C:1B87H         LINE#         820
  C:1B8AH         LINE#         821
  C:1B8AH         LINE#         824
  C:1B9BH         LINE#         825
  C:1B9BH         LINE#         826
  C:1BB0H         LINE#         827
  C:1BC3H         LINE#         828
  C:1BD6H         LINE#         829
  C:1BE9H         LINE#         831
  C:1BFEH         LINE#         832
  C:1C13H         LINE#         833
  C:1C28H         LINE#         834
  C:1C3DH         LINE#         836
  C:1C45H         LINE#         837
  C:1C45H         LINE#         839
  C:1C48H         LINE#         840
  C:1C48H         LINE#         843
  C:1C59H         LINE#         844
  C:1C59H         LINE#         845
  C:1C6EH         LINE#         846
  C:1C81H         LINE#         847
  C:1C94H         LINE#         848
  C:1CA7H         LINE#         850
  C:1CBCH         LINE#         851
  C:1CD1H         LINE#         852
  C:1CE6H         LINE#         853
  C:1CFBH         LINE#         855
BL51 BANKED LINKER/LOCATER V6.22.2.0                                                  12/09/2022  13:52:00  PAGE 110


  C:1D03H         LINE#         856
  C:1D03H         LINE#         858
  C:1D06H         LINE#         859
  C:1D06H         LINE#         862
  C:1D17H         LINE#         863
  C:1D17H         LINE#         864
  C:1D2CH         LINE#         865
  C:1D3FH         LINE#         866
  C:1D52H         LINE#         867
  C:1D65H         LINE#         869
  C:1D7AH         LINE#         870
  C:1D8FH         LINE#         871
  C:1DA4H         LINE#         872
  C:1DB9H         LINE#         874
  C:1DC1H         LINE#         875
  C:1DC1H         LINE#         877
  C:1DC4H         LINE#         878
  C:1DC4H         LINE#         881
  C:1DD5H         LINE#         882
  C:1DD5H         LINE#         883
  C:1DEAH         LINE#         884
  C:1DFDH         LINE#         885
  C:1E10H         LINE#         886
  C:1E23H         LINE#         888
  C:1E38H         LINE#         889
  C:1E4DH         LINE#         890
  C:1E62H         LINE#         891
  C:1E77H         LINE#         893
  C:1E80H         LINE#         894
  C:1E87H         LINE#         896
  C:1E8AH         LINE#         897
  C:1E8AH         LINE#         898
  C:1E8AH         LINE#         899
  C:1EA0H         LINE#         900
  C:1EA0H         LINE#         901
  C:1EACH         LINE#         902
  C:1EB4H         LINE#         904
  C:1EB4H         LINE#         906
  C:1EB4H         LINE#         907
  C:1EB4H         LINE#         909
  C:1EB4H         LINE#         910
  C:1EB4H         LINE#         912
  C:1EF1H         LINE#         913
  C:1EFEH         LINE#         914
  C:1EFEH         LINE#         916
  C:1EFEH         LINE#         917
  C:1EFEH         LINE#         918
  C:1F1CH         LINE#         919
  C:1F1CH         LINE#         920
  C:1F2AH         LINE#         921
  C:1F2DH         LINE#         922
  C:1F2DH         LINE#         923
  C:1F33H         LINE#         924
  C:1F3CH         LINE#         925
  C:1F4AH         LINE#         926
  C:1F5DH         LINE#         927
  C:1F7AH         LINE#         928
BL51 BANKED LINKER/LOCATER V6.22.2.0                                                  12/09/2022  13:52:00  PAGE 111


  C:1F97H         LINE#         930
  C:1FD8H         LINE#         931
  C:1FF9H         LINE#         935
  C:1FF9H         LINE#         936
  C:1FF9H         LINE#         939
  C:1FF9H         LINE#         941
  C:200AH         LINE#         942
  C:200AH         LINE#         943
  C:2016H         LINE#         944
  C:201EH         LINE#         946
  C:201EH         LINE#         947
  C:201EH         LINE#         950
  C:201EH         LINE#         952
  C:201EH         LINE#         955
  C:202DH         LINE#         956
  C:2030H         LINE#         957
  -------         ENDPROC       RECEIVE_MODBUS
  -------         PROC          _ALM_INIT
  D:0006H         SYMBOL        Dat1
  C:344CH         LINE#         960
  C:344CH         LINE#         961
  C:344CH         LINE#         962
  C:3450H         LINE#         963
  C:3450H         LINE#         964
  C:345DH         LINE#         965
  C:345DH         LINE#         966
  C:3464H         LINE#         967
  C:346CH         LINE#         968
  C:3474H         LINE#         969
  C:347CH         LINE#         970
  C:3484H         LINE#         971
  C:3489H         LINE#         972
  C:3489H         LINE#         973
  C:348CH         LINE#         975
  C:348CH         LINE#         976
  C:3493H         LINE#         977
  C:349BH         LINE#         978
  C:34A3H         LINE#         979
  C:34ABH         LINE#         980
  C:34B3H         LINE#         981
  C:34BBH         LINE#         982
  C:34BCH         LINE#         983
  C:34BCH         LINE#         985
  C:34BFH         LINE#         986
  C:34C3H         LINE#         987
  C:34C3H         LINE#         988
  C:34D0H         LINE#         989
  C:34D0H         LINE#         990
  C:34D7H         LINE#         991
  C:34DFH         LINE#         992
  C:34E7H         LINE#         993
  C:34EFH         LINE#         994
  C:34F7H         LINE#         995
  C:34FCH         LINE#         996
  C:34FCH         LINE#         997
  C:34FEH         LINE#         999
  C:34FEH         LINE#         1001
BL51 BANKED LINKER/LOCATER V6.22.2.0                                                  12/09/2022  13:52:00  PAGE 112


  C:3505H         LINE#         1002
  C:350DH         LINE#         1003
  C:3515H         LINE#         1004
  C:351DH         LINE#         1005
  C:3525H         LINE#         1006
  C:352DH         LINE#         1007
  C:352EH         LINE#         1008
  C:352EH         LINE#         1010
  C:3531H         LINE#         1011
  C:3535H         LINE#         1012
  C:3535H         LINE#         1013
  C:3542H         LINE#         1014
  C:3542H         LINE#         1015
  C:3549H         LINE#         1016
  C:3551H         LINE#         1017
  C:3559H         LINE#         1018
  C:3561H         LINE#         1019
  C:3569H         LINE#         1020
  C:356EH         LINE#         1021
  C:356EH         LINE#         1022
  C:3570H         LINE#         1024
  C:3570H         LINE#         1025
  C:3577H         LINE#         1026
  C:357FH         LINE#         1027
  C:3587H         LINE#         1028
  C:358FH         LINE#         1029
  C:3597H         LINE#         1030
  C:359FH         LINE#         1031
  C:35A0H         LINE#         1032
  C:35A0H         LINE#         1034
  C:35A3H         LINE#         1035
  C:35A7H         LINE#         1036
  C:35A7H         LINE#         1037
  C:35B4H         LINE#         1038
  C:35B4H         LINE#         1039
  C:35BBH         LINE#         1040
  C:35C3H         LINE#         1041
  C:35CBH         LINE#         1042
  C:35D3H         LINE#         1043
  C:35DBH         LINE#         1044
  C:35E0H         LINE#         1045
  C:35E0H         LINE#         1046
  C:35E2H         LINE#         1048
  C:35E2H         LINE#         1049
  C:35E9H         LINE#         1050
  C:35F1H         LINE#         1051
  C:35F9H         LINE#         1052
  C:3601H         LINE#         1053
  C:3609H         LINE#         1054
  C:3611H         LINE#         1055
  C:3612H         LINE#         1056
  C:3612H         LINE#         1058
  C:3615H         LINE#         1059
  C:3619H         LINE#         1060
  C:3619H         LINE#         1061
  C:3626H         LINE#         1062
  C:3626H         LINE#         1063
BL51 BANKED LINKER/LOCATER V6.22.2.0                                                  12/09/2022  13:52:00  PAGE 113


  C:362DH         LINE#         1064
  C:3635H         LINE#         1065
  C:363DH         LINE#         1066
  C:3645H         LINE#         1067
  C:364BH         LINE#         1068
  C:364FH         LINE#         1069
  C:364FH         LINE#         1070
  C:3651H         LINE#         1072
  C:3651H         LINE#         1073
  C:3658H         LINE#         1074
  C:3660H         LINE#         1075
  C:3668H         LINE#         1076
  C:366FH         LINE#         1077
  C:3677H         LINE#         1078
  C:367EH         LINE#         1079
  C:367EH         LINE#         1080
  C:367EH         LINE#         1094
  C:3681H         LINE#         1095
  C:3685H         LINE#         1096
  C:3685H         LINE#         1097
  C:3692H         LINE#         1098
  C:3692H         LINE#         1099
  C:3699H         LINE#         1100
  C:36A1H         LINE#         1101
  C:36A9H         LINE#         1102
  C:36B1H         LINE#         1103
  C:36B7H         LINE#         1104
  C:36BBH         LINE#         1105
  C:36BBH         LINE#         1106
  C:36BDH         LINE#         1108
  C:36BDH         LINE#         1109
  C:36C4H         LINE#         1110
  C:36CCH         LINE#         1111
  C:36D4H         LINE#         1112
  C:36DBH         LINE#         1113
  C:36E3H         LINE#         1114
  C:36EAH         LINE#         1115
  C:36EAH         LINE#         1116
  C:36EAH         LINE#         1128
  C:36EDH         LINE#         1129
  C:36F1H         LINE#         1130
  C:36F1H         LINE#         1131
  C:36FEH         LINE#         1132
  C:36FEH         LINE#         1133
  C:3705H         LINE#         1134
  C:370DH         LINE#         1135
  C:3715H         LINE#         1136
  C:371DH         LINE#         1137
  C:3725H         LINE#         1138
  C:3729H         LINE#         1139
  C:3729H         LINE#         1140
  C:372BH         LINE#         1142
  C:372BH         LINE#         1143
  C:3732H         LINE#         1144
  C:373AH         LINE#         1145
  C:3742H         LINE#         1146
  C:374AH         LINE#         1147
BL51 BANKED LINKER/LOCATER V6.22.2.0                                                  12/09/2022  13:52:00  PAGE 114


  C:3751H         LINE#         1148
  C:3758H         LINE#         1149
  C:3758H         LINE#         1150
  C:3758H         LINE#         1164
  C:375BH         LINE#         1165
  C:375FH         LINE#         1166
  C:375FH         LINE#         1167
  C:376CH         LINE#         1168
  C:376CH         LINE#         1169
  C:3773H         LINE#         1170
  C:377BH         LINE#         1171
  C:3783H         LINE#         1172
  C:378BH         LINE#         1173
  C:3793H         LINE#         1174
  C:3797H         LINE#         1175
  C:3797H         LINE#         1176
  C:3799H         LINE#         1178
  C:3799H         LINE#         1179
  C:37A0H         LINE#         1180
  C:37A8H         LINE#         1181
  C:37B0H         LINE#         1182
  C:37B8H         LINE#         1183
  C:37C0H         LINE#         1184
  C:37C7H         LINE#         1185
  C:37C7H         LINE#         1186
  C:37C7H         LINE#         1188
  C:37CAH         LINE#         1189
  C:37CEH         LINE#         1190
  C:37CEH         LINE#         1191
  C:37DBH         LINE#         1192
  C:37DBH         LINE#         1193
  C:37E2H         LINE#         1194
  C:37EAH         LINE#         1195
  C:37F2H         LINE#         1196
  C:37FAH         LINE#         1197
  C:3801H         LINE#         1198
  C:3801H         LINE#         1199
  C:3801H         LINE#         1200
  C:3803H         LINE#         1202
  C:3803H         LINE#         1203
  C:380AH         LINE#         1204
  C:3812H         LINE#         1205
  C:381AH         LINE#         1206
  C:3822H         LINE#         1207
  C:382AH         LINE#         1208
  C:382FH         LINE#         1209
  C:382FH         LINE#         1210
  C:382FH         LINE#         1212
  C:3832H         LINE#         1213
  C:3836H         LINE#         1214
  C:3836H         LINE#         1215
  C:3843H         LINE#         1216
  C:3843H         LINE#         1217
  C:384AH         LINE#         1218
  C:3852H         LINE#         1219
  C:385AH         LINE#         1220
  C:3862H         LINE#         1221
BL51 BANKED LINKER/LOCATER V6.22.2.0                                                  12/09/2022  13:52:00  PAGE 115


  C:3867H         LINE#         1222
  C:3867H         LINE#         1223
  C:3867H         LINE#         1224
  C:3869H         LINE#         1226
  C:3869H         LINE#         1227
  C:3870H         LINE#         1228
  C:3877H         LINE#         1229
  C:387FH         LINE#         1230
  C:3887H         LINE#         1231
  C:388FH         LINE#         1232
  C:3894H         LINE#         1233
  C:3894H         LINE#         1234
  C:3894H         LINE#         1236
  C:3897H         LINE#         1237
  C:389BH         LINE#         1238
  C:389BH         LINE#         1239
  C:38A8H         LINE#         1240
  C:38A8H         LINE#         1241
  C:38AFH         LINE#         1242
  C:38B7H         LINE#         1243
  C:38BFH         LINE#         1244
  C:38C7H         LINE#         1245
  C:38CCH         LINE#         1246
  C:38CFH         LINE#         1247
  C:38CFH         LINE#         1248
  C:38D1H         LINE#         1250
  C:38D1H         LINE#         1251
  C:38D8H         LINE#         1252
  C:38E0H         LINE#         1253
  C:38E8H         LINE#         1254
  C:38F0H         LINE#         1255
  C:38F8H         LINE#         1256
  C:38FFH         LINE#         1257
  C:38FFH         LINE#         1258
  C:38FFH         LINE#         1260
  C:3902H         LINE#         1261
  C:3906H         LINE#         1262
  C:3906H         LINE#         1263
  C:3913H         LINE#         1264
  C:3913H         LINE#         1265
  C:391AH         LINE#         1266
  C:3922H         LINE#         1267
  C:392AH         LINE#         1268
  C:3932H         LINE#         1269
  C:3937H         LINE#         1270
  C:3937H         LINE#         1271
  C:3937H         LINE#         1272
  C:3939H         LINE#         1274
  C:3939H         LINE#         1275
  C:3940H         LINE#         1276
  C:3948H         LINE#         1277
  C:394FH         LINE#         1278
  C:3957H         LINE#         1279
  C:395FH         LINE#         1280
  C:3964H         LINE#         1281
  C:3964H         LINE#         1282
  C:3964H         LINE#         1284
BL51 BANKED LINKER/LOCATER V6.22.2.0                                                  12/09/2022  13:52:00  PAGE 116


  C:3967H         LINE#         1285
  C:396BH         LINE#         1286
  C:396BH         LINE#         1287
  C:3978H         LINE#         1288
  C:3978H         LINE#         1289
  C:397EH         LINE#         1290
  C:3986H         LINE#         1291
  C:398EH         LINE#         1292
  C:3996H         LINE#         1293
  C:399CH         LINE#         1294
  C:39A0H         LINE#         1295
  C:39A0H         LINE#         1296
  C:39A2H         LINE#         1298
  C:39A2H         LINE#         1299
  C:39A8H         LINE#         1300
  C:39B0H         LINE#         1301
  C:39B8H         LINE#         1302
  C:39BFH         LINE#         1303
  C:39C7H         LINE#         1304
  C:39CEH         LINE#         1305
  C:39CEH         LINE#         1306
  C:39CEH         LINE#         1308
  C:39D1H         LINE#         1309
  C:39D5H         LINE#         1310
  C:39D5H         LINE#         1311
  C:39E2H         LINE#         1312
  C:39E2H         LINE#         1313
  C:39E4H         LINE#         1314
  C:39E4H         LINE#         1315
  C:39E4H         LINE#         1316
  C:39E4H         LINE#         1317
  C:39E4H         LINE#         1318
  C:39E4H         LINE#         1319
  C:39E4H         LINE#         1320
  C:39E6H         LINE#         1322
  C:39E6H         LINE#         1323
  C:39EDH         LINE#         1324
  C:39F4H         LINE#         1325
  C:39FCH         LINE#         1326
  C:3A04H         LINE#         1327
  C:3A0AH         LINE#         1328
  C:3A11H         LINE#         1329
  C:3A12H         LINE#         1330
  C:3A12H         LINE#         1332
  C:3A14H         LINE#         1333
  C:3A18H         LINE#         1334
  C:3A18H         LINE#         1335
  C:3A25H         LINE#         1336
  C:3A25H         LINE#         1337
  C:3A2BH         LINE#         1338
  C:3A2BH         LINE#         1339
  C:3A2BH         LINE#         1340
  C:3A2BH         LINE#         1341
  C:3A2BH         LINE#         1342
  C:3A2BH         LINE#         1343
  C:3A2BH         LINE#         1344
  C:3A2DH         LINE#         1346
BL51 BANKED LINKER/LOCATER V6.22.2.0                                                  12/09/2022  13:52:00  PAGE 117


  C:3A2DH         LINE#         1347
  C:3A34H         LINE#         1348
  C:3A3BH         LINE#         1349
  C:3A43H         LINE#         1350
  C:3A4BH         LINE#         1351
  C:3A51H         LINE#         1352
  C:3A58H         LINE#         1353
  C:3A5DH         LINE#         1354
  C:3A5DH         LINE#         1356
  C:3A5FH         LINE#         1357
  C:3A63H         LINE#         1358
  C:3A63H         LINE#         1359
  C:3A70H         LINE#         1360
  C:3A70H         LINE#         1361
  C:3A76H         LINE#         1362
  C:3A7DH         LINE#         1363
  C:3A85H         LINE#         1364
  C:3A8DH         LINE#         1365
  C:3A95H         LINE#         1366
  C:3A9DH         LINE#         1367
  C:3AA5H         LINE#         1368
  C:3AA7H         LINE#         1370
  C:3AA7H         LINE#         1371
  C:3AADH         LINE#         1372
  C:3AB5H         LINE#         1373
  C:3ABCH         LINE#         1374
  C:3AC4H         LINE#         1375
  C:3ACCH         LINE#         1376
  C:3AD1H         LINE#         1377
  C:3AD8H         LINE#         1378
  C:3AD8H         LINE#         1380
  C:3AD8H         LINE#         1382
  C:3AEDH         LINE#         1383
  C:3B02H         LINE#         1384
  C:3B17H         LINE#         1385
  C:3B2CH         LINE#         1386
  C:3B41H         LINE#         1387
  C:3B56H         LINE#         1388
  C:3B6BH         LINE#         1390
  C:3B72H         LINE#         1391
  -------         ENDPROC       _ALM_INIT
  -------         ENDMOD        RECEIVEDATA

  -------         MODULE        VARS
  C:0000H         SYMBOL        _ICE_DUMMY_
  X:BF47H         PUBLIC        gCtrlPara
  X:C043H         PUBLIC        TP_Status_Old
  X:C04BH         PUBLIC        Contorlcount
  C:667BH         PUBLIC        Vars_Initialize
  X:C04DH         PUBLIC        TP_Status_New
  X:C055H         PUBLIC        HOST_Addr
  X:C057H         PUBLIC        gTime1
  X:C059H         PUBLIC        gTime2
  X:C05BH         PUBLIC        gTime3
  X:C05DH         PUBLIC        gTime4
  X:C05FH         PUBLIC        gTime5
  X:C061H         PUBLIC        gTime6
BL51 BANKED LINKER/LOCATER V6.22.2.0                                                  12/09/2022  13:52:00  PAGE 118


  X:C063H         PUBLIC        gTime7
  X:C065H         PUBLIC        gTime8
  X:C067H         PUBLIC        gTime9
  X:C069H         PUBLIC        Read_StatusFlag
  X:C06BH         PUBLIC        HMI_VERSION
  X:C074H         PUBLIC        gTime
  -------         PROC          VARS_INITIALIZE
  C:667BH         LINE#         31
  C:667BH         LINE#         32
  C:667BH         LINE#         34
  C:6682H         LINE#         35
  C:6688H         LINE#         36
  C:668EH         LINE#         37
  C:6692H         LINE#         39
  C:6696H         LINE#         40
  C:669DH         LINE#         41
  C:66A2H         LINE#         43
  C:66A8H         LINE#         44
  C:66B0H         LINE#         47
  C:66B7H         LINE#         48
  C:66BBH         LINE#         50
  C:66C3H         LINE#         51
  C:66CDH         LINE#         52
  C:66D4H         LINE#         53
  C:66D8H         LINE#         55
  C:66DEH         LINE#         56
  C:66E4H         LINE#         57
  C:66E8H         LINE#         58
  C:66ECH         LINE#         59
  C:66F0H         LINE#         60
  C:66F4H         LINE#         61
  C:66F8H         LINE#         62
  C:66FCH         LINE#         63
  C:6700H         LINE#         64
  C:6704H         LINE#         66
  C:670AH         LINE#         67
  C:670EH         LINE#         69
  C:6713H         LINE#         70
  C:6715H         LINE#         71
  C:6717H         LINE#         72
  C:6719H         LINE#         73
  C:671BH         LINE#         75
  C:671DH         LINE#         77
  C:6721H         LINE#         78
  C:6725H         LINE#         79
  C:6727H         LINE#         80
  C:672BH         LINE#         81
  C:672DH         LINE#         83
  C:6732H         LINE#         84
  C:6736H         LINE#         85
  C:673AH         LINE#         86
  C:673EH         LINE#         87
  C:6742H         LINE#         88
  C:6746H         LINE#         89
  C:674AH         LINE#         91
  C:674EH         LINE#         92
  C:6754H         LINE#         94
BL51 BANKED LINKER/LOCATER V6.22.2.0                                                  12/09/2022  13:52:00  PAGE 119


  C:675AH         LINE#         95
  C:675EH         LINE#         96
  C:6762H         LINE#         98
  C:6766H         LINE#         99
  C:676AH         LINE#         100
  C:6770H         LINE#         102
  C:6776H         LINE#         103
  C:677AH         LINE#         105
  C:677EH         LINE#         106
  C:6782H         LINE#         107
  C:6786H         LINE#         108
  C:678AH         LINE#         110
  C:678EH         LINE#         111
  C:6792H         LINE#         112
  C:6796H         LINE#         113
  C:679AH         LINE#         115
  C:679EH         LINE#         117
  C:67A2H         LINE#         118
  C:67A6H         LINE#         119
  C:67AAH         LINE#         120
  C:67AEH         LINE#         123
  C:67B2H         LINE#         124
  C:67B6H         LINE#         126
  C:67BCH         LINE#         127
  C:67C0H         LINE#         129
  C:67C4H         LINE#         130
  C:67C8H         LINE#         131
  C:67CCH         LINE#         132
  C:67D0H         LINE#         134
  C:67D6H         LINE#         136
  C:67DAH         LINE#         137
  C:67DEH         LINE#         138
  C:67E2H         LINE#         140
  C:67E6H         LINE#         141
  C:67ECH         LINE#         142
  C:67F2H         LINE#         143
  C:67F6H         LINE#         144
  C:67FCH         LINE#         145
  C:6800H         LINE#         146
  C:6804H         LINE#         147
  C:6808H         LINE#         149
  C:680CH         LINE#         150
  C:6810H         LINE#         151
  C:6814H         LINE#         152
  C:6818H         LINE#         153
  C:681CH         LINE#         154
  C:6820H         LINE#         156
  C:6824H         LINE#         157
  C:6828H         LINE#         158
  C:682CH         LINE#         159
  C:6830H         LINE#         160
  C:6834H         LINE#         161
  C:6838H         LINE#         162
  C:683CH         LINE#         163
  C:6840H         LINE#         164
  C:6844H         LINE#         166
  C:6848H         LINE#         167
BL51 BANKED LINKER/LOCATER V6.22.2.0                                                  12/09/2022  13:52:00  PAGE 120


  C:684CH         LINE#         168
  C:6850H         LINE#         169
  C:6856H         LINE#         170
  C:685CH         LINE#         171
  C:6863H         LINE#         172
  C:6869H         LINE#         173
  C:686EH         LINE#         175
  C:6872H         LINE#         176
  C:6876H         LINE#         177
  C:687AH         LINE#         180
  C:687EH         LINE#         181
  C:6882H         LINE#         182
  C:6886H         LINE#         184
  C:688AH         LINE#         185
  C:688EH         LINE#         186
  C:6892H         LINE#         187
  C:6896H         LINE#         188
  C:689AH         LINE#         189
  C:68A0H         LINE#         191
  C:68A7H         LINE#         192
  C:68ADH         LINE#         193
  C:68B2H         LINE#         194
  C:68B6H         LINE#         195
  C:68BAH         LINE#         196
  C:68BEH         LINE#         197
  C:68C2H         LINE#         200
  C:68C6H         LINE#         201
  C:68CAH         LINE#         202
  C:68CEH         LINE#         203
  C:68D2H         LINE#         205
  C:68D6H         LINE#         206
  -------         ENDPROC       VARS_INITIALIZE
  -------         ENDMOD        VARS

  -------         MODULE        ?C?COPY
  C:433DH         PUBLIC        ?C?COPY
  -------         ENDMOD        ?C?COPY

  -------         MODULE        ?C?CLDPTR
  C:4363H         PUBLIC        ?C?CLDPTR
  -------         ENDMOD        ?C?CLDPTR

  -------         MODULE        ?C?CLDOPTR
  C:437CH         PUBLIC        ?C?CLDOPTR
  -------         ENDMOD        ?C?CLDOPTR

  -------         MODULE        ?C?CSTPTR
  C:43A9H         PUBLIC        ?C?CSTPTR
  -------         ENDMOD        ?C?CSTPTR

  -------         MODULE        ?C?IMUL
  C:43BBH         PUBLIC        ?C?IMUL
  -------         ENDMOD        ?C?IMUL

  -------         MODULE        ?C?UIDIV
  C:43CDH         PUBLIC        ?C?UIDIV
  -------         ENDMOD        ?C?UIDIV
BL51 BANKED LINKER/LOCATER V6.22.2.0                                                  12/09/2022  13:52:00  PAGE 121



  -------         MODULE        ?C?IILDX
  C:4422H         PUBLIC        ?C?IILDX
  -------         ENDMOD        ?C?IILDX

  -------         MODULE        ?C?ILDIX
  C:4438H         PUBLIC        ?C?ILDIX
  -------         ENDMOD        ?C?ILDIX

  -------         MODULE        ?C?ILDPTR
  C:444EH         PUBLIC        ?C?ILDPTR
  -------         ENDMOD        ?C?ILDPTR

  -------         MODULE        ?C?ILDOPTR
  C:4479H         PUBLIC        ?C?ILDOPTR
  -------         ENDMOD        ?C?ILDOPTR

  -------         MODULE        ?C?IILDPTR
  C:44B1H         PUBLIC        ?C?IILDPTR
  -------         ENDMOD        ?C?IILDPTR

  -------         MODULE        ?C?ISTPTR
  C:44E9H         PUBLIC        ?C?ISTPTR
  -------         ENDMOD        ?C?ISTPTR

  -------         MODULE        ?C?LMUL
  C:4508H         PUBLIC        ?C?LMUL
  -------         ENDMOD        ?C?LMUL

  -------         MODULE        ?C?ULDIV
  C:4593H         PUBLIC        ?C?ULDIV
  -------         ENDMOD        ?C?ULDIV

  -------         MODULE        ?C?SLDIV
  C:A151H         PUBLIC        ?C?SLDIV
  -------         ENDMOD        ?C?SLDIV

  -------         MODULE        ?C?ULCMP
  C:4625H         PUBLIC        ?C?ULCMP
  -------         ENDMOD        ?C?ULCMP

  -------         MODULE        ?C?ULSHR
  C:4636H         PUBLIC        ?C?ULSHR
  -------         ENDMOD        ?C?ULSHR

  -------         MODULE        ?C?LSHL
  C:4649H         PUBLIC        ?C?LSHL
  -------         ENDMOD        ?C?LSHL

  -------         MODULE        ?C?LSTXDATA
  C:465CH         PUBLIC        ?C?LSTXDATA
  -------         ENDMOD        ?C?LSTXDATA

  -------         MODULE        ?C?LSTKXDATA
  C:4668H         PUBLIC        ?C?LSTKXDATA
  -------         ENDMOD        ?C?LSTKXDATA

BL51 BANKED LINKER/LOCATER V6.22.2.0                                                  12/09/2022  13:52:00  PAGE 122


  -------         MODULE        ?C?OFFXADD
  C:4699H         PUBLIC        ?C?OFFXADD
  -------         ENDMOD        ?C?OFFXADD

  -------         MODULE        ?C?PLDPTR
  C:46A5H         PUBLIC        ?C?PLDPTR
  -------         ENDMOD        ?C?PLDPTR

  -------         MODULE        ?C?PLDOPTR
  C:46C5H         PUBLIC        ?C?PLDOPTR
  -------         ENDMOD        ?C?PLDOPTR

  -------         MODULE        ?C?ICALL
  C:46F5H         PUBLIC        ?C?ICALL
  C:46F9H         PUBLIC        ?C?ICALL2
  -------         ENDMOD        ?C?ICALL

  -------         MODULE        ?C?STRCMP
  C:4879H         PUBLIC        ?C?STRCMP
  -------         ENDMOD        ?C?STRCMP

  -------         MODULE        ?C?PLDIDATA
  C:4896H         PUBLIC        ?C?PLDIDATA
  -------         ENDMOD        ?C?PLDIDATA

  -------         MODULE        ?C?PLDXDATA
  C:489FH         PUBLIC        ?C?PLDXDATA
  -------         ENDMOD        ?C?PLDXDATA

  -------         MODULE        ?C?PLDPDATA
  C:48A8H         PUBLIC        ?C?PLDPDATA
  -------         ENDMOD        ?C?PLDPDATA

  -------         MODULE        ?C?PLDCODE
  C:48B1H         PUBLIC        ?C?PLDCODE
  -------         ENDMOD        ?C?PLDCODE

*** WARNING L16: UNCALLED SEGMENT, IGNORED FOR OVERLAY PROCESS
    SEGMENT: ?PR?RESETT5L?SYS

*** WARNING L16: UNCALLED SEGMENT, IGNORED FOR OVERLAY PROCESS
    SEGMENT: ?PR?_TOUCHSWITCH?SYS

*** WARNING L16: UNCALLED SEGMENT, IGNORED FOR OVERLAY PROCESS
    SEGMENT: ?PR?_MUSICPLAY?SYS

*** WARNING L16: UNCALLED SEGMENT, IGNORED FOR OVERLAY PROCESS
    SEGMENT: ?PR?NORFLASH_ACTION?SYS

*** WARNING L16: UNCALLED SEGMENT, IGNORED FOR OVERLAY PROCESS
    SEGMENT: ?PR?SPIFLASH_ACTION?SYS

*** WARNING L16: UNCALLED SEGMENT, IGNORED FOR OVERLAY PROCESS
    SEGMENT: ?PR?GETPAGEID?SYS

*** WARNING L16: UNCALLED SEGMENT, IGNORED FOR OVERLAY PROCESS
    SEGMENT: ?PR?_GETPININ?SYS
BL51 BANKED LINKER/LOCATER V6.22.2.0                                                  12/09/2022  13:52:00  PAGE 123



*** WARNING L16: UNCALLED SEGMENT, IGNORED FOR OVERLAY PROCESS
    SEGMENT: ?PR?_GETTOUCHANCTION?SYS

*** WARNING L16: UNCALLED SEGMENT, IGNORED FOR OVERLAY PROCESS
    SEGMENT: ?PR?_KILLTIMER?TIMER

*** WARNING L16: UNCALLED SEGMENT, IGNORED FOR OVERLAY PROCESS
    SEGMENT: ?PR?_UART4_SENDBYTE32?UART

*** WARNING L16: UNCALLED SEGMENT, IGNORED FOR OVERLAY PROCESS
    SEGMENT: ?PR?CANERRORRESET?CANBUS

*** WARNING L16: UNCALLED SEGMENT, IGNORED FOR OVERLAY PROCESS
    SEGMENT: ?PR?POLLING2?UI

*** WARNING L16: UNCALLED SEGMENT, IGNORED FOR OVERLAY PROCESS
    SEGMENT: ?PR?_SSD2828_READ_MIPI?SSD2828

*** WARNING L16: UNCALLED SEGMENT, IGNORED FOR OVERLAY PROCESS
    SEGMENT: ?PR?W_WRITE?SSD2828

*** WARNING L16: UNCALLED SEGMENT, IGNORED FOR OVERLAY PROCESS
    SEGMENT: ?PR?_WRITE_RTC?RTC

*** WARNING L16: UNCALLED SEGMENT, IGNORED FOR OVERLAY PROCESS
    SEGMENT: ?PR?WRITE_WIFI_RTC?RTC

*** WARNING L16: UNCALLED SEGMENT, IGNORED FOR OVERLAY PROCESS
    SEGMENT: ?PR?RTC_READ_AND_SET?RTC

*** WARNING L16: UNCALLED SEGMENT, IGNORED FOR OVERLAY PROCESS
    SEGMENT: ?PR?_SEND_MODBUS04_10?MYMODBUS

*** WARNING L16: UNCALLED SEGMENT, IGNORED FOR OVERLAY PROCESS
    SEGMENT: ?PR?_SEND_MODBUS08_10?MYMODBUS

Program Size: data=33.2 xdata=16887 code=42094
LINK/LOCATE RUN COMPLETE.  19 WARNING(S),  0 ERROR(S)
